---
triple:          'arm64-apple-darwin'
binary-path:     '/Users/GSanni/Desktop/myinfo/pet_app/src/cpp/Forecast/tutorial/main'
relocations:
  - { offsetInCU: 0x53, offset: 0x53, size: 0x8, addend: 0x0, symName: __ZL25noExistingStrategy_String, symObjAddr: 0x3D2718, symBinAddr: 0x10005C000, symSize: 0x0 }
  - { offsetInCU: 0x2B13, offset: 0x2B13, size: 0x8, addend: 0x0, symName: __ZNSt3__19__any_imp16__compare_typeidB8ue170006IdEEbPKSt9type_infoPKv, symObjAddr: 0x25788, symBinAddr: 0x100027184, symSize: 0xC4 }
  - { offsetInCU: 0x2B56, offset: 0x2B56, size: 0x8, addend: 0x0, symName: __ZNSt3__19__any_imp21__get_fallback_typeidB8ue170006IdEEPKvv, symObjAddr: 0x25928, symBinAddr: 0x100027324, symSize: 0xC }
  - { offsetInCU: 0x2CA2, offset: 0x2CA2, size: 0x8, addend: 0x0, symName: __ZNSt3__19__any_imp16__compare_typeidB8ue170006INS_6vectorINS_12basic_stringIcNS_11char_traitsIcEENS_9allocatorIcEEEENS6_IS8_EEEEEEbPKSt9type_infoPKv, symObjAddr: 0x2B5A4, symBinAddr: 0x10002CFA0, symSize: 0xC4 }
  - { offsetInCU: 0x2CE5, offset: 0x2CE5, size: 0x8, addend: 0x0, symName: __ZNSt3__19__any_imp21__get_fallback_typeidB8ue170006INS_6vectorINS_12basic_stringIcNS_11char_traitsIcEENS_9allocatorIcEEEENS6_IS8_EEEEEEPKvv, symObjAddr: 0x2B668, symBinAddr: 0x10002D064, symSize: 0xC }
  - { offsetInCU: 0x2E31, offset: 0x2E31, size: 0x8, addend: 0x0, symName: __ZNSt3__19__any_imp16__compare_typeidB8ue170006INS_6vectorINS_3anyENS_9allocatorIS3_EEEEEEbPKSt9type_infoPKv, symObjAddr: 0x2C860, symBinAddr: 0x10002E25C, symSize: 0xC4 }
  - { offsetInCU: 0x2E74, offset: 0x2E74, size: 0x8, addend: 0x0, symName: __ZNSt3__19__any_imp21__get_fallback_typeidB8ue170006INS_6vectorINS_3anyENS_9allocatorIS3_EEEEEEPKvv, symObjAddr: 0x2C924, symBinAddr: 0x10002E320, symSize: 0xC }
  - { offsetInCU: 0x2EA8, offset: 0x2EA8, size: 0x8, addend: 0x0, symName: __ZNSt3__119piecewise_constructE, symObjAddr: 0x5110C, symBinAddr: 0x100052CE4, symSize: 0x0 }
  - { offsetInCU: 0x184CE, offset: 0x184CE, size: 0x8, addend: 0x0, symName: __ZNSt3__17advanceB8ue170006INS_14__map_iteratorINS_15__tree_iteratorINS_12__value_typeINS_12basic_stringIcNS_11char_traitsIcEENS_9allocatorIcEEEEN8nlohmann16json_abi_v3_11_310basic_jsonINS_3mapENS_6vectorES9_bxydS7_NSB_14adl_serializerENSE_IhNS7_IhEEEEvEEEEPNS_11__tree_nodeISJ_PvEElEEEEiivEEvRT_T0_, symObjAddr: 0xEB7C, symBinAddr: 0x100010578, symSize: 0x40 }
  - { offsetInCU: 0x1855F, offset: 0x1855F, size: 0x8, addend: 0x0, symName: __ZNSt3__17advanceB8ue170006INS_11__wrap_iterIPN8nlohmann16json_abi_v3_11_310basic_jsonINS_3mapENS_6vectorENS_12basic_stringIcNS_11char_traitsIcEENS_9allocatorIcEEEEbxydSA_NS3_14adl_serializerENS6_IhNSA_IhEEEEvEEEEiivEEvRT_T0_, symObjAddr: 0xEBBC, symBinAddr: 0x1000105B8, symSize: 0x40 }
  - { offsetInCU: 0x19F35, offset: 0x19F35, size: 0x8, addend: 0x0, symName: __ZNSt3__17advanceB8ue170006INS_21__tree_const_iteratorINS_12__value_typeINS_12basic_stringIcNS_11char_traitsIcEENS_9allocatorIcEEEEN8nlohmann16json_abi_v3_11_310basic_jsonINS_3mapENS_6vectorES8_bxydS6_NSA_14adl_serializerENSD_IhNS6_IhEEEEvEEEEPNS_11__tree_nodeISI_PvEElEEllvEEvRT_T0_, symObjAddr: 0x1ABB0, symBinAddr: 0x10001C5AC, symSize: 0x38 }
  - { offsetInCU: 0x1B8D0, offset: 0x1B8D0, size: 0x8, addend: 0x0, symName: __ZNSt3__124__put_character_sequenceB8ue170006IcNS_11char_traitsIcEEEERNS_13basic_ostreamIT_T0_EES7_PKS4_m, symObjAddr: 0x1EBEC, symBinAddr: 0x1000205E8, symSize: 0x1EC }
  - { offsetInCU: 0x270BC, offset: 0x270BC, size: 0x8, addend: 0x0, symName: __ZNSt3__16copy_nB8ue170006IPKcmPcEENS_9enable_ifIXsr37__has_random_access_iterator_categoryIT_EE5valueET1_E4typeES5_T0_S6_, symObjAddr: 0x22FF0, symBinAddr: 0x1000249EC, symSize: 0x44 }
  - { offsetInCU: 0x2E5F8, offset: 0x2E5F8, size: 0x8, addend: 0x0, symName: __ZNSt3__17advanceB8ue170006INS_20__map_const_iteratorINS_21__tree_const_iteratorINS_12__value_typeINS_12basic_stringIcNS_11char_traitsIcEENS_9allocatorIcEEEEN8nlohmann16json_abi_v3_11_310basic_jsonINS_3mapENS_6vectorES9_bxydS7_NSB_14adl_serializerENSE_IhNS7_IhEEEEvEEEEPNS_11__tree_nodeISJ_PvEElEEEEllvEEvRT_T0_, symObjAddr: 0x493A4, symBinAddr: 0x10004ADA0, symSize: 0x38 }
  - { offsetInCU: 0x30959, offset: 0x30959, size: 0x8, addend: 0x0, symName: __ZNSt3__1lsB8ue170006INS_11char_traitsIcEEEERNS_13basic_ostreamIcT_EES6_PKc, symObjAddr: 0x3998, symBinAddr: 0x100005394, symSize: 0x48 }
  - { offsetInCU: 0x3099F, offset: 0x3099F, size: 0x8, addend: 0x0, symName: __ZNSt3__14endlB8ue170006IcNS_11char_traitsIcEEEERNS_13basic_ostreamIT_T0_EES7_, symObjAddr: 0x3A0C, symBinAddr: 0x100005408, symSize: 0x58 }
  - { offsetInCU: 0x309DF, offset: 0x309DF, size: 0x8, addend: 0x0, symName: __ZNSt3__1neB8ue170006IPKNS_12basic_stringIcNS_11char_traitsIcEENS_9allocatorIcEEEEEEbRKNS_11__wrap_iterIT_EESD_, symObjAddr: 0x4724, symBinAddr: 0x100006120, symSize: 0x34 }
  - { offsetInCU: 0x30A22, offset: 0x30A22, size: 0x8, addend: 0x0, symName: __ZNSt3__1plB8ue170006IcNS_11char_traitsIcEENS_9allocatorIcEEEENS_12basic_stringIT_T0_T1_EEOS9_RKS9_, symObjAddr: 0x4770, symBinAddr: 0x10000616C, symSize: 0x40 }
  - { offsetInCU: 0x30A7A, offset: 0x30A7A, size: 0x8, addend: 0x0, symName: __ZNSt3__1plB8ue170006IcNS_11char_traitsIcEENS_9allocatorIcEEEENS_12basic_stringIT_T0_T1_EEOS9_PKS6_, symObjAddr: 0x47B0, symBinAddr: 0x1000061AC, symSize: 0x40 }
  - { offsetInCU: 0x30AD2, offset: 0x30AD2, size: 0x8, addend: 0x0, symName: __ZNSt3__1plB8ue170006IcNS_11char_traitsIcEENS_9allocatorIcEEEENS_12basic_stringIT_T0_T1_EERKS9_PKS6_, symObjAddr: 0x47F0, symBinAddr: 0x1000061EC, symSize: 0x11C }
  - { offsetInCU: 0x30B73, offset: 0x30B73, size: 0x8, addend: 0x0, symName: __ZNSt3__1neB8ue170006IPK24_ForecastResultsByModuleEEbRKNS_11__wrap_iterIT_EES8_, symObjAddr: 0x496C, symBinAddr: 0x100006368, symSize: 0x34 }
  - { offsetInCU: 0x30BB6, offset: 0x30BB6, size: 0x8, addend: 0x0, symName: __ZNSt3__1eqB8ue170006INS_9allocatorIcEEEEbRKNS_12basic_stringIcNS_11char_traitsIcEET_EES9_, symObjAddr: 0x49B8, symBinAddr: 0x1000063B4, symSize: 0x148 }
  - { offsetInCU: 0x30C29, offset: 0x30C29, size: 0x8, addend: 0x0, symName: __ZNSt3__1neB8ue170006IP15_ForecastResultEEbRKNS_11__wrap_iterIT_EES7_, symObjAddr: 0x4B60, symBinAddr: 0x10000655C, symSize: 0x34 }
  - { offsetInCU: 0x30C6C, offset: 0x30C6C, size: 0x8, addend: 0x0, symName: __ZNSt3__1plB8ue170006IcNS_11char_traitsIcEENS_9allocatorIcEEEENS_12basic_stringIT_T0_T1_EEOS9_SA_, symObjAddr: 0x4BAC, symBinAddr: 0x1000065A8, symSize: 0x40 }
  - { offsetInCU: 0x316E2, offset: 0x316E2, size: 0x8, addend: 0x0, symName: __ZNSt3__1lsB8ue170006IcNS_11char_traitsIcEENS_9allocatorIcEEEERNS_13basic_ostreamIT_T0_EES9_RKNS_12basic_stringIS6_S7_T1_EE, symObjAddr: 0x6060, symBinAddr: 0x100007A5C, symSize: 0x4C }
  - { offsetInCU: 0x31745, offset: 0x31745, size: 0x8, addend: 0x0, symName: __ZNSt3__112__to_addressB8ue170006IKcEEPT_S3_, symObjAddr: 0x7224, symBinAddr: 0x100008C20, symSize: 0x14 }
  - { offsetInCU: 0x317AD, offset: 0x317AD, size: 0x8, addend: 0x0, symName: __ZNSt3__1eqB8ue170006IPKNS_12basic_stringIcNS_11char_traitsIcEENS_9allocatorIcEEEEEEbRKNS_11__wrap_iterIT_EESD_, symObjAddr: 0x7DB0, symBinAddr: 0x1000097AC, symSize: 0x48 }
  - { offsetInCU: 0x317F0, offset: 0x317F0, size: 0x8, addend: 0x0, symName: __ZNSt3__1eqB8ue170006IPK24_ForecastResultsByModuleEEbRKNS_11__wrap_iterIT_EES8_, symObjAddr: 0x7E10, symBinAddr: 0x10000980C, symSize: 0x48 }
  - { offsetInCU: 0x31833, offset: 0x31833, size: 0x8, addend: 0x0, symName: __ZNSt3__1eqB8ue170006IP15_ForecastResultEEbRKNS_11__wrap_iterIT_EES7_, symObjAddr: 0x7E70, symBinAddr: 0x10000986C, symSize: 0x48 }
  - { offsetInCU: 0x31876, offset: 0x31876, size: 0x8, addend: 0x0, symName: __ZNSt3__1eqB8ue170006IcNS_11char_traitsIcEENS_9allocatorIcEEEEbRKNS_12basic_stringIT_T0_T1_EEPKS6_, symObjAddr: 0x7ED0, symBinAddr: 0x1000098CC, symSize: 0xAC }
  - { offsetInCU: 0x318DD, offset: 0x318DD, size: 0x8, addend: 0x0, symName: __ZNSt3__118__constexpr_strlenB8ue170006EPKc, symObjAddr: 0x7FE4, symBinAddr: 0x1000099E0, symSize: 0x24 }
  - { offsetInCU: 0x3190A, offset: 0x3190A, size: 0x8, addend: 0x0, symName: __ZNSt3__119__libcpp_deallocateB8ue170006EPvmm, symObjAddr: 0x88A8, symBinAddr: 0x10000A2A4, symSize: 0x60 }
  - { offsetInCU: 0x31971, offset: 0x31971, size: 0x8, addend: 0x0, symName: __ZNSt3__124__is_overaligned_for_newB8ue170006Em, symObjAddr: 0x8908, symBinAddr: 0x10000A304, symSize: 0x20 }
  - { offsetInCU: 0x319A0, offset: 0x319A0, size: 0x8, addend: 0x0, symName: __ZNSt3__127__do_deallocate_handle_sizeB8ue170006IJSt11align_val_tEEEvPvmDpT_, symObjAddr: 0x8928, symBinAddr: 0x10000A324, symSize: 0x30 }
  - { offsetInCU: 0x319F4, offset: 0x319F4, size: 0x8, addend: 0x0, symName: __ZNSt3__127__do_deallocate_handle_sizeB8ue170006IJEEEvPvmDpT_, symObjAddr: 0x8958, symBinAddr: 0x10000A354, symSize: 0x28 }
  - { offsetInCU: 0x31A33, offset: 0x31A33, size: 0x8, addend: 0x0, symName: __ZNSt3__124__libcpp_operator_deleteB8ue170006IJPvSt11align_val_tEEEvDpT_, symObjAddr: 0x8980, symBinAddr: 0x10000A37C, symSize: 0x2C }
  - { offsetInCU: 0x31A7D, offset: 0x31A7D, size: 0x8, addend: 0x0, symName: __ZNSt3__124__libcpp_operator_deleteB8ue170006IJPvEEEvDpT_, symObjAddr: 0x89AC, symBinAddr: 0x10000A3A8, symSize: 0x24 }
  - { offsetInCU: 0x31AE5, offset: 0x31AE5, size: 0x8, addend: 0x0, symName: __ZNSt3__14moveB8ue170006INS_11__wrap_iterIPN8nlohmann16json_abi_v3_11_310basic_jsonINS_3mapENS_6vectorENS_12basic_stringIcNS_11char_traitsIcEENS_9allocatorIcEEEEbxydSA_NS3_14adl_serializerENS6_IhNSA_IhEEEEvEEEENS_20back_insert_iteratorINS6_ISG_NSA_ISG_EEEEEEEET0_T_SO_SN_, symObjAddr: 0x93BC, symBinAddr: 0x10000ADB8, symSize: 0x60 }
  - { offsetInCU: 0x31B3F, offset: 0x31B3F, size: 0x8, addend: 0x0, symName: __ZNSt3__113back_inserterB8ue170006INS_6vectorIN8nlohmann16json_abi_v3_11_310basic_jsonINS_3mapES1_NS_12basic_stringIcNS_11char_traitsIcEENS_9allocatorIcEEEEbxydS9_NS3_14adl_serializerENS1_IhNS9_IhEEEEvEENS9_ISF_EEEEEENS_20back_insert_iteratorIT_EERSJ_, symObjAddr: 0x947C, symBinAddr: 0x10000AE78, symSize: 0x2C }
  - { offsetInCU: 0x31B74, offset: 0x31B74, size: 0x8, addend: 0x0, symName: __ZNSt3__1neB8ue170006ERKNS_14__map_iteratorINS_15__tree_iteratorINS_12__value_typeINS_12basic_stringIcNS_11char_traitsIcEENS_9allocatorIcEEEEN8nlohmann16json_abi_v3_11_310basic_jsonINS_3mapENS_6vectorES8_bxydS6_NSA_14adl_serializerENSD_IhNS6_IhEEEEvEEEEPNS_11__tree_nodeISI_PvEElEEEESQ_, symObjAddr: 0x9540, symBinAddr: 0x10000AF3C, symSize: 0x30 }
  - { offsetInCU: 0x324ED, offset: 0x324ED, size: 0x8, addend: 0x0, symName: __ZNSt3__13minB8ue170006ImEERKT_S3_S3_, symObjAddr: 0x9DF4, symBinAddr: 0x10000B7F0, symSize: 0x2C }
  - { offsetInCU: 0x3271A, offset: 0x3271A, size: 0x8, addend: 0x0, symName: __ZNSt3__13minB8ue170006ImNS_6__lessIvvEEEERKT_S5_S5_T0_, symObjAddr: 0x9E80, symBinAddr: 0x10000B87C, symSize: 0x54 }
  - { offsetInCU: 0x327BA, offset: 0x327BA, size: 0x8, addend: 0x0, symName: __ZNSt3__120__throw_length_errorB8ue170006EPKc, symObjAddr: 0x9F5C, symBinAddr: 0x10000B958, symSize: 0x64 }
  - { offsetInCU: 0x327E4, offset: 0x327E4, size: 0x8, addend: 0x0, symName: __ZNSt3__119__allocate_at_leastB8ue170006INS_9allocatorIN8nlohmann16json_abi_v3_11_310basic_jsonINS_3mapENS_6vectorENS_12basic_stringIcNS_11char_traitsIcEENS1_IcEEEEbxydS1_NS3_14adl_serializerENS6_IhNS1_IhEEEEvEEEEEENS_19__allocation_resultINS_16allocator_traitsIT_E7pointerEEERSJ_m, symObjAddr: 0xA188, symBinAddr: 0x10000BB84, symSize: 0x40 }
  - { offsetInCU: 0x32827, offset: 0x32827, size: 0x8, addend: 0x0, symName: __ZNSt3__117__libcpp_allocateB8ue170006Emm, symObjAddr: 0xA30C, symBinAddr: 0x10000BD08, symSize: 0x60 }
  - { offsetInCU: 0x32882, offset: 0x32882, size: 0x8, addend: 0x0, symName: __ZNSt3__121__libcpp_operator_newB8ue170006IJmSt11align_val_tEEEPvDpT_, symObjAddr: 0xA36C, symBinAddr: 0x10000BD68, symSize: 0x2C }
  - { offsetInCU: 0x328CF, offset: 0x328CF, size: 0x8, addend: 0x0, symName: __ZNSt3__121__libcpp_operator_newB8ue170006IJmEEEPvDpT_, symObjAddr: 0xA398, symBinAddr: 0x10000BD94, symSize: 0x24 }
  - { offsetInCU: 0x32908, offset: 0x32908, size: 0x8, addend: 0x0, symName: __ZNSt3__142__uninitialized_allocator_move_if_noexceptB8ue170006INS_9allocatorIN8nlohmann16json_abi_v3_11_310basic_jsonINS_3mapENS_6vectorENS_12basic_stringIcNS_11char_traitsIcEENS1_IcEEEEbxydS1_NS3_14adl_serializerENS6_IhNS1_IhEEEEvEEEENS_16reverse_iteratorIPSF_EESJ_SJ_EET2_RT_T0_T1_SK_, symObjAddr: 0xA4EC, symBinAddr: 0x10000BEE8, symSize: 0x12C }
  - { offsetInCU: 0x329A8, offset: 0x329A8, size: 0x8, addend: 0x0, symName: __ZNSt3__14swapB8ue170006IPN8nlohmann16json_abi_v3_11_310basic_jsonINS_3mapENS_6vectorENS_12basic_stringIcNS_11char_traitsIcEENS_9allocatorIcEEEEbxydS9_NS2_14adl_serializerENS5_IhNS9_IhEEEEvEEEENS_9enable_ifIXaasr21is_move_constructibleIT_EE5valuesr18is_move_assignableISI_EE5valueEvE4typeERSI_SL_, symObjAddr: 0xA664, symBinAddr: 0x10000C060, symSize: 0x3C }
  - { offsetInCU: 0x329F9, offset: 0x329F9, size: 0x8, addend: 0x0, symName: __ZNSt3__112__to_addressB8ue170006IN8nlohmann16json_abi_v3_11_310basic_jsonINS_3mapENS_6vectorENS_12basic_stringIcNS_11char_traitsIcEENS_9allocatorIcEEEEbxydS9_NS2_14adl_serializerENS5_IhNS9_IhEEEEvEEEEPT_SH_, symObjAddr: 0xA7BC, symBinAddr: 0x10000C1B8, symSize: 0x14 }
  - { offsetInCU: 0x32A2E, offset: 0x32A2E, size: 0x8, addend: 0x0, symName: __ZNSt3__122__make_exception_guardB8ue170006INS_29_AllocatorDestroyRangeReverseINS_9allocatorIN8nlohmann16json_abi_v3_11_310basic_jsonINS_3mapENS_6vectorENS_12basic_stringIcNS_11char_traitsIcEENS2_IcEEEEbxydS2_NS4_14adl_serializerENS7_IhNS2_IhEEEEvEEEENS_16reverse_iteratorIPSG_EEEEEENS_28__exception_guard_exceptionsIT_EESN_, symObjAddr: 0xA7D0, symBinAddr: 0x10000C1CC, symSize: 0x4C }
  - { offsetInCU: 0x32A64, offset: 0x32A64, size: 0x8, addend: 0x0, symName: __ZNSt3__1neB8ue170006IPN8nlohmann16json_abi_v3_11_310basic_jsonINS_3mapENS_6vectorENS_12basic_stringIcNS_11char_traitsIcEENS_9allocatorIcEEEEbxydS9_NS2_14adl_serializerENS5_IhNS9_IhEEEEvEESG_EEbRKNS_16reverse_iteratorIT_EERKNSH_IT0_EE, symObjAddr: 0xA860, symBinAddr: 0x10000C25C, symSize: 0x48 }
  - { offsetInCU: 0x32AB0, offset: 0x32AB0, size: 0x8, addend: 0x0, symName: __ZNSt3__112__to_addressB8ue170006INS_16reverse_iteratorIPN8nlohmann16json_abi_v3_11_310basic_jsonINS_3mapENS_6vectorENS_12basic_stringIcNS_11char_traitsIcEENS_9allocatorIcEEEEbxydSA_NS3_14adl_serializerENS6_IhNSA_IhEEEEvEEEEvEEu7__decayIDTclsr19__to_address_helperIT_EE6__callclsr3stdE7declvalIRKSJ_EEEEESL_, symObjAddr: 0xA8DC, symBinAddr: 0x10000C2D8, symSize: 0x24 }
  - { offsetInCU: 0x32B11, offset: 0x32B11, size: 0x8, addend: 0x0, symName: __ZNSt3__119__allocator_destroyB8ue170006INS_9allocatorIN8nlohmann16json_abi_v3_11_310basic_jsonINS_3mapENS_6vectorENS_12basic_stringIcNS_11char_traitsIcEENS1_IcEEEEbxydS1_NS3_14adl_serializerENS6_IhNS1_IhEEEEvEEEENS_16reverse_iteratorINSH_IPSF_EEEESK_EEvRT_T0_T1_, symObjAddr: 0xABBC, symBinAddr: 0x10000C5B8, symSize: 0x70 }
  - { offsetInCU: 0x32B76, offset: 0x32B76, size: 0x8, addend: 0x0, symName: __ZNSt3__1neB8ue170006INS_16reverse_iteratorIPN8nlohmann16json_abi_v3_11_310basic_jsonINS_3mapENS_6vectorENS_12basic_stringIcNS_11char_traitsIcEENS_9allocatorIcEEEEbxydSA_NS3_14adl_serializerENS6_IhNSA_IhEEEEvEEEESI_EEbRKNS1_IT_EERKNS1_IT0_EE, symObjAddr: 0xAC68, symBinAddr: 0x10000C664, symSize: 0x60 }
  - { offsetInCU: 0x32BC2, offset: 0x32BC2, size: 0x8, addend: 0x0, symName: __ZNSt3__112__to_addressB8ue170006INS_16reverse_iteratorINS1_IPN8nlohmann16json_abi_v3_11_310basic_jsonINS_3mapENS_6vectorENS_12basic_stringIcNS_11char_traitsIcEENS_9allocatorIcEEEEbxydSA_NS3_14adl_serializerENS6_IhNSA_IhEEEEvEEEEEEvEEu7__decayIDTclsr19__to_address_helperIT_EE6__callclsr3stdE7declvalIRKSK_EEEEESM_, symObjAddr: 0xACF4, symBinAddr: 0x10000C6F0, symSize: 0x24 }
  - { offsetInCU: 0x32C22, offset: 0x32C22, size: 0x8, addend: 0x0, symName: __ZNSt3__16__moveB8ue170006INS_17_ClassicAlgPolicyENS_11__wrap_iterIPN8nlohmann16json_abi_v3_11_310basic_jsonINS_3mapENS_6vectorENS_12basic_stringIcNS_11char_traitsIcEENS_9allocatorIcEEEEbxydSB_NS4_14adl_serializerENS7_IhNSB_IhEEEEvEEEESJ_NS_20back_insert_iteratorINS7_ISH_NSB_ISH_EEEEEEEENS_4pairIT0_T2_EESP_T1_SQ_, symObjAddr: 0xB11C, symBinAddr: 0x10000CB18, symSize: 0x5C }
  - { offsetInCU: 0x32C8E, offset: 0x32C8E, size: 0x8, addend: 0x0, symName: __ZNSt3__123__dispatch_copy_or_moveB8ue170006INS_17_ClassicAlgPolicyENS_11__move_loopIS1_EENS_14__move_trivialENS_11__wrap_iterIPN8nlohmann16json_abi_v3_11_310basic_jsonINS_3mapENS_6vectorENS_12basic_stringIcNS_11char_traitsIcEENS_9allocatorIcEEEEbxydSE_NS7_14adl_serializerENSA_IhNSE_IhEEEEvEEEESM_NS_20back_insert_iteratorINSA_ISK_NSE_ISK_EEEEEEEENS_4pairIT2_T4_EESS_T3_ST_, symObjAddr: 0xB178, symBinAddr: 0x10000CB74, symSize: 0x5C }
  - { offsetInCU: 0x32D0C, offset: 0x32D0C, size: 0x8, addend: 0x0, symName: __ZNSt3__121__unwrap_and_dispatchB8ue170006INS_10__overloadINS_11__move_loopINS_17_ClassicAlgPolicyEEENS_14__move_trivialEEENS_11__wrap_iterIPN8nlohmann16json_abi_v3_11_310basic_jsonINS_3mapENS_6vectorENS_12basic_stringIcNS_11char_traitsIcEENS_9allocatorIcEEEEbxydSG_NS9_14adl_serializerENSC_IhNSG_IhEEEEvEEEESO_NS_20back_insert_iteratorINSC_ISM_NSG_ISM_EEEEEELi0EEENS_4pairIT0_T2_EESU_T1_SV_, symObjAddr: 0xB1D4, symBinAddr: 0x10000CBD0, symSize: 0xE8 }
  - { offsetInCU: 0x32D9B, offset: 0x32D9B, size: 0x8, addend: 0x0, symName: __ZNSt3__114__unwrap_rangeB8ue170006INS_11__wrap_iterIPN8nlohmann16json_abi_v3_11_310basic_jsonINS_3mapENS_6vectorENS_12basic_stringIcNS_11char_traitsIcEENS_9allocatorIcEEEEbxydSA_NS3_14adl_serializerENS6_IhNSA_IhEEEEvEEEESH_EENS_4pairIT0_SK_EET_SM_, symObjAddr: 0xB2BC, symBinAddr: 0x10000CCB8, symSize: 0x70 }
  - { offsetInCU: 0x32FD3, offset: 0x32FD3, size: 0x8, addend: 0x0, symName: __ZNSt3__113__unwrap_iterB8ue170006INS_20back_insert_iteratorINS_6vectorIN8nlohmann16json_abi_v3_11_310basic_jsonINS_3mapES2_NS_12basic_stringIcNS_11char_traitsIcEENS_9allocatorIcEEEEbxydSA_NS4_14adl_serializerENS2_IhNSA_IhEEEEvEENSA_ISG_EEEEEENS_18__unwrap_iter_implISJ_Lb0EEELi0EEEDTclsrT0_8__unwrapclsr3stdE7declvalIT_EEEESN_, symObjAddr: 0xB3C4, symBinAddr: 0x10000CDC0, symSize: 0x34 }
  - { offsetInCU: 0x33017, offset: 0x33017, size: 0x8, addend: 0x0, symName: __ZNSt3__19make_pairB8ue170006INS_11__wrap_iterIPN8nlohmann16json_abi_v3_11_310basic_jsonINS_3mapENS_6vectorENS_12basic_stringIcNS_11char_traitsIcEENS_9allocatorIcEEEEbxydSA_NS3_14adl_serializerENS6_IhNSA_IhEEEEvEEEENS_20back_insert_iteratorINS6_ISG_NSA_ISG_EEEEEEEENS_4pairINS_18__unwrap_ref_decayIT_E4typeENSO_IT0_E4typeEEEOSP_OSS_, symObjAddr: 0xB3F8, symBinAddr: 0x10000CDF4, symSize: 0x38 }
  - { offsetInCU: 0x33066, offset: 0x33066, size: 0x8, addend: 0x0, symName: __ZNSt3__114__rewrap_rangeB8ue170006INS_11__wrap_iterIPN8nlohmann16json_abi_v3_11_310basic_jsonINS_3mapENS_6vectorENS_12basic_stringIcNS_11char_traitsIcEENS_9allocatorIcEEEEbxydSA_NS3_14adl_serializerENS6_IhNSA_IhEEEEvEEEESH_EET_SJ_T0_, symObjAddr: 0xB430, symBinAddr: 0x10000CE2C, symSize: 0x3C }
  - { offsetInCU: 0x330B2, offset: 0x330B2, size: 0x8, addend: 0x0, symName: __ZNSt3__113__rewrap_iterB8ue170006INS_20back_insert_iteratorINS_6vectorIN8nlohmann16json_abi_v3_11_310basic_jsonINS_3mapES2_NS_12basic_stringIcNS_11char_traitsIcEENS_9allocatorIcEEEEbxydSA_NS4_14adl_serializerENS2_IhNSA_IhEEEEvEENSA_ISG_EEEEEESJ_NS_18__unwrap_iter_implISJ_Lb0EEEEET_SM_T0_, symObjAddr: 0xB46C, symBinAddr: 0x10000CE68, symSize: 0x54 }
  - { offsetInCU: 0x33107, offset: 0x33107, size: 0x8, addend: 0x0, symName: __ZNSt3__19make_pairB8ue170006IPN8nlohmann16json_abi_v3_11_310basic_jsonINS_3mapENS_6vectorENS_12basic_stringIcNS_11char_traitsIcEENS_9allocatorIcEEEEbxydS9_NS2_14adl_serializerENS5_IhNS9_IhEEEEvEESG_EENS_4pairINS_18__unwrap_ref_decayIT_E4typeENSI_IT0_E4typeEEEOSJ_OSM_, symObjAddr: 0xB4C0, symBinAddr: 0x10000CEBC, symSize: 0x38 }
  - { offsetInCU: 0x33156, offset: 0x33156, size: 0x8, addend: 0x0, symName: __ZNSt3__113__unwrap_iterB8ue170006INS_11__wrap_iterIPN8nlohmann16json_abi_v3_11_310basic_jsonINS_3mapENS_6vectorENS_12basic_stringIcNS_11char_traitsIcEENS_9allocatorIcEEEEbxydSA_NS3_14adl_serializerENS6_IhNSA_IhEEEEvEEEENS_18__unwrap_iter_implISI_Lb1EEELi0EEEDTclsrT0_8__unwrapclsr3stdE7declvalIT_EEEESM_, symObjAddr: 0xB4F8, symBinAddr: 0x10000CEF4, symSize: 0x2C }
  - { offsetInCU: 0x332C1, offset: 0x332C1, size: 0x8, addend: 0x0, symName: __ZNSt3__112__to_addressB8ue170006INS_11__wrap_iterIPN8nlohmann16json_abi_v3_11_310basic_jsonINS_3mapENS_6vectorENS_12basic_stringIcNS_11char_traitsIcEENS_9allocatorIcEEEEbxydSA_NS3_14adl_serializerENS6_IhNSA_IhEEEEvEEEEvEEu7__decayIDTclsr19__to_address_helperIT_EE6__callclsr3stdE7declvalIRKSJ_EEEEESL_, symObjAddr: 0xB5BC, symBinAddr: 0x10000CFB8, symSize: 0x24 }
  - { offsetInCU: 0x3346D, offset: 0x3346D, size: 0x8, addend: 0x0, symName: __ZNSt3__19make_pairB8ue170006IPN8nlohmann16json_abi_v3_11_310basic_jsonINS_3mapENS_6vectorENS_12basic_stringIcNS_11char_traitsIcEENS_9allocatorIcEEEEbxydS9_NS2_14adl_serializerENS5_IhNS9_IhEEEEvEENS_20back_insert_iteratorINS5_ISF_NS9_ISF_EEEEEEEENS_4pairINS_18__unwrap_ref_decayIT_E4typeENSM_IT0_E4typeEEEOSN_OSQ_, symObjAddr: 0xB6DC, symBinAddr: 0x10000D0D8, symSize: 0x38 }
  - { offsetInCU: 0x335D8, offset: 0x335D8, size: 0x8, addend: 0x0, symName: __ZNSt3__113__rewrap_iterB8ue170006INS_11__wrap_iterIPN8nlohmann16json_abi_v3_11_310basic_jsonINS_3mapENS_6vectorENS_12basic_stringIcNS_11char_traitsIcEENS_9allocatorIcEEEEbxydSA_NS3_14adl_serializerENS6_IhNSA_IhEEEEvEEEESH_NS_18__unwrap_iter_implISI_Lb1EEEEET_SL_T0_, symObjAddr: 0xB814, symBinAddr: 0x10000D210, symSize: 0x4C }
  - { offsetInCU: 0x33660, offset: 0x33660, size: 0x8, addend: 0x0, symName: __ZNSt3__1neB8ue170006ERKNS_15__tree_iteratorINS_12__value_typeINS_12basic_stringIcNS_11char_traitsIcEENS_9allocatorIcEEEEN8nlohmann16json_abi_v3_11_310basic_jsonINS_3mapENS_6vectorES7_bxydS5_NS9_14adl_serializerENSC_IhNS5_IhEEEEvEEEEPNS_11__tree_nodeISH_PvEElEESO_, symObjAddr: 0xBC14, symBinAddr: 0x10000D610, symSize: 0x34 }
  - { offsetInCU: 0x3369E, offset: 0x3369E, size: 0x8, addend: 0x0, symName: __ZNSt3__1eqB8ue170006ERKNS_15__tree_iteratorINS_12__value_typeINS_12basic_stringIcNS_11char_traitsIcEENS_9allocatorIcEEEEN8nlohmann16json_abi_v3_11_310basic_jsonINS_3mapENS_6vectorES7_bxydS5_NS9_14adl_serializerENSC_IhNS5_IhEEEEvEEEEPNS_11__tree_nodeISH_PvEElEESO_, symObjAddr: 0xBC48, symBinAddr: 0x10000D644, symSize: 0x30 }
  - { offsetInCU: 0x3370E, offset: 0x3370E, size: 0x8, addend: 0x0, symName: __ZNSt3__17launderB8ue170006INS_4pairIKNS_12basic_stringIcNS_11char_traitsIcEENS_9allocatorIcEEEEN8nlohmann16json_abi_v3_11_310basic_jsonINS_3mapENS_6vectorES7_bxydS5_NSA_14adl_serializerENSD_IhNS5_IhEEEEvEEEEEEPT_SK_, symObjAddr: 0xBCF4, symBinAddr: 0x10000D6F0, symSize: 0x24 }
  - { offsetInCU: 0x33746, offset: 0x33746, size: 0x8, addend: 0x0, symName: __ZNSt3__19__launderB8ue170006INS_4pairIKNS_12basic_stringIcNS_11char_traitsIcEENS_9allocatorIcEEEEN8nlohmann16json_abi_v3_11_310basic_jsonINS_3mapENS_6vectorES7_bxydS5_NSA_14adl_serializerENSD_IhNS5_IhEEEEvEEEEEEPT_SK_, symObjAddr: 0xBD18, symBinAddr: 0x10000D714, symSize: 0x14 }
  - { offsetInCU: 0x3377D, offset: 0x3377D, size: 0x8, addend: 0x0, symName: __ZNSt3__13maxB8ue170006ImEERKT_S3_S3_, symObjAddr: 0xC014, symBinAddr: 0x10000DA10, symSize: 0x2C }
  - { offsetInCU: 0x337C0, offset: 0x337C0, size: 0x8, addend: 0x0, symName: __ZNSt3__13maxB8ue170006ImNS_6__lessIvvEEEERKT_S5_S5_T0_, symObjAddr: 0xC040, symBinAddr: 0x10000DA3C, symSize: 0x54 }
  - { offsetInCU: 0x3381A, offset: 0x3381A, size: 0x8, addend: 0x0, symName: __ZNSt3__116__tree_next_iterB8ue170006IPNS_15__tree_end_nodeIPNS_16__tree_node_baseIPvEEEES5_EET_T0_, symObjAddr: 0xC0CC, symBinAddr: 0x10000DAC8, symSize: 0x90 }
  - { offsetInCU: 0x33858, offset: 0x33858, size: 0x8, addend: 0x0, symName: __ZNSt3__110__tree_minB8ue170006IPNS_16__tree_node_baseIPvEEEET_S5_, symObjAddr: 0xC15C, symBinAddr: 0x10000DB58, symSize: 0x40 }
  - { offsetInCU: 0x3388D, offset: 0x3388D, size: 0x8, addend: 0x0, symName: __ZNSt3__120__tree_is_left_childB8ue170006IPNS_16__tree_node_baseIPvEEEEbT_, symObjAddr: 0xC19C, symBinAddr: 0x10000DB98, symSize: 0x2C }
  - { offsetInCU: 0x338C2, offset: 0x338C2, size: 0x8, addend: 0x0, symName: __ZNSt3__112__to_addressB8ue170006IhEEPT_S2_, symObjAddr: 0xCFB4, symBinAddr: 0x10000E9B0, symSize: 0x14 }
  - { offsetInCU: 0x338F7, offset: 0x338F7, size: 0x8, addend: 0x0, symName: __ZNSt3__112__to_addressB8ue170006INS_12basic_stringIcNS_11char_traitsIcEENS_9allocatorIcEEEEEEPT_S8_, symObjAddr: 0xD478, symBinAddr: 0x10000EE74, symSize: 0x14 }
  - { offsetInCU: 0x33950, offset: 0x33950, size: 0x8, addend: 0x0, symName: __ZNSt3__1eqB8ue170006ERKNS_14__map_iteratorINS_15__tree_iteratorINS_12__value_typeINS_12basic_stringIcNS_11char_traitsIcEENS_9allocatorIcEEEEN8nlohmann16json_abi_v3_11_310basic_jsonINS_3mapENS_6vectorES8_bxydS6_NSA_14adl_serializerENSD_IhNS6_IhEEEEvEEEEPNS_11__tree_nodeISI_PvEElEEEESQ_, symObjAddr: 0xD788, symBinAddr: 0x10000F184, symSize: 0x30 }
  - { offsetInCU: 0x3398D, offset: 0x3398D, size: 0x8, addend: 0x0, symName: __ZNSt3__1ltB8ue170006IcNS_11char_traitsIcEENS_9allocatorIcEEEEbRKNS_12basic_stringIT_T0_T1_EEPKS6_, symObjAddr: 0xDD30, symBinAddr: 0x10000F72C, symSize: 0x38 }
  - { offsetInCU: 0x339E5, offset: 0x339E5, size: 0x8, addend: 0x0, symName: __ZNSt3__17launderB8ue170006IKNS_4pairIKNS_12basic_stringIcNS_11char_traitsIcEENS_9allocatorIcEEEEN8nlohmann16json_abi_v3_11_310basic_jsonINS_3mapENS_6vectorES7_bxydS5_NSA_14adl_serializerENSD_IhNS5_IhEEEEvEEEEEEPT_SL_, symObjAddr: 0xDD68, symBinAddr: 0x10000F764, symSize: 0x24 }
  - { offsetInCU: 0x33A1D, offset: 0x33A1D, size: 0x8, addend: 0x0, symName: __ZNSt3__19__launderB8ue170006IKNS_4pairIKNS_12basic_stringIcNS_11char_traitsIcEENS_9allocatorIcEEEEN8nlohmann16json_abi_v3_11_310basic_jsonINS_3mapENS_6vectorES7_bxydS5_NSA_14adl_serializerENSD_IhNS5_IhEEEEvEEEEEEPT_SL_, symObjAddr: 0xDD8C, symBinAddr: 0x10000F788, symSize: 0x14 }
  - { offsetInCU: 0x33A54, offset: 0x33A54, size: 0x8, addend: 0x0, symName: __ZNSt3__1ltB8ue170006IcNS_11char_traitsIcEENS_9allocatorIcEEEEbPKT_RKNS_12basic_stringIS5_T0_T1_EE, symObjAddr: 0xDE0C, symBinAddr: 0x10000F808, symSize: 0x38 }
  - { offsetInCU: 0x33ADF, offset: 0x33ADF, size: 0x8, addend: 0x0, symName: __ZNSt3__1eqB8ue170006IPN8nlohmann16json_abi_v3_11_310basic_jsonINS_3mapENS_6vectorENS_12basic_stringIcNS_11char_traitsIcEENS_9allocatorIcEEEEbxydS9_NS2_14adl_serializerENS5_IhNS9_IhEEEEvEEEEbRKNS_11__wrap_iterIT_EESL_, symObjAddr: 0xEA20, symBinAddr: 0x10001041C, symSize: 0x48 }
  - { offsetInCU: 0x33B22, offset: 0x33B22, size: 0x8, addend: 0x0, symName: __ZNSt3__121__convert_to_integralB8ue170006Ei, symObjAddr: 0xEC1C, symBinAddr: 0x100010618, symSize: 0x14 }
  - { offsetInCU: 0x33B4E, offset: 0x33B4E, size: 0x8, addend: 0x0, symName: __ZNSt3__19__advanceB8ue170006INS_14__map_iteratorINS_15__tree_iteratorINS_12__value_typeINS_12basic_stringIcNS_11char_traitsIcEENS_9allocatorIcEEEEN8nlohmann16json_abi_v3_11_310basic_jsonINS_3mapENS_6vectorES9_bxydS7_NSB_14adl_serializerENSE_IhNS7_IhEEEEvEEEEPNS_11__tree_nodeISJ_PvEElEEEEEEvRT_NS_15iterator_traitsISQ_E15difference_typeENS_26bidirectional_iterator_tagE, symObjAddr: 0xEC30, symBinAddr: 0x10001062C, symSize: 0xA4 }
  - { offsetInCU: 0x33B98, offset: 0x33B98, size: 0x8, addend: 0x0, symName: __ZNSt3__116__tree_prev_iterB8ue170006IPNS_16__tree_node_baseIPvEEPNS_15__tree_end_nodeIS4_EEEET_T0_, symObjAddr: 0xED38, symBinAddr: 0x100010734, symSize: 0x88 }
  - { offsetInCU: 0x33BE4, offset: 0x33BE4, size: 0x8, addend: 0x0, symName: __ZNSt3__110__tree_maxB8ue170006IPNS_16__tree_node_baseIPvEEEET_S5_, symObjAddr: 0xEDC0, symBinAddr: 0x1000107BC, symSize: 0x40 }
  - { offsetInCU: 0x33C19, offset: 0x33C19, size: 0x8, addend: 0x0, symName: __ZNSt3__19__advanceB8ue170006INS_11__wrap_iterIPN8nlohmann16json_abi_v3_11_310basic_jsonINS_3mapENS_6vectorENS_12basic_stringIcNS_11char_traitsIcEENS_9allocatorIcEEEEbxydSA_NS3_14adl_serializerENS6_IhNSA_IhEEEEvEEEEEEvRT_NS_15iterator_traitsISJ_E15difference_typeENS_26random_access_iterator_tagE, symObjAddr: 0xEE00, symBinAddr: 0x1000107FC, symSize: 0x2C }
  - { offsetInCU: 0x33C63, offset: 0x33C63, size: 0x8, addend: 0x0, symName: __ZNSt3__1neB8ue170006IPN8nlohmann16json_abi_v3_11_310basic_jsonINS_3mapENS_6vectorENS_12basic_stringIcNS_11char_traitsIcEENS_9allocatorIcEEEEbxydS9_NS2_14adl_serializerENS5_IhNS9_IhEEEEvEEEEbRKNS_11__wrap_iterIT_EESL_, symObjAddr: 0xEE2C, symBinAddr: 0x100010828, symSize: 0x34 }
  - { offsetInCU: 0x33CA6, offset: 0x33CA6, size: 0x8, addend: 0x0, symName: __ZNSt3__119__allocate_at_leastB8ue170006INS_9allocatorINS_12basic_stringIcNS_11char_traitsIcEENS1_IcEEEEEEEENS_19__allocation_resultINS_16allocator_traitsIT_E7pointerEEERSA_m, symObjAddr: 0xF7AC, symBinAddr: 0x1000111A8, symSize: 0x40 }
  - { offsetInCU: 0x33CE9, offset: 0x33CE9, size: 0x8, addend: 0x0, symName: __ZNSt3__142__uninitialized_allocator_move_if_noexceptB8ue170006INS_9allocatorINS_12basic_stringIcNS_11char_traitsIcEENS1_IcEEEEEENS_16reverse_iteratorIPS6_EESA_SA_EET2_RT_T0_T1_SB_, symObjAddr: 0xF964, symBinAddr: 0x100011360, symSize: 0x12C }
  - { offsetInCU: 0x33D89, offset: 0x33D89, size: 0x8, addend: 0x0, symName: __ZNSt3__14swapB8ue170006IPNS_12basic_stringIcNS_11char_traitsIcEENS_9allocatorIcEEEEEENS_9enable_ifIXaasr21is_move_constructibleIT_EE5valuesr18is_move_assignableIS9_EE5valueEvE4typeERS9_SC_, symObjAddr: 0xFADC, symBinAddr: 0x1000114D8, symSize: 0x3C }
  - { offsetInCU: 0x33DDA, offset: 0x33DDA, size: 0x8, addend: 0x0, symName: __ZNSt3__122__make_exception_guardB8ue170006INS_29_AllocatorDestroyRangeReverseINS_9allocatorINS_12basic_stringIcNS_11char_traitsIcEENS2_IcEEEEEENS_16reverse_iteratorIPS7_EEEEEENS_28__exception_guard_exceptionsIT_EESE_, symObjAddr: 0xFBE0, symBinAddr: 0x1000115DC, symSize: 0x4C }
  - { offsetInCU: 0x33E10, offset: 0x33E10, size: 0x8, addend: 0x0, symName: __ZNSt3__1neB8ue170006IPNS_12basic_stringIcNS_11char_traitsIcEENS_9allocatorIcEEEES7_EEbRKNS_16reverse_iteratorIT_EERKNS8_IT0_EE, symObjAddr: 0xFC70, symBinAddr: 0x10001166C, symSize: 0x48 }
  - { offsetInCU: 0x33E5C, offset: 0x33E5C, size: 0x8, addend: 0x0, symName: __ZNSt3__112__to_addressB8ue170006INS_16reverse_iteratorIPNS_12basic_stringIcNS_11char_traitsIcEENS_9allocatorIcEEEEEEvEEu7__decayIDTclsr19__to_address_helperIT_EE6__callclsr3stdE7declvalIRKSA_EEEEESC_, symObjAddr: 0xFCEC, symBinAddr: 0x1000116E8, symSize: 0x24 }
  - { offsetInCU: 0x33EBD, offset: 0x33EBD, size: 0x8, addend: 0x0, symName: __ZNSt3__119__allocator_destroyB8ue170006INS_9allocatorINS_12basic_stringIcNS_11char_traitsIcEENS1_IcEEEEEENS_16reverse_iteratorINS8_IPS6_EEEESB_EEvRT_T0_T1_, symObjAddr: 0x10048, symBinAddr: 0x100011A44, symSize: 0x70 }
  - { offsetInCU: 0x33F22, offset: 0x33F22, size: 0x8, addend: 0x0, symName: __ZNSt3__1neB8ue170006INS_16reverse_iteratorIPNS_12basic_stringIcNS_11char_traitsIcEENS_9allocatorIcEEEEEES9_EEbRKNS1_IT_EERKNS1_IT0_EE, symObjAddr: 0x100F4, symBinAddr: 0x100011AF0, symSize: 0x60 }
  - { offsetInCU: 0x33F6E, offset: 0x33F6E, size: 0x8, addend: 0x0, symName: __ZNSt3__112__to_addressB8ue170006INS_16reverse_iteratorINS1_IPNS_12basic_stringIcNS_11char_traitsIcEENS_9allocatorIcEEEEEEEEvEEu7__decayIDTclsr19__to_address_helperIT_EE6__callclsr3stdE7declvalIRKSB_EEEEESD_, symObjAddr: 0x10154, symBinAddr: 0x100011B50, symSize: 0x24 }
  - { offsetInCU: 0x33FCE, offset: 0x33FCE, size: 0x8, addend: 0x0, symName: __ZNSt3__110__str_findB8ue170006IcmNS_11char_traitsIcEELm18446744073709551615EEET0_PKT_S3_S6_S3_S3_, symObjAddr: 0x11308, symBinAddr: 0x100012D04, symSize: 0xE4 }
  - { offsetInCU: 0x34075, offset: 0x34075, size: 0x8, addend: 0x0, symName: __ZNSt3__118__search_substringB8ue170006IcNS_11char_traitsIcEEEEPKT_S5_S5_S5_S5_, symObjAddr: 0x113EC, symBinAddr: 0x100012DE8, symSize: 0x154 }
  - { offsetInCU: 0x3410F, offset: 0x3410F, size: 0x8, addend: 0x0, symName: __ZNSt3__118__constexpr_memchrB8ue170006IKccEEPT_S3_T0_m, symObjAddr: 0x115E4, symBinAddr: 0x100012FE0, symSize: 0x40 }
  - { offsetInCU: 0x344D1, offset: 0x344D1, size: 0x8, addend: 0x0, symName: __ZNSt3__1neB8ue170006INS_12basic_stringIcNS_11char_traitsIcEENS_9allocatorIcEEEEZN8nlohmann16json_abi_v3_11_310basic_jsonINS_3mapENS_6vectorES6_bxydS4_NS8_14adl_serializerENSB_IhNS4_IhEEEEvE6createIS6_JRA17_KcEEEPT_DpOT0_EUlPS6_E_EEbRKNS_10unique_ptrISK_T0_EEDn, symObjAddr: 0x11B98, symBinAddr: 0x100013594, symSize: 0x2C }
  - { offsetInCU: 0x3485D, offset: 0x3485D, size: 0x8, addend: 0x0, symName: __ZNSt3__1neB8ue170006INS_12basic_stringIcNS_11char_traitsIcEENS_9allocatorIcEEEEZN8nlohmann16json_abi_v3_11_310basic_jsonINS_3mapENS_6vectorES6_bxydS4_NS8_14adl_serializerENSB_IhNS4_IhEEEEvE6createIS6_JRKS6_EEEPT_DpOT0_EUlPS6_E_EEbRKNS_10unique_ptrISJ_T0_EEDn, symObjAddr: 0x122C4, symBinAddr: 0x100013CC0, symSize: 0x2C }
  - { offsetInCU: 0x34BE9, offset: 0x34BE9, size: 0x8, addend: 0x0, symName: __ZNSt3__1neB8ue170006INS_12basic_stringIcNS_11char_traitsIcEENS_9allocatorIcEEEEZN8nlohmann16json_abi_v3_11_310basic_jsonINS_3mapENS_6vectorES6_bxydS4_NS8_14adl_serializerENSB_IhNS4_IhEEEEvE6createIS6_JRA3_KcEEEPT_DpOT0_EUlPS6_E_EEbRKNS_10unique_ptrISK_T0_EEDn, symObjAddr: 0x129AC, symBinAddr: 0x1000143A8, symSize: 0x2C }
  - { offsetInCU: 0x34F75, offset: 0x34F75, size: 0x8, addend: 0x0, symName: __ZNSt3__1neB8ue170006INS_12basic_stringIcNS_11char_traitsIcEENS_9allocatorIcEEEEZN8nlohmann16json_abi_v3_11_310basic_jsonINS_3mapENS_6vectorES6_bxydS4_NS8_14adl_serializerENSB_IhNS4_IhEEEEvE6createIS6_JRA5_KcEEEPT_DpOT0_EUlPS6_E_EEbRKNS_10unique_ptrISK_T0_EEDn, symObjAddr: 0x13070, symBinAddr: 0x100014A6C, symSize: 0x2C }
  - { offsetInCU: 0x35301, offset: 0x35301, size: 0x8, addend: 0x0, symName: __ZNSt3__1neB8ue170006INS_12basic_stringIcNS_11char_traitsIcEENS_9allocatorIcEEEEZN8nlohmann16json_abi_v3_11_310basic_jsonINS_3mapENS_6vectorES6_bxydS4_NS8_14adl_serializerENSB_IhNS4_IhEEEEvE6createIS6_JRA6_KcEEEPT_DpOT0_EUlPS6_E_EEbRKNS_10unique_ptrISK_T0_EEDn, symObjAddr: 0x13734, symBinAddr: 0x100015130, symSize: 0x2C }
  - { offsetInCU: 0x3568D, offset: 0x3568D, size: 0x8, addend: 0x0, symName: __ZNSt3__1neB8ue170006INS_12basic_stringIcNS_11char_traitsIcEENS_9allocatorIcEEEEZN8nlohmann16json_abi_v3_11_310basic_jsonINS_3mapENS_6vectorES6_bxydS4_NS8_14adl_serializerENSB_IhNS4_IhEEEEvE6createIS6_JRA2_KcEEEPT_DpOT0_EUlPS6_E_EEbRKNS_10unique_ptrISK_T0_EEDn, symObjAddr: 0x13DF8, symBinAddr: 0x1000157F4, symSize: 0x2C }
  - { offsetInCU: 0x356D9, offset: 0x356D9, size: 0x8, addend: 0x0, symName: __ZNSt3__15beginB8ue170006INS_6vectorIdNS_9allocatorIdEEEEEEDTcldtfp_5beginEERKT_, symObjAddr: 0x1445C, symBinAddr: 0x100015E58, symSize: 0x2C }
  - { offsetInCU: 0x3570E, offset: 0x3570E, size: 0x8, addend: 0x0, symName: __ZNSt3__13endB8ue170006INS_6vectorIdNS_9allocatorIdEEEEEEDTcldtfp_3endEERKT_, symObjAddr: 0x14488, symBinAddr: 0x100015E84, symSize: 0x2C }
  - { offsetInCU: 0x35B42, offset: 0x35B42, size: 0x8, addend: 0x0, symName: __ZNSt3__1neB8ue170006INS_6vectorIN8nlohmann16json_abi_v3_11_310basic_jsonINS_3mapES1_NS_12basic_stringIcNS_11char_traitsIcEENS_9allocatorIcEEEEbxydS9_NS3_14adl_serializerENS1_IhNS9_IhEEEEvEENS9_ISF_EEEEZNSF_6createISH_JNS_11__wrap_iterIPKdEESM_EEEPT_DpOT0_EUlPSH_E_EEbRKNS_10unique_ptrISN_T0_EEDn, symObjAddr: 0x14580, symBinAddr: 0x100015F7C, symSize: 0x2C }
  - { offsetInCU: 0x35B8E, offset: 0x35B8E, size: 0x8, addend: 0x0, symName: __ZNSt3__18distanceB8ue170006INS_11__wrap_iterIPKdEEEENS_15iterator_traitsIT_E15difference_typeES6_S6_, symObjAddr: 0x148E8, symBinAddr: 0x1000162E4, symSize: 0x3C }
  - { offsetInCU: 0x35BD1, offset: 0x35BD1, size: 0x8, addend: 0x0, symName: __ZNSt3__110__distanceB8ue170006INS_11__wrap_iterIPKdEEEENS_15iterator_traitsIT_E15difference_typeES6_S6_NS_26random_access_iterator_tagE, symObjAddr: 0x149EC, symBinAddr: 0x1000163E8, symSize: 0x30 }
  - { offsetInCU: 0x35C1F, offset: 0x35C1F, size: 0x8, addend: 0x0, symName: __ZNSt3__1miB8ue170006IPKdS2_EEDTmicldtfp_4baseEcldtfp0_4baseEERKNS_11__wrap_iterIT_EERKNS4_IT0_EE, symObjAddr: 0x14A1C, symBinAddr: 0x100016418, symSize: 0x48 }
  - { offsetInCU: 0x35C6B, offset: 0x35C6B, size: 0x8, addend: 0x0, symName: __ZNSt3__122__make_exception_guardB8ue170006INS_6vectorIN8nlohmann16json_abi_v3_11_310basic_jsonINS_3mapES1_NS_12basic_stringIcNS_11char_traitsIcEENS_9allocatorIcEEEEbxydS9_NS3_14adl_serializerENS1_IhNS9_IhEEEEvEENS9_ISF_EEE16__destroy_vectorEEENS_28__exception_guard_exceptionsIT_EESK_, symObjAddr: 0x14A7C, symBinAddr: 0x100016478, symSize: 0x40 }
  - { offsetInCU: 0x35CA0, offset: 0x35CA0, size: 0x8, addend: 0x0, symName: __ZNSt3__130__uninitialized_allocator_copyB8ue170006INS_9allocatorIN8nlohmann16json_abi_v3_11_310basic_jsonINS_3mapENS_6vectorENS_12basic_stringIcNS_11char_traitsIcEENS1_IcEEEEbxydS1_NS3_14adl_serializerENS6_IhNS1_IhEEEEvEEEENS_11__wrap_iterIPKdEESK_PSF_EET2_RT_T0_T1_SM_, symObjAddr: 0x14CA4, symBinAddr: 0x1000166A0, symSize: 0x90 }
  - { offsetInCU: 0x35D3D, offset: 0x35D3D, size: 0x8, addend: 0x0, symName: __ZNSt3__114__unwrap_rangeB8ue170006INS_11__wrap_iterIPKdEES3_EENS_4pairIT0_S6_EET_S8_, symObjAddr: 0x14D34, symBinAddr: 0x100016730, symSize: 0x70 }
  - { offsetInCU: 0x35D89, offset: 0x35D89, size: 0x8, addend: 0x0, symName: __ZNSt3__135__uninitialized_allocator_copy_implB8ue170006INS_9allocatorIN8nlohmann16json_abi_v3_11_310basic_jsonINS_3mapENS_6vectorENS_12basic_stringIcNS_11char_traitsIcEENS1_IcEEEEbxydS1_NS3_14adl_serializerENS6_IhNS1_IhEEEEvEEEEPKdSI_PSF_EET2_RT_T0_T1_SK_, symObjAddr: 0x14DA4, symBinAddr: 0x1000167A0, symSize: 0xF4 }
  - { offsetInCU: 0x35E27, offset: 0x35E27, size: 0x8, addend: 0x0, symName: __ZNSt3__113__unwrap_iterB8ue170006IPN8nlohmann16json_abi_v3_11_310basic_jsonINS_3mapENS_6vectorENS_12basic_stringIcNS_11char_traitsIcEENS_9allocatorIcEEEEbxydS9_NS2_14adl_serializerENS5_IhNS9_IhEEEEvEENS_18__unwrap_iter_implISG_Lb1EEELi0EEEDTclsrT0_8__unwrapclsr3stdE7declvalIT_EEEESK_, symObjAddr: 0x14E98, symBinAddr: 0x100016894, symSize: 0x24 }
  - { offsetInCU: 0x35E6B, offset: 0x35E6B, size: 0x8, addend: 0x0, symName: __ZNSt3__113__rewrap_iterB8ue170006IPN8nlohmann16json_abi_v3_11_310basic_jsonINS_3mapENS_6vectorENS_12basic_stringIcNS_11char_traitsIcEENS_9allocatorIcEEEEbxydS9_NS2_14adl_serializerENS5_IhNS9_IhEEEEvEESG_NS_18__unwrap_iter_implISG_Lb1EEEEET_SJ_T0_, symObjAddr: 0x14EBC, symBinAddr: 0x1000168B8, symSize: 0x3C }
  - { offsetInCU: 0x35EC0, offset: 0x35EC0, size: 0x8, addend: 0x0, symName: __ZNSt3__19make_pairB8ue170006IPKdS2_EENS_4pairINS_18__unwrap_ref_decayIT_E4typeENS4_IT0_E4typeEEEOS5_OS8_, symObjAddr: 0x14EF8, symBinAddr: 0x1000168F4, symSize: 0x38 }
  - { offsetInCU: 0x35F0F, offset: 0x35F0F, size: 0x8, addend: 0x0, symName: __ZNSt3__113__unwrap_iterB8ue170006INS_11__wrap_iterIPKdEENS_18__unwrap_iter_implIS4_Lb1EEELi0EEEDTclsrT0_8__unwrapclsr3stdE7declvalIT_EEEES8_, symObjAddr: 0x14F30, symBinAddr: 0x10001692C, symSize: 0x2C }
  - { offsetInCU: 0x3607A, offset: 0x3607A, size: 0x8, addend: 0x0, symName: __ZNSt3__112__to_addressB8ue170006INS_11__wrap_iterIPKdEEvEEu7__decayIDTclsr19__to_address_helperIT_EE6__callclsr3stdE7declvalIRKS5_EEEEES7_, symObjAddr: 0x14FF4, symBinAddr: 0x1000169F0, symSize: 0x24 }
  - { offsetInCU: 0x36156, offset: 0x36156, size: 0x8, addend: 0x0, symName: __ZNSt3__112__to_addressB8ue170006IKdEEPT_S3_, symObjAddr: 0x15074, symBinAddr: 0x100016A70, symSize: 0x14 }
  - { offsetInCU: 0x3618B, offset: 0x3618B, size: 0x8, addend: 0x0, symName: __ZNSt3__122__make_exception_guardB8ue170006INS_29_AllocatorDestroyRangeReverseINS_9allocatorIN8nlohmann16json_abi_v3_11_310basic_jsonINS_3mapENS_6vectorENS_12basic_stringIcNS_11char_traitsIcEENS2_IcEEEEbxydS2_NS4_14adl_serializerENS7_IhNS2_IhEEEEvEEEEPSG_EEEENS_28__exception_guard_exceptionsIT_EESL_, symObjAddr: 0x15088, symBinAddr: 0x100016A84, symSize: 0x4C }
  - { offsetInCU: 0x361C2, offset: 0x361C2, size: 0x8, addend: 0x0, symName: __ZNSt3__119__allocator_destroyB8ue170006INS_9allocatorIN8nlohmann16json_abi_v3_11_310basic_jsonINS_3mapENS_6vectorENS_12basic_stringIcNS_11char_traitsIcEENS1_IcEEEEbxydS1_NS3_14adl_serializerENS6_IhNS1_IhEEEEvEEEENS_16reverse_iteratorIPSF_EESJ_EEvRT_T0_T1_, symObjAddr: 0x15500, symBinAddr: 0x100016EFC, symSize: 0x70 }
  - { offsetInCU: 0x36278, offset: 0x36278, size: 0x8, addend: 0x0, symName: __ZNSt3__15beginB8ue170006INS_6vectorINS_12basic_stringIcNS_11char_traitsIcEENS_9allocatorIcEEEENS5_IS7_EEEEEEDTcldtfp_5beginEERKT_, symObjAddr: 0x15BE0, symBinAddr: 0x1000175DC, symSize: 0x2C }
  - { offsetInCU: 0x362AD, offset: 0x362AD, size: 0x8, addend: 0x0, symName: __ZNSt3__13endB8ue170006INS_6vectorINS_12basic_stringIcNS_11char_traitsIcEENS_9allocatorIcEEEENS5_IS7_EEEEEEDTcldtfp_3endEERKT_, symObjAddr: 0x15C0C, symBinAddr: 0x100017608, symSize: 0x2C }
  - { offsetInCU: 0x36622, offset: 0x36622, size: 0x8, addend: 0x0, symName: __ZNSt3__1neB8ue170006INS_6vectorIN8nlohmann16json_abi_v3_11_310basic_jsonINS_3mapES1_NS_12basic_stringIcNS_11char_traitsIcEENS_9allocatorIcEEEEbxydS9_NS3_14adl_serializerENS1_IhNS9_IhEEEEvEENS9_ISF_EEEEZNSF_6createISH_JNS_11__wrap_iterIPKSB_EESM_EEEPT_DpOT0_EUlPSH_E_EEbRKNS_10unique_ptrISN_T0_EEDn, symObjAddr: 0x15CD8, symBinAddr: 0x1000176D4, symSize: 0x2C }
  - { offsetInCU: 0x3666E, offset: 0x3666E, size: 0x8, addend: 0x0, symName: __ZNSt3__18distanceB8ue170006INS_11__wrap_iterIPKNS_12basic_stringIcNS_11char_traitsIcEENS_9allocatorIcEEEEEEEENS_15iterator_traitsIT_E15difference_typeESC_SC_, symObjAddr: 0x15F84, symBinAddr: 0x100017980, symSize: 0x3C }
  - { offsetInCU: 0x366B1, offset: 0x366B1, size: 0x8, addend: 0x0, symName: __ZNSt3__110__distanceB8ue170006INS_11__wrap_iterIPKNS_12basic_stringIcNS_11char_traitsIcEENS_9allocatorIcEEEEEEEENS_15iterator_traitsIT_E15difference_typeESC_SC_NS_26random_access_iterator_tagE, symObjAddr: 0x16088, symBinAddr: 0x100017A84, symSize: 0x30 }
  - { offsetInCU: 0x366FF, offset: 0x366FF, size: 0x8, addend: 0x0, symName: __ZNSt3__1miB8ue170006IPKNS_12basic_stringIcNS_11char_traitsIcEENS_9allocatorIcEEEES8_EEDTmicldtfp_4baseEcldtfp0_4baseEERKNS_11__wrap_iterIT_EERKNSA_IT0_EE, symObjAddr: 0x160B8, symBinAddr: 0x100017AB4, symSize: 0x48 }
  - { offsetInCU: 0x3674B, offset: 0x3674B, size: 0x8, addend: 0x0, symName: __ZNSt3__130__uninitialized_allocator_copyB8ue170006INS_9allocatorIN8nlohmann16json_abi_v3_11_310basic_jsonINS_3mapENS_6vectorENS_12basic_stringIcNS_11char_traitsIcEENS1_IcEEEEbxydS1_NS3_14adl_serializerENS6_IhNS1_IhEEEEvEEEENS_11__wrap_iterIPKSB_EESK_PSF_EET2_RT_T0_T1_SM_, symObjAddr: 0x1619C, symBinAddr: 0x100017B98, symSize: 0x90 }
  - { offsetInCU: 0x367E8, offset: 0x367E8, size: 0x8, addend: 0x0, symName: __ZNSt3__114__unwrap_rangeB8ue170006INS_11__wrap_iterIPKNS_12basic_stringIcNS_11char_traitsIcEENS_9allocatorIcEEEEEES9_EENS_4pairIT0_SC_EET_SE_, symObjAddr: 0x1622C, symBinAddr: 0x100017C28, symSize: 0x70 }
  - { offsetInCU: 0x36834, offset: 0x36834, size: 0x8, addend: 0x0, symName: __ZNSt3__135__uninitialized_allocator_copy_implB8ue170006INS_9allocatorIN8nlohmann16json_abi_v3_11_310basic_jsonINS_3mapENS_6vectorENS_12basic_stringIcNS_11char_traitsIcEENS1_IcEEEEbxydS1_NS3_14adl_serializerENS6_IhNS1_IhEEEEvEEEEPKSB_SI_PSF_EET2_RT_T0_T1_SK_, symObjAddr: 0x1629C, symBinAddr: 0x100017C98, symSize: 0xF4 }
  - { offsetInCU: 0x368D2, offset: 0x368D2, size: 0x8, addend: 0x0, symName: __ZNSt3__19make_pairB8ue170006IPKNS_12basic_stringIcNS_11char_traitsIcEENS_9allocatorIcEEEES8_EENS_4pairINS_18__unwrap_ref_decayIT_E4typeENSA_IT0_E4typeEEEOSB_OSE_, symObjAddr: 0x16390, symBinAddr: 0x100017D8C, symSize: 0x38 }
  - { offsetInCU: 0x36921, offset: 0x36921, size: 0x8, addend: 0x0, symName: __ZNSt3__113__unwrap_iterB8ue170006INS_11__wrap_iterIPKNS_12basic_stringIcNS_11char_traitsIcEENS_9allocatorIcEEEEEENS_18__unwrap_iter_implISA_Lb1EEELi0EEEDTclsrT0_8__unwrapclsr3stdE7declvalIT_EEEESE_, symObjAddr: 0x163C8, symBinAddr: 0x100017DC4, symSize: 0x2C }
  - { offsetInCU: 0x36A8C, offset: 0x36A8C, size: 0x8, addend: 0x0, symName: __ZNSt3__112__to_addressB8ue170006INS_11__wrap_iterIPKNS_12basic_stringIcNS_11char_traitsIcEENS_9allocatorIcEEEEEEvEEu7__decayIDTclsr19__to_address_helperIT_EE6__callclsr3stdE7declvalIRKSB_EEEEESD_, symObjAddr: 0x1648C, symBinAddr: 0x100017E88, symSize: 0x24 }
  - { offsetInCU: 0x36B68, offset: 0x36B68, size: 0x8, addend: 0x0, symName: __ZNSt3__112__to_addressB8ue170006IKNS_12basic_stringIcNS_11char_traitsIcEENS_9allocatorIcEEEEEEPT_S9_, symObjAddr: 0x1650C, symBinAddr: 0x100017F08, symSize: 0x14 }
  - { offsetInCU: 0x36B9D, offset: 0x36B9D, size: 0x8, addend: 0x0, symName: __ZNSt3__16all_ofB8ue170006IPKN8nlohmann16json_abi_v3_11_36detail8json_refINS2_10basic_jsonINS_3mapENS_6vectorENS_12basic_stringIcNS_11char_traitsIcEENS_9allocatorIcEEEEbxydSB_NS2_14adl_serializerENS7_IhNSB_IhEEEEvEEEEZNSH_C1ESt16initializer_listISI_EbNS3_7value_tEEUlRSJ_E_EEbT_SQ_T0_, symObjAddr: 0x16A8C, symBinAddr: 0x100018488, symSize: 0x94 }
  - { offsetInCU: 0x36FF6, offset: 0x36FF6, size: 0x8, addend: 0x0, symName: __ZNSt3__1neB8ue170006INS_3mapINS_12basic_stringIcNS_11char_traitsIcEENS_9allocatorIcEEEEN8nlohmann16json_abi_v3_11_310basic_jsonIS1_NS_6vectorES7_bxydS5_NS9_14adl_serializerENSB_IhNS5_IhEEEEvEENS_4lessIvEENS5_INS_4pairIKS7_SF_EEEEEEZNSF_6createISM_JEEEPT_DpOT0_EUlPSM_E_EEbRKNS_10unique_ptrISO_T0_EEDn, symObjAddr: 0x17A90, symBinAddr: 0x10001948C, symSize: 0x2C }
  - { offsetInCU: 0x37382, offset: 0x37382, size: 0x8, addend: 0x0, symName: __ZNSt3__1neB8ue170006INS_6vectorIN8nlohmann16json_abi_v3_11_310basic_jsonINS_3mapES1_NS_12basic_stringIcNS_11char_traitsIcEENS_9allocatorIcEEEEbxydS9_NS3_14adl_serializerENS1_IhNS9_IhEEEEvEENS9_ISF_EEEEZNSF_6createISH_JEEEPT_DpOT0_EUlPSH_E_EEbRKNS_10unique_ptrISJ_T0_EEDn, symObjAddr: 0x182A8, symBinAddr: 0x100019CA4, symSize: 0x2C }
  - { offsetInCU: 0x3770E, offset: 0x3770E, size: 0x8, addend: 0x0, symName: __ZNSt3__1neB8ue170006INS_12basic_stringIcNS_11char_traitsIcEENS_9allocatorIcEEEEZN8nlohmann16json_abi_v3_11_310basic_jsonINS_3mapENS_6vectorES6_bxydS4_NS8_14adl_serializerENSB_IhNS4_IhEEEEvE6createIS6_JRA1_KcEEEPT_DpOT0_EUlPS6_E_EEbRKNS_10unique_ptrISK_T0_EEDn, symObjAddr: 0x18690, symBinAddr: 0x10001A08C, symSize: 0x2C }
  - { offsetInCU: 0x37B59, offset: 0x37B59, size: 0x8, addend: 0x0, symName: __ZNSt3__1neB8ue170006IN8nlohmann16json_abi_v3_11_327byte_container_with_subtypeINS_6vectorIhNS_9allocatorIhEEEEEEZNS2_10basic_jsonINS_3mapES4_NS_12basic_stringIcNS_11char_traitsIcEENS5_IcEEEEbxydS5_NS2_14adl_serializerES7_vE6createIS8_JEEEPT_DpOT0_EUlPS8_E_EEbRKNS_10unique_ptrISJ_T0_EEDn, symObjAddr: 0x18AA4, symBinAddr: 0x10001A4A0, symSize: 0x2C }
  - { offsetInCU: 0x37EE5, offset: 0x37EE5, size: 0x8, addend: 0x0, symName: __ZNSt3__1neB8ue170006INS_3mapINS_12basic_stringIcNS_11char_traitsIcEENS_9allocatorIcEEEEN8nlohmann16json_abi_v3_11_310basic_jsonIS1_NS_6vectorES7_bxydS5_NS9_14adl_serializerENSB_IhNS5_IhEEEEvEENS_4lessIvEENS5_INS_4pairIKS7_SF_EEEEEEZNSF_6createISM_JRKSM_EEEPT_DpOT0_EUlPSM_E_EEbRKNS_10unique_ptrISQ_T0_EEDn, symObjAddr: 0x196D4, symBinAddr: 0x10001B0D0, symSize: 0x2C }
  - { offsetInCU: 0x37F31, offset: 0x37F31, size: 0x8, addend: 0x0, symName: __ZNSt3__1neB8ue170006ERKNS_20__map_const_iteratorINS_21__tree_const_iteratorINS_12__value_typeINS_12basic_stringIcNS_11char_traitsIcEENS_9allocatorIcEEEEN8nlohmann16json_abi_v3_11_310basic_jsonINS_3mapENS_6vectorES8_bxydS6_NSA_14adl_serializerENSD_IhNS6_IhEEEEvEEEEPNS_11__tree_nodeISI_PvEElEEEESQ_, symObjAddr: 0x19CD4, symBinAddr: 0x10001B6D0, symSize: 0x30 }
  - { offsetInCU: 0x37F6E, offset: 0x37F6E, size: 0x8, addend: 0x0, symName: __ZNSt3__1neB8ue170006ERKNS_21__tree_const_iteratorINS_12__value_typeINS_12basic_stringIcNS_11char_traitsIcEENS_9allocatorIcEEEEN8nlohmann16json_abi_v3_11_310basic_jsonINS_3mapENS_6vectorES7_bxydS5_NS9_14adl_serializerENSC_IhNS5_IhEEEEvEEEEPNS_11__tree_nodeISH_PvEElEESO_, symObjAddr: 0x19DDC, symBinAddr: 0x10001B7D8, symSize: 0x34 }
  - { offsetInCU: 0x37FAC, offset: 0x37FAC, size: 0x8, addend: 0x0, symName: __ZNSt3__1eqB8ue170006ERKNS_21__tree_const_iteratorINS_12__value_typeINS_12basic_stringIcNS_11char_traitsIcEENS_9allocatorIcEEEEN8nlohmann16json_abi_v3_11_310basic_jsonINS_3mapENS_6vectorES7_bxydS5_NS9_14adl_serializerENSC_IhNS5_IhEEEEvEEEEPNS_11__tree_nodeISH_PvEElEESO_, symObjAddr: 0x19E10, symBinAddr: 0x10001B80C, symSize: 0x30 }
  - { offsetInCU: 0x3800D, offset: 0x3800D, size: 0x8, addend: 0x0, symName: __ZNSt3__14nextB8ue170006INS_21__tree_const_iteratorINS_12__value_typeINS_12basic_stringIcNS_11char_traitsIcEENS_9allocatorIcEEEEN8nlohmann16json_abi_v3_11_310basic_jsonINS_3mapENS_6vectorES8_bxydS6_NSA_14adl_serializerENSD_IhNS6_IhEEEEvEEEEPNS_11__tree_nodeISI_PvEElEEEENS_9enable_ifIXsr29__has_input_iterator_categoryIT_EE5valueESP_E4typeESP_NS_15iterator_traitsISP_E15difference_typeE, symObjAddr: 0x1A84C, symBinAddr: 0x10001C248, symSize: 0x3C }
  - { offsetInCU: 0x38050, offset: 0x38050, size: 0x8, addend: 0x0, symName: __ZNSt3__1ltB8ue170006IcNS_11char_traitsIcEENS_9allocatorIcEEEEbRKNS_12basic_stringIT_T0_T1_EESB_, symObjAddr: 0x1A8F4, symBinAddr: 0x10001C2F0, symSize: 0x38 }
  - { offsetInCU: 0x380A8, offset: 0x380A8, size: 0x8, addend: 0x0, symName: __ZNSt3__121__convert_to_integralB8ue170006El, symObjAddr: 0x1ABE8, symBinAddr: 0x10001C5E4, symSize: 0x14 }
  - { offsetInCU: 0x380D4, offset: 0x380D4, size: 0x8, addend: 0x0, symName: __ZNSt3__19__advanceB8ue170006INS_21__tree_const_iteratorINS_12__value_typeINS_12basic_stringIcNS_11char_traitsIcEENS_9allocatorIcEEEEN8nlohmann16json_abi_v3_11_310basic_jsonINS_3mapENS_6vectorES8_bxydS6_NSA_14adl_serializerENSD_IhNS6_IhEEEEvEEEEPNS_11__tree_nodeISI_PvEElEEEEvRT_NS_15iterator_traitsISO_E15difference_typeENS_26bidirectional_iterator_tagE, symObjAddr: 0x1ABFC, symBinAddr: 0x10001C5F8, symSize: 0xA4 }
  - { offsetInCU: 0x3813D, offset: 0x3813D, size: 0x8, addend: 0x0, symName: __ZNSt3__127__tree_balance_after_insertB8ue170006IPNS_16__tree_node_baseIPvEEEEvT_S5_, symObjAddr: 0x1B13C, symBinAddr: 0x10001CB38, symSize: 0x27C }
  - { offsetInCU: 0x381BC, offset: 0x381BC, size: 0x8, addend: 0x0, symName: __ZNSt3__118__tree_left_rotateB8ue170006IPNS_16__tree_node_baseIPvEEEEvT_, symObjAddr: 0x1B3B8, symBinAddr: 0x10001CDB4, symSize: 0xD8 }
  - { offsetInCU: 0x381FF, offset: 0x381FF, size: 0x8, addend: 0x0, symName: __ZNSt3__119__tree_right_rotateB8ue170006IPNS_16__tree_node_baseIPvEEEEvT_, symObjAddr: 0x1B490, symBinAddr: 0x10001CE8C, symSize: 0xCC }
  - { offsetInCU: 0x385B4, offset: 0x385B4, size: 0x8, addend: 0x0, symName: __ZNSt3__1neB8ue170006INS_6vectorIN8nlohmann16json_abi_v3_11_310basic_jsonINS_3mapES1_NS_12basic_stringIcNS_11char_traitsIcEENS_9allocatorIcEEEEbxydS9_NS3_14adl_serializerENS1_IhNS9_IhEEEEvEENS9_ISF_EEEEZNSF_6createISH_JRKSH_EEEPT_DpOT0_EUlPSH_E_EEbRKNS_10unique_ptrISL_T0_EEDn, symObjAddr: 0x1BBD0, symBinAddr: 0x10001D5CC, symSize: 0x2C }
  - { offsetInCU: 0x38600, offset: 0x38600, size: 0x8, addend: 0x0, symName: __ZNSt3__130__uninitialized_allocator_copyB8ue170006INS_9allocatorIN8nlohmann16json_abi_v3_11_310basic_jsonINS_3mapENS_6vectorENS_12basic_stringIcNS_11char_traitsIcEENS1_IcEEEEbxydS1_NS3_14adl_serializerENS6_IhNS1_IhEEEEvEEEEPSF_SH_SH_EET2_RT_T0_T1_SI_, symObjAddr: 0x1C040, symBinAddr: 0x10001DA3C, symSize: 0x80 }
  - { offsetInCU: 0x3869D, offset: 0x3869D, size: 0x8, addend: 0x0, symName: __ZNSt3__114__unwrap_rangeB8ue170006IPN8nlohmann16json_abi_v3_11_310basic_jsonINS_3mapENS_6vectorENS_12basic_stringIcNS_11char_traitsIcEENS_9allocatorIcEEEEbxydS9_NS2_14adl_serializerENS5_IhNS9_IhEEEEvEESG_EENS_4pairIT0_SI_EET_SK_, symObjAddr: 0x1C0C0, symBinAddr: 0x10001DABC, symSize: 0x60 }
  - { offsetInCU: 0x386E9, offset: 0x386E9, size: 0x8, addend: 0x0, symName: __ZNSt3__135__uninitialized_allocator_copy_implB8ue170006INS_9allocatorIN8nlohmann16json_abi_v3_11_310basic_jsonINS_3mapENS_6vectorENS_12basic_stringIcNS_11char_traitsIcEENS1_IcEEEEbxydS1_NS3_14adl_serializerENS6_IhNS1_IhEEEEvEEEEPSF_SH_SH_EET2_RT_T0_T1_SI_, symObjAddr: 0x1C120, symBinAddr: 0x10001DB1C, symSize: 0xF4 }
  - { offsetInCU: 0x38AC7, offset: 0x38AC7, size: 0x8, addend: 0x0, symName: __ZNSt3__1neB8ue170006IN8nlohmann16json_abi_v3_11_327byte_container_with_subtypeINS_6vectorIhNS_9allocatorIhEEEEEEZNS2_10basic_jsonINS_3mapES4_NS_12basic_stringIcNS_11char_traitsIcEENS5_IcEEEEbxydS5_NS2_14adl_serializerES7_vE6createIS8_JRKS8_EEEPT_DpOT0_EUlPS8_E_EEbRKNS_10unique_ptrISL_T0_EEDn, symObjAddr: 0x1C648, symBinAddr: 0x10001E044, symSize: 0x2C }
  - { offsetInCU: 0x38B13, offset: 0x38B13, size: 0x8, addend: 0x0, symName: __ZNSt3__122__make_exception_guardB8ue170006INS_6vectorIhNS_9allocatorIhEEE16__destroy_vectorEEENS_28__exception_guard_exceptionsIT_EES7_, symObjAddr: 0x1CAD4, symBinAddr: 0x10001E4D0, symSize: 0x40 }
  - { offsetInCU: 0x38B48, offset: 0x38B48, size: 0x8, addend: 0x0, symName: __ZNSt3__119__allocate_at_leastB8ue170006INS_9allocatorIhEEEENS_19__allocation_resultINS_16allocator_traitsIT_E7pointerEEERS5_m, symObjAddr: 0x1CD68, symBinAddr: 0x10001E764, symSize: 0x40 }
  - { offsetInCU: 0x38B8B, offset: 0x38B8B, size: 0x8, addend: 0x0, symName: __ZNSt3__130__uninitialized_allocator_copyB8ue170006INS_9allocatorIhEEPhS3_S3_EET2_RT_T0_T1_S4_, symObjAddr: 0x1CF80, symBinAddr: 0x10001E97C, symSize: 0x80 }
  - { offsetInCU: 0x38C28, offset: 0x38C28, size: 0x8, addend: 0x0, symName: __ZNSt3__114__unwrap_rangeB8ue170006IPhS1_EENS_4pairIT0_S3_EET_S5_, symObjAddr: 0x1D070, symBinAddr: 0x10001EA6C, symSize: 0x60 }
  - { offsetInCU: 0x38C74, offset: 0x38C74, size: 0x8, addend: 0x0, symName: __ZNSt3__135__uninitialized_allocator_copy_implB8ue170006INS_9allocatorIhEEhhhLPv0EEEPT2_RT_PT0_S9_S5_, symObjAddr: 0x1D0D0, symBinAddr: 0x10001EACC, symSize: 0x38 }
  - { offsetInCU: 0x38CF6, offset: 0x38CF6, size: 0x8, addend: 0x0, symName: __ZNSt3__113__unwrap_iterB8ue170006IPhNS_18__unwrap_iter_implIS1_Lb1EEELi0EEEDTclsrT0_8__unwrapclsr3stdE7declvalIT_EEEES5_, symObjAddr: 0x1D108, symBinAddr: 0x10001EB04, symSize: 0x24 }
  - { offsetInCU: 0x38D3A, offset: 0x38D3A, size: 0x8, addend: 0x0, symName: __ZNSt3__113__rewrap_iterB8ue170006IPhS1_NS_18__unwrap_iter_implIS1_Lb1EEEEET_S4_T0_, symObjAddr: 0x1D12C, symBinAddr: 0x10001EB28, symSize: 0x3C }
  - { offsetInCU: 0x38D8F, offset: 0x38D8F, size: 0x8, addend: 0x0, symName: __ZNSt3__19make_pairB8ue170006IPhS1_EENS_4pairINS_18__unwrap_ref_decayIT_E4typeENS3_IT0_E4typeEEEOS4_OS7_, symObjAddr: 0x1D168, symBinAddr: 0x10001EB64, symSize: 0x38 }
  - { offsetInCU: 0x38EE1, offset: 0x38EE1, size: 0x8, addend: 0x0, symName: __ZNSt3__14copyB8ue170006IPhS1_EET0_T_S3_S2_, symObjAddr: 0x1D210, symBinAddr: 0x10001EC0C, symSize: 0x40 }
  - { offsetInCU: 0x38F3B, offset: 0x38F3B, size: 0x8, addend: 0x0, symName: __ZNSt3__16__copyB8ue170006INS_17_ClassicAlgPolicyEPhS2_S2_EENS_4pairIT0_T2_EES4_T1_S5_, symObjAddr: 0x1D250, symBinAddr: 0x10001EC4C, symSize: 0x44 }
  - { offsetInCU: 0x38FA7, offset: 0x38FA7, size: 0x8, addend: 0x0, symName: __ZNSt3__123__dispatch_copy_or_moveB8ue170006INS_17_ClassicAlgPolicyENS_11__copy_loopIS1_EENS_14__copy_trivialEPhS5_S5_EENS_4pairIT2_T4_EES7_T3_S8_, symObjAddr: 0x1D294, symBinAddr: 0x10001EC90, symSize: 0x44 }
  - { offsetInCU: 0x39025, offset: 0x39025, size: 0x8, addend: 0x0, symName: __ZNSt3__121__unwrap_and_dispatchB8ue170006INS_10__overloadINS_11__copy_loopINS_17_ClassicAlgPolicyEEENS_14__copy_trivialEEEPhS7_S7_Li0EEENS_4pairIT0_T2_EES9_T1_SA_, symObjAddr: 0x1D2D8, symBinAddr: 0x10001ECD4, symSize: 0xB4 }
  - { offsetInCU: 0x39135, offset: 0x39135, size: 0x8, addend: 0x0, symName: __ZNSt3__114__rewrap_rangeB8ue170006IPhS1_EET_S2_T0_, symObjAddr: 0x1D3D4, symBinAddr: 0x10001EDD0, symSize: 0x2C }
  - { offsetInCU: 0x39181, offset: 0x39181, size: 0x8, addend: 0x0, symName: __ZNSt3__119__copy_trivial_implB8ue170006IhhEENS_4pairIPT_PT0_EES3_S3_S5_, symObjAddr: 0x1D400, symBinAddr: 0x10001EDFC, symSize: 0x78 }
  - { offsetInCU: 0x391E9, offset: 0x391E9, size: 0x8, addend: 0x0, symName: __ZNSt3__119__constexpr_memmoveB8ue170006IhhLi0EEEPT_S2_PT0_NS_15__element_countE, symObjAddr: 0x1D478, symBinAddr: 0x10001EE74, symSize: 0x64 }
  - { offsetInCU: 0x39257, offset: 0x39257, size: 0x8, addend: 0x0, symName: __ZNSt3__19make_pairB8ue170006IRPhS1_EENS_4pairINS_18__unwrap_ref_decayIT_E4typeENS4_IT0_E4typeEEEOS5_OS8_, symObjAddr: 0x1D4DC, symBinAddr: 0x10001EED8, symSize: 0x38 }
  - { offsetInCU: 0x3965D, offset: 0x3965D, size: 0x8, addend: 0x0, symName: __ZNSt3__1neB8ue170006INS_6vectorIN8nlohmann16json_abi_v3_11_310basic_jsonINS_3mapES1_NS_12basic_stringIcNS_11char_traitsIcEENS_9allocatorIcEEEEbxydS9_NS3_14adl_serializerENS1_IhNS9_IhEEEEvEENS9_ISF_EEEEZNSF_6createISH_JPKNS3_6detail8json_refISF_EESN_EEEPT_DpOT0_EUlPSH_E_EEbRKNS_10unique_ptrISO_T0_EEDn, symObjAddr: 0x1DC60, symBinAddr: 0x10001F65C, symSize: 0x2C }
  - { offsetInCU: 0x396A9, offset: 0x396A9, size: 0x8, addend: 0x0, symName: __ZNSt3__18distanceB8ue170006IPKN8nlohmann16json_abi_v3_11_36detail8json_refINS2_10basic_jsonINS_3mapENS_6vectorENS_12basic_stringIcNS_11char_traitsIcEENS_9allocatorIcEEEEbxydSB_NS2_14adl_serializerENS7_IhNSB_IhEEEEvEEEEEENS_15iterator_traitsIT_E15difference_typeESM_SM_, symObjAddr: 0x1DEDC, symBinAddr: 0x10001F8D8, symSize: 0x2C }
  - { offsetInCU: 0x396EC, offset: 0x396EC, size: 0x8, addend: 0x0, symName: __ZNSt3__110__distanceB8ue170006IPKN8nlohmann16json_abi_v3_11_36detail8json_refINS2_10basic_jsonINS_3mapENS_6vectorENS_12basic_stringIcNS_11char_traitsIcEENS_9allocatorIcEEEEbxydSB_NS2_14adl_serializerENS7_IhNSB_IhEEEEvEEEEEENS_15iterator_traitsIT_E15difference_typeESM_SM_NS_26random_access_iterator_tagE, symObjAddr: 0x1DFC0, symBinAddr: 0x10001F9BC, symSize: 0x28 }
  - { offsetInCU: 0x3973A, offset: 0x3973A, size: 0x8, addend: 0x0, symName: __ZNSt3__130__uninitialized_allocator_copyB8ue170006INS_9allocatorIN8nlohmann16json_abi_v3_11_310basic_jsonINS_3mapENS_6vectorENS_12basic_stringIcNS_11char_traitsIcEENS1_IcEEEEbxydS1_NS3_14adl_serializerENS6_IhNS1_IhEEEEvEEEEPKNS3_6detail8json_refISF_EESL_PSF_EET2_RT_T0_T1_SN_, symObjAddr: 0x1E074, symBinAddr: 0x10001FA70, symSize: 0x80 }
  - { offsetInCU: 0x397D7, offset: 0x397D7, size: 0x8, addend: 0x0, symName: __ZNSt3__114__unwrap_rangeB8ue170006IPKN8nlohmann16json_abi_v3_11_36detail8json_refINS2_10basic_jsonINS_3mapENS_6vectorENS_12basic_stringIcNS_11char_traitsIcEENS_9allocatorIcEEEEbxydSB_NS2_14adl_serializerENS7_IhNSB_IhEEEEvEEEESK_EENS_4pairIT0_SM_EET_SO_, symObjAddr: 0x1E0F4, symBinAddr: 0x10001FAF0, symSize: 0x60 }
  - { offsetInCU: 0x39823, offset: 0x39823, size: 0x8, addend: 0x0, symName: __ZNSt3__135__uninitialized_allocator_copy_implB8ue170006INS_9allocatorIN8nlohmann16json_abi_v3_11_310basic_jsonINS_3mapENS_6vectorENS_12basic_stringIcNS_11char_traitsIcEENS1_IcEEEEbxydS1_NS3_14adl_serializerENS6_IhNS1_IhEEEEvEEEEPKNS3_6detail8json_refISF_EESL_PSF_EET2_RT_T0_T1_SN_, symObjAddr: 0x1E154, symBinAddr: 0x10001FB50, symSize: 0xF4 }
  - { offsetInCU: 0x398C1, offset: 0x398C1, size: 0x8, addend: 0x0, symName: __ZNSt3__19make_pairB8ue170006IPKN8nlohmann16json_abi_v3_11_36detail8json_refINS2_10basic_jsonINS_3mapENS_6vectorENS_12basic_stringIcNS_11char_traitsIcEENS_9allocatorIcEEEEbxydSB_NS2_14adl_serializerENS7_IhNSB_IhEEEEvEEEESK_EENS_4pairINS_18__unwrap_ref_decayIT_E4typeENSM_IT0_E4typeEEEOSN_OSQ_, symObjAddr: 0x1E248, symBinAddr: 0x10001FC44, symSize: 0x38 }
  - { offsetInCU: 0x39910, offset: 0x39910, size: 0x8, addend: 0x0, symName: __ZNSt3__113__unwrap_iterB8ue170006IPKN8nlohmann16json_abi_v3_11_36detail8json_refINS2_10basic_jsonINS_3mapENS_6vectorENS_12basic_stringIcNS_11char_traitsIcEENS_9allocatorIcEEEEbxydSB_NS2_14adl_serializerENS7_IhNSB_IhEEEEvEEEENS_18__unwrap_iter_implISK_Lb1EEELi0EEEDTclsrT0_8__unwrapclsr3stdE7declvalIT_EEEESO_, symObjAddr: 0x1E280, symBinAddr: 0x10001FC7C, symSize: 0x24 }
  - { offsetInCU: 0x39A7B, offset: 0x39A7B, size: 0x8, addend: 0x0, symName: __ZNSt3__112__to_addressB8ue170006IKN8nlohmann16json_abi_v3_11_36detail8json_refINS2_10basic_jsonINS_3mapENS_6vectorENS_12basic_stringIcNS_11char_traitsIcEENS_9allocatorIcEEEEbxydSB_NS2_14adl_serializerENS7_IhNSB_IhEEEEvEEEEEEPT_SL_, symObjAddr: 0x1E338, symBinAddr: 0x10001FD34, symSize: 0x14 }
  - { offsetInCU: 0x39AB0, offset: 0x39AB0, size: 0x8, addend: 0x0, symName: __ZNSt3__112__to_addressB8ue170006I15_ForecastResultEEPT_S3_, symObjAddr: 0x1EA64, symBinAddr: 0x100020460, symSize: 0x14 }
  - { offsetInCU: 0x39AE5, offset: 0x39AE5, size: 0x8, addend: 0x0, symName: __ZNSt3__116__pad_and_outputB8ue170006IcNS_11char_traitsIcEEEENS_19ostreambuf_iteratorIT_T0_EES6_PKS4_S8_S8_RNS_8ios_baseES4_, symObjAddr: 0x1EDF4, symBinAddr: 0x1000207F0, symSize: 0x240 }
  - { offsetInCU: 0x39BB4, offset: 0x39BB4, size: 0x8, addend: 0x0, symName: __ZNSt3__112__to_addressB8ue170006IcEEPT_S2_, symObjAddr: 0x1F264, symBinAddr: 0x100020C60, symSize: 0x14 }
  - { offsetInCU: 0x39BE9, offset: 0x39BE9, size: 0x8, addend: 0x0, symName: __ZNSt3__19use_facetB8ue170006INS_5ctypeIcEEEERKT_RKNS_6localeE, symObjAddr: 0x1F410, symBinAddr: 0x100020E0C, symSize: 0x2C }
  - { offsetInCU: 0x3A0B6, offset: 0x3A0B6, size: 0x8, addend: 0x0, symName: __ZNSt3__119__allocate_at_leastB8ue170006INS_9allocatorI15_ForecastResultEEEENS_19__allocation_resultINS_16allocator_traitsIT_E7pointerEEERS6_m, symObjAddr: 0x202BC, symBinAddr: 0x100021CB8, symSize: 0x40 }
  - { offsetInCU: 0x3A0F9, offset: 0x3A0F9, size: 0x8, addend: 0x0, symName: __ZNSt3__142__uninitialized_allocator_move_if_noexceptB8ue170006INS_9allocatorI15_ForecastResultEENS_16reverse_iteratorIPS2_EES6_S6_EET2_RT_T0_T1_S7_, symObjAddr: 0x20474, symBinAddr: 0x100021E70, symSize: 0x12C }
  - { offsetInCU: 0x3A199, offset: 0x3A199, size: 0x8, addend: 0x0, symName: __ZNSt3__14swapB8ue170006IP15_ForecastResultEENS_9enable_ifIXaasr21is_move_constructibleIT_EE5valuesr18is_move_assignableIS4_EE5valueEvE4typeERS4_S7_, symObjAddr: 0x205EC, symBinAddr: 0x100021FE8, symSize: 0x3C }
  - { offsetInCU: 0x3A1EA, offset: 0x3A1EA, size: 0x8, addend: 0x0, symName: __ZNSt3__122__make_exception_guardB8ue170006INS_29_AllocatorDestroyRangeReverseINS_9allocatorI15_ForecastResultEENS_16reverse_iteratorIPS3_EEEEEENS_28__exception_guard_exceptionsIT_EESA_, symObjAddr: 0x206F0, symBinAddr: 0x1000220EC, symSize: 0x4C }
  - { offsetInCU: 0x3A220, offset: 0x3A220, size: 0x8, addend: 0x0, symName: __ZNSt3__1neB8ue170006IP15_ForecastResultS2_EEbRKNS_16reverse_iteratorIT_EERKNS3_IT0_EE, symObjAddr: 0x20780, symBinAddr: 0x10002217C, symSize: 0x48 }
  - { offsetInCU: 0x3A26C, offset: 0x3A26C, size: 0x8, addend: 0x0, symName: __ZNSt3__112__to_addressB8ue170006INS_16reverse_iteratorIP15_ForecastResultEEvEEu7__decayIDTclsr19__to_address_helperIT_EE6__callclsr3stdE7declvalIRKS5_EEEEES7_, symObjAddr: 0x207FC, symBinAddr: 0x1000221F8, symSize: 0x24 }
  - { offsetInCU: 0x3A2CD, offset: 0x3A2CD, size: 0x8, addend: 0x0, symName: __ZNSt3__119__allocator_destroyB8ue170006INS_9allocatorI15_ForecastResultEENS_16reverse_iteratorINS4_IPS2_EEEES7_EEvRT_T0_T1_, symObjAddr: 0x20DF4, symBinAddr: 0x1000227F0, symSize: 0x70 }
  - { offsetInCU: 0x3A332, offset: 0x3A332, size: 0x8, addend: 0x0, symName: __ZNSt3__1neB8ue170006INS_16reverse_iteratorIP15_ForecastResultEES4_EEbRKNS1_IT_EERKNS1_IT0_EE, symObjAddr: 0x20EA0, symBinAddr: 0x10002289C, symSize: 0x60 }
  - { offsetInCU: 0x3A37E, offset: 0x3A37E, size: 0x8, addend: 0x0, symName: __ZNSt3__112__to_addressB8ue170006INS_16reverse_iteratorINS1_IP15_ForecastResultEEEEvEEu7__decayIDTclsr19__to_address_helperIT_EE6__callclsr3stdE7declvalIRKS6_EEEEES8_, symObjAddr: 0x20F00, symBinAddr: 0x1000228FC, symSize: 0x24 }
  - { offsetInCU: 0x3A3DE, offset: 0x3A3DE, size: 0x8, addend: 0x0, symName: __ZNSt3__17launderB8ue170006INS_4pairIKNS_12basic_stringIcNS_11char_traitsIcEENS_9allocatorIcEEEENS_6vectorINS_3anyENS5_ISA_EEEEEEEEPT_SF_, symObjAddr: 0x22498, symBinAddr: 0x100023E94, symSize: 0x24 }
  - { offsetInCU: 0x3A416, offset: 0x3A416, size: 0x8, addend: 0x0, symName: __ZNSt3__19__launderB8ue170006INS_4pairIKNS_12basic_stringIcNS_11char_traitsIcEENS_9allocatorIcEEEENS_6vectorINS_3anyENS5_ISA_EEEEEEEEPT_SF_, symObjAddr: 0x224BC, symBinAddr: 0x100023EB8, symSize: 0x14 }
  - { offsetInCU: 0x3A44D, offset: 0x3A44D, size: 0x8, addend: 0x0, symName: __ZNSt3__17launderB8ue170006INS_4pairIKNS_12basic_stringIcNS_11char_traitsIcEENS_9allocatorIcEEEENS_3mapIS7_NS_6vectorINS_3anyENS5_ISB_EEEENS_4lessIS7_EENS5_INS1_IS8_SD_EEEEEEEEEEPT_SL_, symObjAddr: 0x22588, symBinAddr: 0x100023F84, symSize: 0x24 }
  - { offsetInCU: 0x3A485, offset: 0x3A485, size: 0x8, addend: 0x0, symName: __ZNSt3__19__launderB8ue170006INS_4pairIKNS_12basic_stringIcNS_11char_traitsIcEENS_9allocatorIcEEEENS_3mapIS7_NS_6vectorINS_3anyENS5_ISB_EEEENS_4lessIS7_EENS5_INS1_IS8_SD_EEEEEEEEEEPT_SL_, symObjAddr: 0x225AC, symBinAddr: 0x100023FA8, symSize: 0x14 }
  - { offsetInCU: 0x3A4BC, offset: 0x3A4BC, size: 0x8, addend: 0x0, symName: __ZNSt3__17launderB8ue170006INS_4pairIKNS_12basic_stringIcNS_11char_traitsIcEENS_9allocatorIcEEEENS_3mapIS7_NS9_IS7_NS_6vectorINS_3anyENS5_ISB_EEEENS_4lessIS7_EENS5_INS1_IS8_SD_EEEEEESF_NS5_INS1_IS8_SI_EEEEEEEEEEPT_SO_, symObjAddr: 0x22678, symBinAddr: 0x100024074, symSize: 0x24 }
  - { offsetInCU: 0x3A4F4, offset: 0x3A4F4, size: 0x8, addend: 0x0, symName: __ZNSt3__19__launderB8ue170006INS_4pairIKNS_12basic_stringIcNS_11char_traitsIcEENS_9allocatorIcEEEENS_3mapIS7_NS9_IS7_NS_6vectorINS_3anyENS5_ISB_EEEENS_4lessIS7_EENS5_INS1_IS8_SD_EEEEEESF_NS5_INS1_IS8_SI_EEEEEEEEEEPT_SO_, symObjAddr: 0x2269C, symBinAddr: 0x100024098, symSize: 0x14 }
  - { offsetInCU: 0x3A52B, offset: 0x3A52B, size: 0x8, addend: 0x0, symName: __ZNSt3__17launderB8ue170006INS_4pairIKNS_12basic_stringIcNS_11char_traitsIcEENS_9allocatorIcEEEENS_3mapIS7_NS9_IS7_NS9_IS7_NS_6vectorINS_3anyENS5_ISB_EEEENS_4lessIS7_EENS5_INS1_IS8_SD_EEEEEESF_NS5_INS1_IS8_SI_EEEEEESF_NS5_INS1_IS8_SL_EEEEEEEEEEPT_SR_, symObjAddr: 0x22768, symBinAddr: 0x100024164, symSize: 0x24 }
  - { offsetInCU: 0x3A563, offset: 0x3A563, size: 0x8, addend: 0x0, symName: __ZNSt3__19__launderB8ue170006INS_4pairIKNS_12basic_stringIcNS_11char_traitsIcEENS_9allocatorIcEEEENS_3mapIS7_NS9_IS7_NS9_IS7_NS_6vectorINS_3anyENS5_ISB_EEEENS_4lessIS7_EENS5_INS1_IS8_SD_EEEEEESF_NS5_INS1_IS8_SI_EEEEEESF_NS5_INS1_IS8_SL_EEEEEEEEEEPT_SR_, symObjAddr: 0x2278C, symBinAddr: 0x100024188, symSize: 0x14 }
  - { offsetInCU: 0x3A59A, offset: 0x3A59A, size: 0x8, addend: 0x0, symName: __ZNSt3__17launderB8ue170006INS_4pairIKNS_12basic_stringIcNS_11char_traitsIcEENS_9allocatorIcEEEENS_3mapIS7_NS9_IS7_NS9_IS7_NS9_IS7_NS_6vectorINS_3anyENS5_ISB_EEEENS_4lessIS7_EENS5_INS1_IS8_SD_EEEEEESF_NS5_INS1_IS8_SI_EEEEEESF_NS5_INS1_IS8_SL_EEEEEESF_NS5_INS1_IS8_SO_EEEEEEEEEEPT_SU_, symObjAddr: 0x22858, symBinAddr: 0x100024254, symSize: 0x24 }
  - { offsetInCU: 0x3A5D2, offset: 0x3A5D2, size: 0x8, addend: 0x0, symName: __ZNSt3__19__launderB8ue170006INS_4pairIKNS_12basic_stringIcNS_11char_traitsIcEENS_9allocatorIcEEEENS_3mapIS7_NS9_IS7_NS9_IS7_NS9_IS7_NS_6vectorINS_3anyENS5_ISB_EEEENS_4lessIS7_EENS5_INS1_IS8_SD_EEEEEESF_NS5_INS1_IS8_SI_EEEEEESF_NS5_INS1_IS8_SL_EEEEEESF_NS5_INS1_IS8_SO_EEEEEEEEEEPT_SU_, symObjAddr: 0x2287C, symBinAddr: 0x100024278, symSize: 0x14 }
  - { offsetInCU: 0x3A7F5, offset: 0x3A7F5, size: 0x8, addend: 0x0, symName: __ZNSt3__14copyB8ue170006IPKcPcEET0_T_S5_S4_, symObjAddr: 0x23034, symBinAddr: 0x100024A30, symSize: 0x40 }
  - { offsetInCU: 0x3A84F, offset: 0x3A84F, size: 0x8, addend: 0x0, symName: __ZNSt3__16__copyB8ue170006INS_17_ClassicAlgPolicyEPKcS3_PcEENS_4pairIT0_T2_EES6_T1_S7_, symObjAddr: 0x23074, symBinAddr: 0x100024A70, symSize: 0x44 }
  - { offsetInCU: 0x3A8BB, offset: 0x3A8BB, size: 0x8, addend: 0x0, symName: __ZNSt3__123__dispatch_copy_or_moveB8ue170006INS_17_ClassicAlgPolicyENS_11__copy_loopIS1_EENS_14__copy_trivialEPKcS6_PcEENS_4pairIT2_T4_EES9_T3_SA_, symObjAddr: 0x230B8, symBinAddr: 0x100024AB4, symSize: 0x44 }
  - { offsetInCU: 0x3A939, offset: 0x3A939, size: 0x8, addend: 0x0, symName: __ZNSt3__121__unwrap_and_dispatchB8ue170006INS_10__overloadINS_11__copy_loopINS_17_ClassicAlgPolicyEEENS_14__copy_trivialEEEPKcS8_PcLi0EEENS_4pairIT0_T2_EESB_T1_SC_, symObjAddr: 0x230FC, symBinAddr: 0x100024AF8, symSize: 0xB4 }
  - { offsetInCU: 0x3A9C7, offset: 0x3A9C7, size: 0x8, addend: 0x0, symName: __ZNSt3__114__unwrap_rangeB8ue170006IPKcS2_EENS_4pairIT0_S4_EET_S6_, symObjAddr: 0x231B0, symBinAddr: 0x100024BAC, symSize: 0x60 }
  - { offsetInCU: 0x3AB16, offset: 0x3AB16, size: 0x8, addend: 0x0, symName: __ZNSt3__113__unwrap_iterB8ue170006IPcNS_18__unwrap_iter_implIS1_Lb1EEELi0EEEDTclsrT0_8__unwrapclsr3stdE7declvalIT_EEEES5_, symObjAddr: 0x23258, symBinAddr: 0x100024C54, symSize: 0x24 }
  - { offsetInCU: 0x3AB5A, offset: 0x3AB5A, size: 0x8, addend: 0x0, symName: __ZNSt3__19make_pairB8ue170006IPKcPcEENS_4pairINS_18__unwrap_ref_decayIT_E4typeENS5_IT0_E4typeEEEOS6_OS9_, symObjAddr: 0x2327C, symBinAddr: 0x100024C78, symSize: 0x38 }
  - { offsetInCU: 0x3ABA9, offset: 0x3ABA9, size: 0x8, addend: 0x0, symName: __ZNSt3__114__rewrap_rangeB8ue170006IPKcS2_EET_S3_T0_, symObjAddr: 0x232B4, symBinAddr: 0x100024CB0, symSize: 0x2C }
  - { offsetInCU: 0x3ABF5, offset: 0x3ABF5, size: 0x8, addend: 0x0, symName: __ZNSt3__113__rewrap_iterB8ue170006IPcS1_NS_18__unwrap_iter_implIS1_Lb1EEEEET_S4_T0_, symObjAddr: 0x232E0, symBinAddr: 0x100024CDC, symSize: 0x3C }
  - { offsetInCU: 0x3AC4A, offset: 0x3AC4A, size: 0x8, addend: 0x0, symName: __ZNSt3__19make_pairB8ue170006IPKcS2_EENS_4pairINS_18__unwrap_ref_decayIT_E4typeENS4_IT0_E4typeEEEOS5_OS8_, symObjAddr: 0x2331C, symBinAddr: 0x100024D18, symSize: 0x38 }
  - { offsetInCU: 0x3AC99, offset: 0x3AC99, size: 0x8, addend: 0x0, symName: __ZNSt3__113__unwrap_iterB8ue170006IPKcNS_18__unwrap_iter_implIS2_Lb1EEELi0EEEDTclsrT0_8__unwrapclsr3stdE7declvalIT_EEEES6_, symObjAddr: 0x23354, symBinAddr: 0x100024D50, symSize: 0x24 }
  - { offsetInCU: 0x3AE04, offset: 0x3AE04, size: 0x8, addend: 0x0, symName: __ZNSt3__119__copy_trivial_implB8ue170006IKccEENS_4pairIPT_PT0_EES4_S4_S6_, symObjAddr: 0x2340C, symBinAddr: 0x100024E08, symSize: 0x78 }
  - { offsetInCU: 0x3AE6C, offset: 0x3AE6C, size: 0x8, addend: 0x0, symName: __ZNSt3__119__constexpr_memmoveB8ue170006IcKcLi0EEEPT_S3_PT0_NS_15__element_countE, symObjAddr: 0x23484, symBinAddr: 0x100024E80, symSize: 0x64 }
  - { offsetInCU: 0x3AEDA, offset: 0x3AEDA, size: 0x8, addend: 0x0, symName: __ZNSt3__19make_pairB8ue170006IRPKcPcEENS_4pairINS_18__unwrap_ref_decayIT_E4typeENS6_IT0_E4typeEEEOS7_OSA_, symObjAddr: 0x234E8, symBinAddr: 0x100024EE4, symSize: 0x38 }
  - { offsetInCU: 0x3AF7C, offset: 0x3AF7C, size: 0x8, addend: 0x0, symName: __ZNSt3__113__rewrap_iterB8ue170006IPKcS2_NS_18__unwrap_iter_implIS2_Lb1EEEEET_S5_T0_, symObjAddr: 0x23624, symBinAddr: 0x100025020, symSize: 0x3C }
  - { offsetInCU: 0x3AFD1, offset: 0x3AFD1, size: 0x8, addend: 0x0, symName: __ZNSt3__16fill_nB8ue170006IPcmcEET_S2_T0_RKT1_, symObjAddr: 0x236F0, symBinAddr: 0x1000250EC, symSize: 0x44 }
  - { offsetInCU: 0x3B034, offset: 0x3B034, size: 0x8, addend: 0x0, symName: __ZNSt3__18__fill_nB8ue170006IPcmcEET_S2_T0_RKT1_, symObjAddr: 0x23734, symBinAddr: 0x100025130, symSize: 0x64 }
  - { offsetInCU: 0x3B097, offset: 0x3B097, size: 0x8, addend: 0x0, symName: __ZNSt3__121__convert_to_integralB8ue170006Em, symObjAddr: 0x23798, symBinAddr: 0x100025194, symSize: 0x14 }
  - { offsetInCU: 0x3B0C3, offset: 0x3B0C3, size: 0x8, addend: 0x0, symName: __ZNSt3__112__to_addressB8ue170006INS_3anyEEEPT_S3_, symObjAddr: 0x23D60, symBinAddr: 0x10002575C, symSize: 0x14 }
  - { offsetInCU: 0x3B0F8, offset: 0x3B0F8, size: 0x8, addend: 0x0, symName: __ZNSt3__119__allocate_at_leastB8ue170006INS_9allocatorINS_3anyEEEEENS_19__allocation_resultINS_16allocator_traitsIT_E7pointerEEERS6_m, symObjAddr: 0x2472C, symBinAddr: 0x100026128, symSize: 0x40 }
  - { offsetInCU: 0x3B13B, offset: 0x3B13B, size: 0x8, addend: 0x0, symName: __ZNSt3__142__uninitialized_allocator_move_if_noexceptB8ue170006INS_9allocatorINS_3anyEEENS_16reverse_iteratorIPS2_EES6_S6_EET2_RT_T0_T1_S7_, symObjAddr: 0x248E0, symBinAddr: 0x1000262DC, symSize: 0x12C }
  - { offsetInCU: 0x3B1DB, offset: 0x3B1DB, size: 0x8, addend: 0x0, symName: __ZNSt3__14swapB8ue170006IPNS_3anyEEENS_9enable_ifIXaasr21is_move_constructibleIT_EE5valuesr18is_move_assignableIS4_EE5valueEvE4typeERS4_S7_, symObjAddr: 0x24A58, symBinAddr: 0x100026454, symSize: 0x3C }
  - { offsetInCU: 0x3B22C, offset: 0x3B22C, size: 0x8, addend: 0x0, symName: __ZNSt3__122__make_exception_guardB8ue170006INS_29_AllocatorDestroyRangeReverseINS_9allocatorINS_3anyEEENS_16reverse_iteratorIPS3_EEEEEENS_28__exception_guard_exceptionsIT_EESA_, symObjAddr: 0x24B40, symBinAddr: 0x10002653C, symSize: 0x4C }
  - { offsetInCU: 0x3B262, offset: 0x3B262, size: 0x8, addend: 0x0, symName: __ZNSt3__1neB8ue170006IPNS_3anyES2_EEbRKNS_16reverse_iteratorIT_EERKNS3_IT0_EE, symObjAddr: 0x24BD0, symBinAddr: 0x1000265CC, symSize: 0x48 }
  - { offsetInCU: 0x3B2AE, offset: 0x3B2AE, size: 0x8, addend: 0x0, symName: __ZNSt3__112__to_addressB8ue170006INS_16reverse_iteratorIPNS_3anyEEEvEEu7__decayIDTclsr19__to_address_helperIT_EE6__callclsr3stdE7declvalIRKS5_EEEEES7_, symObjAddr: 0x24C18, symBinAddr: 0x100026614, symSize: 0x24 }
  - { offsetInCU: 0x3B30F, offset: 0x3B30F, size: 0x8, addend: 0x0, symName: __ZNSt3__119__allocator_destroyB8ue170006INS_9allocatorINS_3anyEEENS_16reverse_iteratorINS4_IPS2_EEEES7_EEvRT_T0_T1_, symObjAddr: 0x24EC8, symBinAddr: 0x1000268C4, symSize: 0x70 }
  - { offsetInCU: 0x3B374, offset: 0x3B374, size: 0x8, addend: 0x0, symName: __ZNSt3__1neB8ue170006INS_16reverse_iteratorIPNS_3anyEEES4_EEbRKNS1_IT_EERKNS1_IT0_EE, symObjAddr: 0x24F74, symBinAddr: 0x100026970, symSize: 0x60 }
  - { offsetInCU: 0x3B3C0, offset: 0x3B3C0, size: 0x8, addend: 0x0, symName: __ZNSt3__112__to_addressB8ue170006INS_16reverse_iteratorINS1_IPNS_3anyEEEEEvEEu7__decayIDTclsr19__to_address_helperIT_EE6__callclsr3stdE7declvalIRKS6_EEEEES8_, symObjAddr: 0x24FD4, symBinAddr: 0x1000269D0, symSize: 0x24 }
  - { offsetInCU: 0x3B421, offset: 0x3B421, size: 0x8, addend: 0x0, symName: __ZNSt3__120__libcpp_unreachableB8ue170006Ev, symObjAddr: 0x2568C, symBinAddr: 0x100027088, symSize: 0x4 }
  - { offsetInCU: 0x3B471, offset: 0x3B471, size: 0x8, addend: 0x0, symName: __ZNSt3__116forward_as_tupleB8ue170006IJRKNS_12basic_stringIcNS_11char_traitsIcEENS_9allocatorIcEEEEEEENS_5tupleIJDpOT_EEESC_, symObjAddr: 0x25A54, symBinAddr: 0x100027450, symSize: 0x2C }
  - { offsetInCU: 0x3B4AB, offset: 0x3B4AB, size: 0x8, addend: 0x0, symName: __ZNSt3__116forward_as_tupleB8ue170006IJEEENS_5tupleIJDpOT_EEES4_, symObjAddr: 0x25A80, symBinAddr: 0x10002747C, symSize: 0x4 }
  - { offsetInCU: 0x3B4CF, offset: 0x3B4CF, size: 0x8, addend: 0x0, symName: __ZNSt3__17launderB8ue170006IKNS_4pairIKNS_12basic_stringIcNS_11char_traitsIcEENS_9allocatorIcEEEENS_3mapIS7_NS9_IS7_NS9_IS7_NS9_IS7_NS_6vectorINS_3anyENS5_ISB_EEEENS_4lessIS7_EENS5_INS1_IS8_SD_EEEEEESF_NS5_INS1_IS8_SI_EEEEEESF_NS5_INS1_IS8_SL_EEEEEESF_NS5_INS1_IS8_SO_EEEEEEEEEEPT_SV_, symObjAddr: 0x2609C, symBinAddr: 0x100027A98, symSize: 0x24 }
  - { offsetInCU: 0x3B507, offset: 0x3B507, size: 0x8, addend: 0x0, symName: __ZNSt3__19__launderB8ue170006IKNS_4pairIKNS_12basic_stringIcNS_11char_traitsIcEENS_9allocatorIcEEEENS_3mapIS7_NS9_IS7_NS9_IS7_NS9_IS7_NS_6vectorINS_3anyENS5_ISB_EEEENS_4lessIS7_EENS5_INS1_IS8_SD_EEEEEESF_NS5_INS1_IS8_SI_EEEEEESF_NS5_INS1_IS8_SL_EEEEEESF_NS5_INS1_IS8_SO_EEEEEEEEEEPT_SV_, symObjAddr: 0x260C0, symBinAddr: 0x100027ABC, symSize: 0x14 }
  - { offsetInCU: 0x3B568, offset: 0x3B568, size: 0x8, addend: 0x0, symName: __ZNSt3__13getB8ue170006ILm0EJRKNS_12basic_stringIcNS_11char_traitsIcEENS_9allocatorIcEEEEEEERNS_13tuple_elementIXT_ENS_5tupleIJDpT0_EEEE4typeERSD_, symObjAddr: 0x26504, symBinAddr: 0x100027F00, symSize: 0x24 }
  - { offsetInCU: 0x3B602, offset: 0x3B602, size: 0x8, addend: 0x0, symName: __ZNSt3__17launderB8ue170006IKNS_4pairIKNS_12basic_stringIcNS_11char_traitsIcEENS_9allocatorIcEEEENS_3mapIS7_NS9_IS7_NS9_IS7_NS_6vectorINS_3anyENS5_ISB_EEEENS_4lessIS7_EENS5_INS1_IS8_SD_EEEEEESF_NS5_INS1_IS8_SI_EEEEEESF_NS5_INS1_IS8_SL_EEEEEEEEEEPT_SS_, symObjAddr: 0x272F0, symBinAddr: 0x100028CEC, symSize: 0x24 }
  - { offsetInCU: 0x3B63A, offset: 0x3B63A, size: 0x8, addend: 0x0, symName: __ZNSt3__19__launderB8ue170006IKNS_4pairIKNS_12basic_stringIcNS_11char_traitsIcEENS_9allocatorIcEEEENS_3mapIS7_NS9_IS7_NS9_IS7_NS_6vectorINS_3anyENS5_ISB_EEEENS_4lessIS7_EENS5_INS1_IS8_SD_EEEEEESF_NS5_INS1_IS8_SI_EEEEEESF_NS5_INS1_IS8_SL_EEEEEEEEEEPT_SS_, symObjAddr: 0x27314, symBinAddr: 0x100028D10, symSize: 0x14 }
  - { offsetInCU: 0x3B6C2, offset: 0x3B6C2, size: 0x8, addend: 0x0, symName: __ZNSt3__17launderB8ue170006IKNS_4pairIKNS_12basic_stringIcNS_11char_traitsIcEENS_9allocatorIcEEEENS_3mapIS7_NS9_IS7_NS_6vectorINS_3anyENS5_ISB_EEEENS_4lessIS7_EENS5_INS1_IS8_SD_EEEEEESF_NS5_INS1_IS8_SI_EEEEEEEEEEPT_SP_, symObjAddr: 0x28418, symBinAddr: 0x100029E14, symSize: 0x24 }
  - { offsetInCU: 0x3B6FA, offset: 0x3B6FA, size: 0x8, addend: 0x0, symName: __ZNSt3__19__launderB8ue170006IKNS_4pairIKNS_12basic_stringIcNS_11char_traitsIcEENS_9allocatorIcEEEENS_3mapIS7_NS9_IS7_NS_6vectorINS_3anyENS5_ISB_EEEENS_4lessIS7_EENS5_INS1_IS8_SD_EEEEEESF_NS5_INS1_IS8_SI_EEEEEEEEEEPT_SP_, symObjAddr: 0x2843C, symBinAddr: 0x100029E38, symSize: 0x14 }
  - { offsetInCU: 0x3B782, offset: 0x3B782, size: 0x8, addend: 0x0, symName: __ZNSt3__17launderB8ue170006IKNS_4pairIKNS_12basic_stringIcNS_11char_traitsIcEENS_9allocatorIcEEEENS_3mapIS7_NS_6vectorINS_3anyENS5_ISB_EEEENS_4lessIS7_EENS5_INS1_IS8_SD_EEEEEEEEEEPT_SM_, symObjAddr: 0x29540, symBinAddr: 0x10002AF3C, symSize: 0x24 }
  - { offsetInCU: 0x3B7BA, offset: 0x3B7BA, size: 0x8, addend: 0x0, symName: __ZNSt3__19__launderB8ue170006IKNS_4pairIKNS_12basic_stringIcNS_11char_traitsIcEENS_9allocatorIcEEEENS_3mapIS7_NS_6vectorINS_3anyENS5_ISB_EEEENS_4lessIS7_EENS5_INS1_IS8_SD_EEEEEEEEEEPT_SM_, symObjAddr: 0x29564, symBinAddr: 0x10002AF60, symSize: 0x14 }
  - { offsetInCU: 0x3B842, offset: 0x3B842, size: 0x8, addend: 0x0, symName: __ZNSt3__116forward_as_tupleB8ue170006IJNS_12basic_stringIcNS_11char_traitsIcEENS_9allocatorIcEEEEEEENS_5tupleIJDpOT_EEESA_, symObjAddr: 0x2A084, symBinAddr: 0x10002BA80, symSize: 0x2C }
  - { offsetInCU: 0x3B87B, offset: 0x3B87B, size: 0x8, addend: 0x0, symName: __ZNSt3__17launderB8ue170006IKNS_4pairIKNS_12basic_stringIcNS_11char_traitsIcEENS_9allocatorIcEEEENS_6vectorINS_3anyENS5_ISA_EEEEEEEEPT_SG_, symObjAddr: 0x2A694, symBinAddr: 0x10002C090, symSize: 0x24 }
  - { offsetInCU: 0x3B8B3, offset: 0x3B8B3, size: 0x8, addend: 0x0, symName: __ZNSt3__19__launderB8ue170006IKNS_4pairIKNS_12basic_stringIcNS_11char_traitsIcEENS_9allocatorIcEEEENS_6vectorINS_3anyENS5_ISA_EEEEEEEEPT_SG_, symObjAddr: 0x2A6B8, symBinAddr: 0x10002C0B4, symSize: 0x14 }
  - { offsetInCU: 0x3B908, offset: 0x3B908, size: 0x8, addend: 0x0, symName: __ZNSt3__13getB8ue170006ILm0EJONS_12basic_stringIcNS_11char_traitsIcEENS_9allocatorIcEEEEEEERNS_13tuple_elementIXT_ENS_5tupleIJDpT0_EEEE4typeERSC_, symObjAddr: 0x2AB04, symBinAddr: 0x10002C500, symSize: 0x24 }
  - { offsetInCU: 0x3BF7F, offset: 0x3BF7F, size: 0x8, addend: 0x0, symName: __ZNSt3__122__make_exception_guardB8ue170006INS_6vectorINS_3anyENS_9allocatorIS2_EEE16__destroy_vectorEEENS_28__exception_guard_exceptionsIT_EES8_, symObjAddr: 0x2BAE4, symBinAddr: 0x10002D4E0, symSize: 0x40 }
  - { offsetInCU: 0x3BFB4, offset: 0x3BFB4, size: 0x8, addend: 0x0, symName: __ZNSt3__130__uninitialized_allocator_copyB8ue170006INS_9allocatorINS_3anyEEEPS2_S4_S4_EET2_RT_T0_T1_S5_, symObjAddr: 0x2BCFC, symBinAddr: 0x10002D6F8, symSize: 0x80 }
  - { offsetInCU: 0x3C051, offset: 0x3C051, size: 0x8, addend: 0x0, symName: __ZNSt3__114__unwrap_rangeB8ue170006IPNS_3anyES2_EENS_4pairIT0_S4_EET_S6_, symObjAddr: 0x2BD7C, symBinAddr: 0x10002D778, symSize: 0x60 }
  - { offsetInCU: 0x3C09D, offset: 0x3C09D, size: 0x8, addend: 0x0, symName: __ZNSt3__135__uninitialized_allocator_copy_implB8ue170006INS_9allocatorINS_3anyEEEPS2_S4_S4_EET2_RT_T0_T1_S5_, symObjAddr: 0x2BDDC, symBinAddr: 0x10002D7D8, symSize: 0xF4 }
  - { offsetInCU: 0x3C13B, offset: 0x3C13B, size: 0x8, addend: 0x0, symName: __ZNSt3__113__unwrap_iterB8ue170006IPNS_3anyENS_18__unwrap_iter_implIS2_Lb1EEELi0EEEDTclsrT0_8__unwrapclsr3stdE7declvalIT_EEEES6_, symObjAddr: 0x2BED0, symBinAddr: 0x10002D8CC, symSize: 0x24 }
  - { offsetInCU: 0x3C17F, offset: 0x3C17F, size: 0x8, addend: 0x0, symName: __ZNSt3__113__rewrap_iterB8ue170006IPNS_3anyES2_NS_18__unwrap_iter_implIS2_Lb1EEEEET_S5_T0_, symObjAddr: 0x2BEF4, symBinAddr: 0x10002D8F0, symSize: 0x3C }
  - { offsetInCU: 0x3C1D4, offset: 0x3C1D4, size: 0x8, addend: 0x0, symName: __ZNSt3__19make_pairB8ue170006IPNS_3anyES2_EENS_4pairINS_18__unwrap_ref_decayIT_E4typeENS4_IT0_E4typeEEEOS5_OS8_, symObjAddr: 0x2BF30, symBinAddr: 0x10002D92C, symSize: 0x38 }
  - { offsetInCU: 0x3C2F7, offset: 0x3C2F7, size: 0x8, addend: 0x0, symName: __ZNSt3__122__make_exception_guardB8ue170006INS_29_AllocatorDestroyRangeReverseINS_9allocatorINS_3anyEEEPS3_EEEENS_28__exception_guard_exceptionsIT_EES8_, symObjAddr: 0x2BFD8, symBinAddr: 0x10002D9D4, symSize: 0x4C }
  - { offsetInCU: 0x3C32E, offset: 0x3C32E, size: 0x8, addend: 0x0, symName: __ZNSt3__119__allocator_destroyB8ue170006INS_9allocatorINS_3anyEEENS_16reverse_iteratorIPS2_EES6_EEvRT_T0_T1_, symObjAddr: 0x2C358, symBinAddr: 0x10002DD54, symSize: 0x70 }
  - { offsetInCU: 0x3C3E4, offset: 0x3C3E4, size: 0x8, addend: 0x0, symName: __ZNSt3__112__to_addressB8ue170006I24_ForecastResultsByModuleEEPT_S3_, symObjAddr: 0x2CDF8, symBinAddr: 0x10002E7F4, symSize: 0x14 }
  - { offsetInCU: 0x3C419, offset: 0x3C419, size: 0x8, addend: 0x0, symName: __ZNSt3__119__allocate_at_leastB8ue170006INS_9allocatorI24_ForecastResultsByModuleEEEENS_19__allocation_resultINS_16allocator_traitsIT_E7pointerEEERS6_m, symObjAddr: 0x2DD40, symBinAddr: 0x10002F73C, symSize: 0x40 }
  - { offsetInCU: 0x3C45C, offset: 0x3C45C, size: 0x8, addend: 0x0, symName: __ZNSt3__142__uninitialized_allocator_move_if_noexceptB8ue170006INS_9allocatorI24_ForecastResultsByModuleEENS_16reverse_iteratorIPS2_EES6_S6_EET2_RT_T0_T1_S7_, symObjAddr: 0x2DEF8, symBinAddr: 0x10002F8F4, symSize: 0x12C }
  - { offsetInCU: 0x3C4FC, offset: 0x3C4FC, size: 0x8, addend: 0x0, symName: __ZNSt3__14swapB8ue170006IP24_ForecastResultsByModuleEENS_9enable_ifIXaasr21is_move_constructibleIT_EE5valuesr18is_move_assignableIS4_EE5valueEvE4typeERS4_S7_, symObjAddr: 0x2E070, symBinAddr: 0x10002FA6C, symSize: 0x3C }
  - { offsetInCU: 0x3C54D, offset: 0x3C54D, size: 0x8, addend: 0x0, symName: __ZNSt3__122__make_exception_guardB8ue170006INS_29_AllocatorDestroyRangeReverseINS_9allocatorI24_ForecastResultsByModuleEENS_16reverse_iteratorIPS3_EEEEEENS_28__exception_guard_exceptionsIT_EESA_, symObjAddr: 0x2E174, symBinAddr: 0x10002FB70, symSize: 0x4C }
  - { offsetInCU: 0x3C583, offset: 0x3C583, size: 0x8, addend: 0x0, symName: __ZNSt3__1neB8ue170006IP24_ForecastResultsByModuleS2_EEbRKNS_16reverse_iteratorIT_EERKNS3_IT0_EE, symObjAddr: 0x2E204, symBinAddr: 0x10002FC00, symSize: 0x48 }
  - { offsetInCU: 0x3C5CF, offset: 0x3C5CF, size: 0x8, addend: 0x0, symName: __ZNSt3__112__to_addressB8ue170006INS_16reverse_iteratorIP24_ForecastResultsByModuleEEvEEu7__decayIDTclsr19__to_address_helperIT_EE6__callclsr3stdE7declvalIRKS5_EEEEES7_, symObjAddr: 0x2E280, symBinAddr: 0x10002FC7C, symSize: 0x24 }
  - { offsetInCU: 0x3C630, offset: 0x3C630, size: 0x8, addend: 0x0, symName: __ZNSt3__119__allocator_destroyB8ue170006INS_9allocatorI24_ForecastResultsByModuleEENS_16reverse_iteratorINS4_IPS2_EEEES7_EEvRT_T0_T1_, symObjAddr: 0x2E654, symBinAddr: 0x100030050, symSize: 0x70 }
  - { offsetInCU: 0x3C695, offset: 0x3C695, size: 0x8, addend: 0x0, symName: __ZNSt3__1neB8ue170006INS_16reverse_iteratorIP24_ForecastResultsByModuleEES4_EEbRKNS1_IT_EERKNS1_IT0_EE, symObjAddr: 0x2E700, symBinAddr: 0x1000300FC, symSize: 0x60 }
  - { offsetInCU: 0x3C6E1, offset: 0x3C6E1, size: 0x8, addend: 0x0, symName: __ZNSt3__112__to_addressB8ue170006INS_16reverse_iteratorINS1_IP24_ForecastResultsByModuleEEEEvEEu7__decayIDTclsr19__to_address_helperIT_EE6__callclsr3stdE7declvalIRKS6_EEEEES8_, symObjAddr: 0x2E760, symBinAddr: 0x10003015C, symSize: 0x24 }
  - { offsetInCU: 0x3CCD1, offset: 0x3CCD1, size: 0x8, addend: 0x0, symName: __ZNSt3__119__allocate_at_leastB8ue170006INS_9allocatorIcEEEENS_19__allocation_resultINS_16allocator_traitsIT_E7pointerEEERS5_m, symObjAddr: 0x32720, symBinAddr: 0x10003411C, symSize: 0x40 }
  - { offsetInCU: 0x3CD14, offset: 0x3CD14, size: 0x8, addend: 0x0, symName: __ZNSt3__142__uninitialized_allocator_move_if_noexceptB8ue170006INS_9allocatorIcEENS_16reverse_iteratorIPcEES5_cvEET1_RT_T0_S9_S6_, symObjAddr: 0x32934, symBinAddr: 0x100034330, symSize: 0x78 }
  - { offsetInCU: 0x3CD92, offset: 0x3CD92, size: 0x8, addend: 0x0, symName: __ZNSt3__14swapB8ue170006IPcEENS_9enable_ifIXaasr21is_move_constructibleIT_EE5valuesr18is_move_assignableIS3_EE5valueEvE4typeERS3_S6_, symObjAddr: 0x329F8, symBinAddr: 0x1000343F4, symSize: 0x3C }
  - { offsetInCU: 0x3CDE3, offset: 0x3CDE3, size: 0x8, addend: 0x0, symName: __ZNSt3__14moveB8ue170006INS_16reverse_iteratorIPcEES3_EET0_T_S5_S4_, symObjAddr: 0x32B28, symBinAddr: 0x100034524, symSize: 0x78 }
  - { offsetInCU: 0x3CE3D, offset: 0x3CE3D, size: 0x8, addend: 0x0, symName: __ZNSt3__16__moveB8ue170006INS_17_ClassicAlgPolicyENS_16reverse_iteratorIPcEES4_S4_EENS_4pairIT0_T2_EES6_T1_S7_, symObjAddr: 0x32BA0, symBinAddr: 0x10003459C, symSize: 0x64 }
  - { offsetInCU: 0x3CEA9, offset: 0x3CEA9, size: 0x8, addend: 0x0, symName: __ZNSt3__123__dispatch_copy_or_moveB8ue170006INS_17_ClassicAlgPolicyENS_11__move_loopIS1_EENS_14__move_trivialENS_16reverse_iteratorIPcEES7_S7_EENS_4pairIT2_T4_EES9_T3_SA_, symObjAddr: 0x32C04, symBinAddr: 0x100034600, symSize: 0x64 }
  - { offsetInCU: 0x3CF27, offset: 0x3CF27, size: 0x8, addend: 0x0, symName: __ZNSt3__121__unwrap_and_dispatchB8ue170006INS_10__overloadINS_11__move_loopINS_17_ClassicAlgPolicyEEENS_14__move_trivialEEENS_16reverse_iteratorIPcEES9_S9_Li0EEENS_4pairIT0_T2_EESB_T1_SC_, symObjAddr: 0x32C68, symBinAddr: 0x100034664, symSize: 0x12C }
  - { offsetInCU: 0x3CFB7, offset: 0x3CFB7, size: 0x8, addend: 0x0, symName: __ZNSt3__114__unwrap_rangeB8ue170006INS_16reverse_iteratorIPcEES3_EENS_4pairIT0_S5_EET_S7_, symObjAddr: 0x32D94, symBinAddr: 0x100034790, symSize: 0x84 }
  - { offsetInCU: 0x3D0D7, offset: 0x3D0D7, size: 0x8, addend: 0x0, symName: __ZNSt3__113__unwrap_iterB8ue170006INS_16reverse_iteratorIPcEENS_18__unwrap_iter_implIS3_Lb0EEELi0EEEDTclsrT0_8__unwrapclsr3stdE7declvalIT_EEEES7_, symObjAddr: 0x32EB8, symBinAddr: 0x1000348B4, symSize: 0x44 }
  - { offsetInCU: 0x3D11B, offset: 0x3D11B, size: 0x8, addend: 0x0, symName: __ZNSt3__19make_pairB8ue170006INS_16reverse_iteratorIPcEES3_EENS_4pairINS_18__unwrap_ref_decayIT_E4typeENS5_IT0_E4typeEEEOS6_OS9_, symObjAddr: 0x32EFC, symBinAddr: 0x1000348F8, symSize: 0x38 }
  - { offsetInCU: 0x3D16A, offset: 0x3D16A, size: 0x8, addend: 0x0, symName: __ZNSt3__114__rewrap_rangeB8ue170006INS_16reverse_iteratorIPcEES3_EET_S4_T0_, symObjAddr: 0x32F34, symBinAddr: 0x100034930, symSize: 0x5C }
  - { offsetInCU: 0x3D1B6, offset: 0x3D1B6, size: 0x8, addend: 0x0, symName: __ZNSt3__113__rewrap_iterB8ue170006INS_16reverse_iteratorIPcEES3_NS_18__unwrap_iter_implIS3_Lb0EEEEET_S6_T0_, symObjAddr: 0x32F90, symBinAddr: 0x10003498C, symSize: 0x74 }
  - { offsetInCU: 0x3D20B, offset: 0x3D20B, size: 0x8, addend: 0x0, symName: __ZNSt3__1neB8ue170006IPcS1_EEbRKNS_16reverse_iteratorIT_EERKNS2_IT0_EE, symObjAddr: 0x33004, symBinAddr: 0x100034A00, symSize: 0x48 }
  - { offsetInCU: 0x3D2C3, offset: 0x3D2C3, size: 0x8, addend: 0x0, symName: __ZNSt3__119__allocate_at_leastB8ue170006INS_9allocatorImEEEENS_19__allocation_resultINS_16allocator_traitsIT_E7pointerEEERS5_m, symObjAddr: 0x385D8, symBinAddr: 0x100039FD4, symSize: 0x40 }
  - { offsetInCU: 0x3D306, offset: 0x3D306, size: 0x8, addend: 0x0, symName: __ZNSt3__16__copyB8ue170006INS_17_ClassicAlgPolicyENS_14__bit_iteratorINS_6vectorIbNS_9allocatorIbEEEELb0ELm0EEES7_S7_EENS_4pairIT0_T2_EES9_T1_SA_, symObjAddr: 0x38740, symBinAddr: 0x10003A13C, symSize: 0x88 }
  - { offsetInCU: 0x3D375, offset: 0x3D375, size: 0x8, addend: 0x0, symName: __ZNSt3__123__dispatch_copy_or_moveB8ue170006INS_17_ClassicAlgPolicyENS_11__copy_loopIS1_EENS_14__copy_trivialENS_14__bit_iteratorINS_6vectorIbNS_9allocatorIbEEEELb0ELm0EEESA_SA_EENS_4pairIT2_T4_EESC_T3_SD_, symObjAddr: 0x38860, symBinAddr: 0x10003A25C, symSize: 0x88 }
  - { offsetInCU: 0x3D3F6, offset: 0x3D3F6, size: 0x8, addend: 0x0, symName: __ZNSt3__121__unwrap_and_dispatchB8ue170006INS_10__overloadINS_11__copy_loopINS_17_ClassicAlgPolicyEEENS_14__copy_trivialEEENS_14__bit_iteratorINS_6vectorIbNS_9allocatorIbEEEELb0ELm0EEESC_SC_Li0EEENS_4pairIT0_T2_EESE_T1_SF_, symObjAddr: 0x388E8, symBinAddr: 0x10003A2E4, symSize: 0x15C }
  - { offsetInCU: 0x3D489, offset: 0x3D489, size: 0x8, addend: 0x0, symName: __ZNSt3__114__unwrap_rangeB8ue170006INS_14__bit_iteratorINS_6vectorIbNS_9allocatorIbEEEELb0ELm0EEES6_EENS_4pairIT0_S8_EET_SA_, symObjAddr: 0x38A44, symBinAddr: 0x10003A440, symSize: 0x8C }
  - { offsetInCU: 0x3D5FD, offset: 0x3D5FD, size: 0x8, addend: 0x0, symName: __ZNSt3__113__unwrap_iterB8ue170006INS_14__bit_iteratorINS_6vectorIbNS_9allocatorIbEEEELb0ELm0EEENS_18__unwrap_iter_implIS6_Lb0EEELi0EEEDTclsrT0_8__unwrapclsr3stdE7declvalIT_EEEESA_, symObjAddr: 0x38B88, symBinAddr: 0x10003A584, symSize: 0x44 }
  - { offsetInCU: 0x3D642, offset: 0x3D642, size: 0x8, addend: 0x0, symName: __ZNSt3__19make_pairB8ue170006INS_14__bit_iteratorINS_6vectorIbNS_9allocatorIbEEEELb0ELm0EEES6_EENS_4pairINS_18__unwrap_ref_decayIT_E4typeENS8_IT0_E4typeEEEOS9_OSC_, symObjAddr: 0x38BCC, symBinAddr: 0x10003A5C8, symSize: 0x40 }
  - { offsetInCU: 0x3D691, offset: 0x3D691, size: 0x8, addend: 0x0, symName: __ZNSt3__114__rewrap_rangeB8ue170006INS_14__bit_iteratorINS_6vectorIbNS_9allocatorIbEEEELb0ELm0EEES6_EET_S7_T0_, symObjAddr: 0x38C0C, symBinAddr: 0x10003A608, symSize: 0x6C }
  - { offsetInCU: 0x3D6DF, offset: 0x3D6DF, size: 0x8, addend: 0x0, symName: __ZNSt3__113__rewrap_iterB8ue170006INS_14__bit_iteratorINS_6vectorIbNS_9allocatorIbEEEELb0ELm0EEES6_NS_18__unwrap_iter_implIS6_Lb0EEEEET_S9_T0_, symObjAddr: 0x38C78, symBinAddr: 0x10003A674, symSize: 0x74 }
  - { offsetInCU: 0x3D736, offset: 0x3D736, size: 0x8, addend: 0x0, symName: __ZNSt3__1neB8ue170006ERKNS_14__bit_iteratorINS_6vectorIbNS_9allocatorIbEEEELb0ELm0EEES7_, symObjAddr: 0x38CEC, symBinAddr: 0x10003A6E8, symSize: 0x34 }
  - { offsetInCU: 0x3D774, offset: 0x3D774, size: 0x8, addend: 0x0, symName: __ZNSt3__1eqB8ue170006ERKNS_14__bit_iteratorINS_6vectorIbNS_9allocatorIbEEEELb0ELm0EEES7_, symObjAddr: 0x38E00, symBinAddr: 0x10003A7FC, symSize: 0x64 }
  - { offsetInCU: 0x3D7F9, offset: 0x3D7F9, size: 0x8, addend: 0x0, symName: __ZNSt3__14swapB8ue170006IPmEENS_9enable_ifIXaasr21is_move_constructibleIT_EE5valuesr18is_move_assignableIS3_EE5valueEvE4typeERS3_S6_, symObjAddr: 0x39088, symBinAddr: 0x10003AA84, symSize: 0x3C }
  - { offsetInCU: 0x3D84A, offset: 0x3D84A, size: 0x8, addend: 0x0, symName: __ZNSt3__14swapB8ue170006ImEENS_9enable_ifIXaasr21is_move_constructibleIT_EE5valuesr18is_move_assignableIS2_EE5valueEvE4typeERS2_S5_, symObjAddr: 0x390C4, symBinAddr: 0x10003AAC0, symSize: 0x3C }
  - { offsetInCU: 0x3D89C, offset: 0x3D89C, size: 0x8, addend: 0x0, symName: __ZNSt3__116__swap_allocatorB8ue170006INS_9allocatorImEEEEvRT_S4_NS_17integral_constantIbLb0EEE, symObjAddr: 0x39100, symBinAddr: 0x10003AAFC, symSize: 0x14 }
  - { offsetInCU: 0x3D8E0, offset: 0x3D8E0, size: 0x8, addend: 0x0, symName: __ZNSt3__112__to_addressB8ue170006IPN8nlohmann16json_abi_v3_11_310basic_jsonINS_3mapENS_6vectorENS_12basic_stringIcNS_11char_traitsIcEENS_9allocatorIcEEEEbxydS9_NS2_14adl_serializerENS5_IhNS9_IhEEEEvEEEEPT_SI_, symObjAddr: 0x39674, symBinAddr: 0x10003B070, symSize: 0x14 }
  - { offsetInCU: 0x3DA48, offset: 0x3DA48, size: 0x8, addend: 0x0, symName: __ZNSt3__125__throw_bad_function_callB8ue170006Ev, symObjAddr: 0x3B07C, symBinAddr: 0x10003CA78, symSize: 0x38 }
  - { offsetInCU: 0x3DA99, offset: 0x3DA99, size: 0x8, addend: 0x0, symName: __ZNSt3__119__allocate_at_leastB8ue170006INS_9allocatorIPN8nlohmann16json_abi_v3_11_310basic_jsonINS_3mapENS_6vectorENS_12basic_stringIcNS_11char_traitsIcEENS1_IcEEEEbxydS1_NS3_14adl_serializerENS6_IhNS1_IhEEEEvEEEEEENS_19__allocation_resultINS_16allocator_traitsIT_E7pointerEEERSK_m, symObjAddr: 0x3BBBC, symBinAddr: 0x10003D5B8, symSize: 0x40 }
  - { offsetInCU: 0x3DADC, offset: 0x3DADC, size: 0x8, addend: 0x0, symName: __ZNSt3__142__uninitialized_allocator_move_if_noexceptB8ue170006INS_9allocatorIPN8nlohmann16json_abi_v3_11_310basic_jsonINS_3mapENS_6vectorENS_12basic_stringIcNS_11char_traitsIcEENS1_IcEEEEbxydS1_NS3_14adl_serializerENS6_IhNS1_IhEEEEvEEEENS_16reverse_iteratorIPSG_EESK_SG_vEET1_RT_T0_SO_SL_, symObjAddr: 0x3BD70, symBinAddr: 0x10003D76C, symSize: 0x78 }
  - { offsetInCU: 0x3DB5A, offset: 0x3DB5A, size: 0x8, addend: 0x0, symName: __ZNSt3__14swapB8ue170006IPPN8nlohmann16json_abi_v3_11_310basic_jsonINS_3mapENS_6vectorENS_12basic_stringIcNS_11char_traitsIcEENS_9allocatorIcEEEEbxydS9_NS2_14adl_serializerENS5_IhNS9_IhEEEEvEEEENS_9enable_ifIXaasr21is_move_constructibleIT_EE5valuesr18is_move_assignableISJ_EE5valueEvE4typeERSJ_SM_, symObjAddr: 0x3BE34, symBinAddr: 0x10003D830, symSize: 0x3C }
  - { offsetInCU: 0x3DBAB, offset: 0x3DBAB, size: 0x8, addend: 0x0, symName: __ZNSt3__14moveB8ue170006INS_16reverse_iteratorIPPN8nlohmann16json_abi_v3_11_310basic_jsonINS_3mapENS_6vectorENS_12basic_stringIcNS_11char_traitsIcEENS_9allocatorIcEEEEbxydSA_NS3_14adl_serializerENS6_IhNSA_IhEEEEvEEEESJ_EET0_T_SL_SK_, symObjAddr: 0x3BF1C, symBinAddr: 0x10003D918, symSize: 0x78 }
  - { offsetInCU: 0x3DC05, offset: 0x3DC05, size: 0x8, addend: 0x0, symName: __ZNSt3__16__moveB8ue170006INS_17_ClassicAlgPolicyENS_16reverse_iteratorIPPN8nlohmann16json_abi_v3_11_310basic_jsonINS_3mapENS_6vectorENS_12basic_stringIcNS_11char_traitsIcEENS_9allocatorIcEEEEbxydSB_NS4_14adl_serializerENS7_IhNSB_IhEEEEvEEEESK_SK_EENS_4pairIT0_T2_EESM_T1_SN_, symObjAddr: 0x3BF94, symBinAddr: 0x10003D990, symSize: 0x64 }
  - { offsetInCU: 0x3DC71, offset: 0x3DC71, size: 0x8, addend: 0x0, symName: __ZNSt3__123__dispatch_copy_or_moveB8ue170006INS_17_ClassicAlgPolicyENS_11__move_loopIS1_EENS_14__move_trivialENS_16reverse_iteratorIPPN8nlohmann16json_abi_v3_11_310basic_jsonINS_3mapENS_6vectorENS_12basic_stringIcNS_11char_traitsIcEENS_9allocatorIcEEEEbxydSE_NS7_14adl_serializerENSA_IhNSE_IhEEEEvEEEESN_SN_EENS_4pairIT2_T4_EESP_T3_SQ_, symObjAddr: 0x3BFF8, symBinAddr: 0x10003D9F4, symSize: 0x64 }
  - { offsetInCU: 0x3DCEF, offset: 0x3DCEF, size: 0x8, addend: 0x0, symName: __ZNSt3__121__unwrap_and_dispatchB8ue170006INS_10__overloadINS_11__move_loopINS_17_ClassicAlgPolicyEEENS_14__move_trivialEEENS_16reverse_iteratorIPPN8nlohmann16json_abi_v3_11_310basic_jsonINS_3mapENS_6vectorENS_12basic_stringIcNS_11char_traitsIcEENS_9allocatorIcEEEEbxydSG_NS9_14adl_serializerENSC_IhNSG_IhEEEEvEEEESP_SP_Li0EEENS_4pairIT0_T2_EESR_T1_SS_, symObjAddr: 0x3C05C, symBinAddr: 0x10003DA58, symSize: 0x12C }
  - { offsetInCU: 0x3DD7F, offset: 0x3DD7F, size: 0x8, addend: 0x0, symName: __ZNSt3__114__unwrap_rangeB8ue170006INS_16reverse_iteratorIPPN8nlohmann16json_abi_v3_11_310basic_jsonINS_3mapENS_6vectorENS_12basic_stringIcNS_11char_traitsIcEENS_9allocatorIcEEEEbxydSA_NS3_14adl_serializerENS6_IhNSA_IhEEEEvEEEESJ_EENS_4pairIT0_SL_EET_SN_, symObjAddr: 0x3C188, symBinAddr: 0x10003DB84, symSize: 0x84 }
  - { offsetInCU: 0x3DE9F, offset: 0x3DE9F, size: 0x8, addend: 0x0, symName: __ZNSt3__113__unwrap_iterB8ue170006INS_16reverse_iteratorIPPN8nlohmann16json_abi_v3_11_310basic_jsonINS_3mapENS_6vectorENS_12basic_stringIcNS_11char_traitsIcEENS_9allocatorIcEEEEbxydSA_NS3_14adl_serializerENS6_IhNSA_IhEEEEvEEEENS_18__unwrap_iter_implISJ_Lb0EEELi0EEEDTclsrT0_8__unwrapclsr3stdE7declvalIT_EEEESN_, symObjAddr: 0x3C2AC, symBinAddr: 0x10003DCA8, symSize: 0x44 }
  - { offsetInCU: 0x3DEE3, offset: 0x3DEE3, size: 0x8, addend: 0x0, symName: __ZNSt3__19make_pairB8ue170006INS_16reverse_iteratorIPPN8nlohmann16json_abi_v3_11_310basic_jsonINS_3mapENS_6vectorENS_12basic_stringIcNS_11char_traitsIcEENS_9allocatorIcEEEEbxydSA_NS3_14adl_serializerENS6_IhNSA_IhEEEEvEEEESJ_EENS_4pairINS_18__unwrap_ref_decayIT_E4typeENSL_IT0_E4typeEEEOSM_OSP_, symObjAddr: 0x3C2F0, symBinAddr: 0x10003DCEC, symSize: 0x38 }
  - { offsetInCU: 0x3DF32, offset: 0x3DF32, size: 0x8, addend: 0x0, symName: __ZNSt3__114__rewrap_rangeB8ue170006INS_16reverse_iteratorIPPN8nlohmann16json_abi_v3_11_310basic_jsonINS_3mapENS_6vectorENS_12basic_stringIcNS_11char_traitsIcEENS_9allocatorIcEEEEbxydSA_NS3_14adl_serializerENS6_IhNSA_IhEEEEvEEEESJ_EET_SK_T0_, symObjAddr: 0x3C328, symBinAddr: 0x10003DD24, symSize: 0x5C }
  - { offsetInCU: 0x3DF7E, offset: 0x3DF7E, size: 0x8, addend: 0x0, symName: __ZNSt3__113__rewrap_iterB8ue170006INS_16reverse_iteratorIPPN8nlohmann16json_abi_v3_11_310basic_jsonINS_3mapENS_6vectorENS_12basic_stringIcNS_11char_traitsIcEENS_9allocatorIcEEEEbxydSA_NS3_14adl_serializerENS6_IhNSA_IhEEEEvEEEESJ_NS_18__unwrap_iter_implISJ_Lb0EEEEET_SM_T0_, symObjAddr: 0x3C384, symBinAddr: 0x10003DD80, symSize: 0x74 }
  - { offsetInCU: 0x3DFD3, offset: 0x3DFD3, size: 0x8, addend: 0x0, symName: __ZNSt3__1neB8ue170006IPPN8nlohmann16json_abi_v3_11_310basic_jsonINS_3mapENS_6vectorENS_12basic_stringIcNS_11char_traitsIcEENS_9allocatorIcEEEEbxydS9_NS2_14adl_serializerENS5_IhNS9_IhEEEEvEESH_EEbRKNS_16reverse_iteratorIT_EERKNSI_IT0_EE, symObjAddr: 0x3C3F8, symBinAddr: 0x10003DDF4, symSize: 0x48 }
  - { offsetInCU: 0x3E0A9, offset: 0x3E0A9, size: 0x8, addend: 0x0, symName: __ZNSt3__113__tree_removeB8ue170006IPNS_16__tree_node_baseIPvEEEEvT_S5_, symObjAddr: 0x3DF10, symBinAddr: 0x10003F90C, symSize: 0x6E0 }
  - { offsetInCU: 0x3E127, offset: 0x3E127, size: 0x8, addend: 0x0, symName: __ZNSt3__111__tree_nextB8ue170006IPNS_16__tree_node_baseIPvEEEET_S5_, symObjAddr: 0x3E5F0, symBinAddr: 0x10003FFEC, symSize: 0x80 }
  - { offsetInCU: 0x3E15C, offset: 0x3E15C, size: 0x8, addend: 0x0, symName: __ZNSt3__1miB8ue170006IPKN8nlohmann16json_abi_v3_11_310basic_jsonINS_3mapENS_6vectorENS_12basic_stringIcNS_11char_traitsIcEENS_9allocatorIcEEEEbxydS9_NS2_14adl_serializerENS5_IhNS9_IhEEEEvEESH_EEDTmicldtfp_4baseEcldtfp0_4baseEERKNS_11__wrap_iterIT_EERKNSJ_IT0_EE, symObjAddr: 0x3E670, symBinAddr: 0x10004006C, symSize: 0x48 }
  - { offsetInCU: 0x3E1A8, offset: 0x3E1A8, size: 0x8, addend: 0x0, symName: __ZNSt3__14moveB8ue170006IPN8nlohmann16json_abi_v3_11_310basic_jsonINS_3mapENS_6vectorENS_12basic_stringIcNS_11char_traitsIcEENS_9allocatorIcEEEEbxydS9_NS2_14adl_serializerENS5_IhNS9_IhEEEEvEESG_EET0_T_SI_SH_, symObjAddr: 0x3E6E4, symBinAddr: 0x1000400E0, symSize: 0x40 }
  - { offsetInCU: 0x3E202, offset: 0x3E202, size: 0x8, addend: 0x0, symName: __ZNSt3__16__moveB8ue170006INS_17_ClassicAlgPolicyEPN8nlohmann16json_abi_v3_11_310basic_jsonINS_3mapENS_6vectorENS_12basic_stringIcNS_11char_traitsIcEENS_9allocatorIcEEEEbxydSA_NS3_14adl_serializerENS6_IhNSA_IhEEEEvEESH_SH_EENS_4pairIT0_T2_EESJ_T1_SK_, symObjAddr: 0x3E7F0, symBinAddr: 0x1000401EC, symSize: 0x44 }
  - { offsetInCU: 0x3E26E, offset: 0x3E26E, size: 0x8, addend: 0x0, symName: __ZNSt3__123__dispatch_copy_or_moveB8ue170006INS_17_ClassicAlgPolicyENS_11__move_loopIS1_EENS_14__move_trivialEPN8nlohmann16json_abi_v3_11_310basic_jsonINS_3mapENS_6vectorENS_12basic_stringIcNS_11char_traitsIcEENS_9allocatorIcEEEEbxydSD_NS6_14adl_serializerENS9_IhNSD_IhEEEEvEESK_SK_EENS_4pairIT2_T4_EESM_T3_SN_, symObjAddr: 0x3E834, symBinAddr: 0x100040230, symSize: 0x44 }
  - { offsetInCU: 0x3E2EC, offset: 0x3E2EC, size: 0x8, addend: 0x0, symName: __ZNSt3__121__unwrap_and_dispatchB8ue170006INS_10__overloadINS_11__move_loopINS_17_ClassicAlgPolicyEEENS_14__move_trivialEEEPN8nlohmann16json_abi_v3_11_310basic_jsonINS_3mapENS_6vectorENS_12basic_stringIcNS_11char_traitsIcEENS_9allocatorIcEEEEbxydSF_NS8_14adl_serializerENSB_IhNSF_IhEEEEvEESM_SM_Li0EEENS_4pairIT0_T2_EESO_T1_SP_, symObjAddr: 0x3E878, symBinAddr: 0x100040274, symSize: 0xB4 }
  - { offsetInCU: 0x3E37A, offset: 0x3E37A, size: 0x8, addend: 0x0, symName: __ZNSt3__114__rewrap_rangeB8ue170006IPN8nlohmann16json_abi_v3_11_310basic_jsonINS_3mapENS_6vectorENS_12basic_stringIcNS_11char_traitsIcEENS_9allocatorIcEEEEbxydS9_NS2_14adl_serializerENS5_IhNS9_IhEEEEvEESG_EET_SH_T0_, symObjAddr: 0x3E9D4, symBinAddr: 0x1000403D0, symSize: 0x2C }
  - { offsetInCU: 0x3E3C6, offset: 0x3E3C6, size: 0x8, addend: 0x0, symName: __ZNSt3__1neB8ue170006IPKcEEbRKNS_11__wrap_iterIT_EES7_, symObjAddr: 0x41784, symBinAddr: 0x100043180, symSize: 0x34 }
  - { offsetInCU: 0x3E6D1, offset: 0x3E6D1, size: 0x8, addend: 0x0, symName: __ZNSt3__1eqB8ue170006IPKcEEbRKNS_11__wrap_iterIT_EES7_, symObjAddr: 0x418C8, symBinAddr: 0x1000432C4, symSize: 0x48 }
  - { offsetInCU: 0x3E714, offset: 0x3E714, size: 0x8, addend: 0x0, symName: __ZNSt3__14swapB8ue170006IN8nlohmann16json_abi_v3_11_36detail7value_tEEENS_9enable_ifIXaasr21is_move_constructibleIT_EE5valuesr18is_move_assignableIS6_EE5valueEvE4typeERS6_S9_, symObjAddr: 0x426B4, symBinAddr: 0x1000440B0, symSize: 0x3C }
  - { offsetInCU: 0x3E765, offset: 0x3E765, size: 0x8, addend: 0x0, symName: __ZNSt3__14swapB8ue170006IN8nlohmann16json_abi_v3_11_310basic_jsonINS_3mapENS_6vectorENS_12basic_stringIcNS_11char_traitsIcEENS_9allocatorIcEEEEbxydS9_NS2_14adl_serializerENS5_IhNS9_IhEEEEvE10json_valueEEENS_9enable_ifIXaasr21is_move_constructibleIT_EE5valuesr18is_move_assignableISI_EE5valueEvE4typeERSI_SL_, symObjAddr: 0x426F0, symBinAddr: 0x1000440EC, symSize: 0x3C }
  - { offsetInCU: 0x3E7B6, offset: 0x3E7B6, size: 0x8, addend: 0x0, symName: __ZNSt3__111make_sharedB8ue170006IN8nlohmann16json_abi_v3_11_36detail21output_string_adapterIcNS_12basic_stringIcNS_11char_traitsIcEENS_9allocatorIcEEEEEEJRSA_EvEENS_10shared_ptrIT_EEDpOT0_, symObjAddr: 0x46358, symBinAddr: 0x100047D54, symSize: 0x40 }
  - { offsetInCU: 0x3EA15, offset: 0x3EA15, size: 0x8, addend: 0x0, symName: __ZNSt3__115allocate_sharedB8ue170006IN8nlohmann16json_abi_v3_11_36detail21output_string_adapterIcNS_12basic_stringIcNS_11char_traitsIcEENS_9allocatorIcEEEEEENS8_ISB_EEJRSA_EvEENS_10shared_ptrIT_EERKT0_DpOT1_, symObjAddr: 0x463F8, symBinAddr: 0x100047DF4, symSize: 0x98 }
  - { offsetInCU: 0x3EDC0, offset: 0x3EDC0, size: 0x8, addend: 0x0, symName: __ZNSt3__134__libcpp_atomic_refcount_decrementB8ue170006IlEET_RS1_, symObjAddr: 0x47064, symBinAddr: 0x100048A60, symSize: 0x30 }
  - { offsetInCU: 0x3EDF5, offset: 0x3EDF5, size: 0x8, addend: 0x0, symName: __ZNSt3__134__libcpp_atomic_refcount_incrementB8ue170006IlEET_RS1_, symObjAddr: 0x47184, symBinAddr: 0x100048B80, symSize: 0x30 }
  - { offsetInCU: 0x3EE2A, offset: 0x3EE2A, size: 0x8, addend: 0x0, symName: __ZNSt3__1eqB8ue170006ERKNS_20__map_const_iteratorINS_21__tree_const_iteratorINS_12__value_typeINS_12basic_stringIcNS_11char_traitsIcEENS_9allocatorIcEEEEN8nlohmann16json_abi_v3_11_310basic_jsonINS_3mapENS_6vectorES8_bxydS6_NSA_14adl_serializerENSD_IhNS6_IhEEEEvEEEEPNS_11__tree_nodeISI_PvEElEEEESQ_, symObjAddr: 0x4811C, symBinAddr: 0x100049B18, symSize: 0x30 }
  - { offsetInCU: 0x3EE67, offset: 0x3EE67, size: 0x8, addend: 0x0, symName: __ZNSt3__14nextB8ue170006INS_20__map_const_iteratorINS_21__tree_const_iteratorINS_12__value_typeINS_12basic_stringIcNS_11char_traitsIcEENS_9allocatorIcEEEEN8nlohmann16json_abi_v3_11_310basic_jsonINS_3mapENS_6vectorES9_bxydS7_NSB_14adl_serializerENSE_IhNS7_IhEEEEvEEEEPNS_11__tree_nodeISJ_PvEElEEEEEENS_9enable_ifIXsr29__has_input_iterator_categoryIT_EE5valueESR_E4typeESR_NS_15iterator_traitsISR_E15difference_typeE, symObjAddr: 0x4814C, symBinAddr: 0x100049B48, symSize: 0x3C }
  - { offsetInCU: 0x3EEAA, offset: 0x3EEAA, size: 0x8, addend: 0x0, symName: __ZNSt3__1neB8ue170006IPKN8nlohmann16json_abi_v3_11_310basic_jsonINS_3mapENS_6vectorENS_12basic_stringIcNS_11char_traitsIcEENS_9allocatorIcEEEEbxydS9_NS2_14adl_serializerENS5_IhNS9_IhEEEEvEEEEbRKNS_11__wrap_iterIT_EESM_, symObjAddr: 0x48188, symBinAddr: 0x100049B84, symSize: 0x34 }
  - { offsetInCU: 0x3EEED, offset: 0x3EEED, size: 0x8, addend: 0x0, symName: __ZNSt3__1neB8ue170006IPKhEEbRKNS_11__wrap_iterIT_EES7_, symObjAddr: 0x482B0, symBinAddr: 0x100049CAC, symSize: 0x34 }
  - { offsetInCU: 0x3EF63, offset: 0x3EF63, size: 0x8, addend: 0x0, symName: __ZNSt3__19__advanceB8ue170006INS_20__map_const_iteratorINS_21__tree_const_iteratorINS_12__value_typeINS_12basic_stringIcNS_11char_traitsIcEENS_9allocatorIcEEEEN8nlohmann16json_abi_v3_11_310basic_jsonINS_3mapENS_6vectorES9_bxydS7_NSB_14adl_serializerENSE_IhNS7_IhEEEEvEEEEPNS_11__tree_nodeISJ_PvEElEEEEEEvRT_NS_15iterator_traitsISQ_E15difference_typeENS_26bidirectional_iterator_tagE, symObjAddr: 0x493DC, symBinAddr: 0x10004ADD8, symSize: 0xA4 }
  - { offsetInCU: 0x3EFAD, offset: 0x3EFAD, size: 0x8, addend: 0x0, symName: __ZNSt3__1eqB8ue170006IPKN8nlohmann16json_abi_v3_11_310basic_jsonINS_3mapENS_6vectorENS_12basic_stringIcNS_11char_traitsIcEENS_9allocatorIcEEEEbxydS9_NS2_14adl_serializerENS5_IhNS9_IhEEEEvEEEEbRKNS_11__wrap_iterIT_EESM_, symObjAddr: 0x494AC, symBinAddr: 0x10004AEA8, symSize: 0x48 }
  - { offsetInCU: 0x3EFF0, offset: 0x3EFF0, size: 0x8, addend: 0x0, symName: __ZNSt3__1eqB8ue170006IPKhEEbRKNS_11__wrap_iterIT_EES7_, symObjAddr: 0x4963C, symBinAddr: 0x10004B038, symSize: 0x48 }
  - { offsetInCU: 0x3F40E, offset: 0x3F40E, size: 0x8, addend: 0x0, symName: __ZNSt3__122__make_exception_guardB8ue170006INS_6vectorINS_12basic_stringIcNS_11char_traitsIcEENS_9allocatorIcEEEENS5_IS7_EEE16__destroy_vectorEEENS_28__exception_guard_exceptionsIT_EESC_, symObjAddr: 0x4B8A4, symBinAddr: 0x10004D2A0, symSize: 0x40 }
  - { offsetInCU: 0x3F443, offset: 0x3F443, size: 0x8, addend: 0x0, symName: __ZNSt3__130__uninitialized_allocator_copyB8ue170006INS_9allocatorINS_12basic_stringIcNS_11char_traitsIcEENS1_IcEEEEEEPS6_S8_S8_EET2_RT_T0_T1_S9_, symObjAddr: 0x4BAC4, symBinAddr: 0x10004D4C0, symSize: 0x80 }
  - { offsetInCU: 0x3F4E0, offset: 0x3F4E0, size: 0x8, addend: 0x0, symName: __ZNSt3__114__unwrap_rangeB8ue170006IPNS_12basic_stringIcNS_11char_traitsIcEENS_9allocatorIcEEEES7_EENS_4pairIT0_S9_EET_SB_, symObjAddr: 0x4BB44, symBinAddr: 0x10004D540, symSize: 0x60 }
  - { offsetInCU: 0x3F52C, offset: 0x3F52C, size: 0x8, addend: 0x0, symName: __ZNSt3__135__uninitialized_allocator_copy_implB8ue170006INS_9allocatorINS_12basic_stringIcNS_11char_traitsIcEENS1_IcEEEEEEPS6_S8_S8_EET2_RT_T0_T1_S9_, symObjAddr: 0x4BBA4, symBinAddr: 0x10004D5A0, symSize: 0xF4 }
  - { offsetInCU: 0x3F5CA, offset: 0x3F5CA, size: 0x8, addend: 0x0, symName: __ZNSt3__113__unwrap_iterB8ue170006IPNS_12basic_stringIcNS_11char_traitsIcEENS_9allocatorIcEEEENS_18__unwrap_iter_implIS7_Lb1EEELi0EEEDTclsrT0_8__unwrapclsr3stdE7declvalIT_EEEESB_, symObjAddr: 0x4BC98, symBinAddr: 0x10004D694, symSize: 0x24 }
  - { offsetInCU: 0x3F60E, offset: 0x3F60E, size: 0x8, addend: 0x0, symName: __ZNSt3__113__rewrap_iterB8ue170006IPNS_12basic_stringIcNS_11char_traitsIcEENS_9allocatorIcEEEES7_NS_18__unwrap_iter_implIS7_Lb1EEEEET_SA_T0_, symObjAddr: 0x4BCBC, symBinAddr: 0x10004D6B8, symSize: 0x3C }
  - { offsetInCU: 0x3F663, offset: 0x3F663, size: 0x8, addend: 0x0, symName: __ZNSt3__19make_pairB8ue170006IPNS_12basic_stringIcNS_11char_traitsIcEENS_9allocatorIcEEEES7_EENS_4pairINS_18__unwrap_ref_decayIT_E4typeENS9_IT0_E4typeEEEOSA_OSD_, symObjAddr: 0x4BCF8, symBinAddr: 0x10004D6F4, symSize: 0x38 }
  - { offsetInCU: 0x3F786, offset: 0x3F786, size: 0x8, addend: 0x0, symName: __ZNSt3__122__make_exception_guardB8ue170006INS_29_AllocatorDestroyRangeReverseINS_9allocatorINS_12basic_stringIcNS_11char_traitsIcEENS2_IcEEEEEEPS7_EEEENS_28__exception_guard_exceptionsIT_EESC_, symObjAddr: 0x4BDA0, symBinAddr: 0x10004D79C, symSize: 0x4C }
  - { offsetInCU: 0x3F7BD, offset: 0x3F7BD, size: 0x8, addend: 0x0, symName: __ZNSt3__119__allocator_destroyB8ue170006INS_9allocatorINS_12basic_stringIcNS_11char_traitsIcEENS1_IcEEEEEENS_16reverse_iteratorIPS6_EESA_EEvRT_T0_T1_, symObjAddr: 0x4C030, symBinAddr: 0x10004DA2C, symSize: 0x70 }
  - { offsetInCU: 0x40ADE, offset: 0x40ADE, size: 0x8, addend: 0x0, symName: __ZSt28__throw_bad_array_new_lengthB8ue170006v, symObjAddr: 0xA2D8, symBinAddr: 0x10000BCD4, symSize: 0x34 }
  - { offsetInCU: 0x40DB2, offset: 0x40DB2, size: 0x8, addend: 0x0, symName: __ZL23existingStrategy_String, symObjAddr: 0x3D2730, symBinAddr: 0x10005C018, symSize: 0x0 }
  - { offsetInCU: 0x40DCC, offset: 0x40DCC, size: 0x8, addend: 0x0, symName: __ZL17WellShutIn_String, symObjAddr: 0x3D2748, symBinAddr: 0x10005C030, symSize: 0x0 }
  - { offsetInCU: 0x40DE6, offset: 0x40DE6, size: 0x8, addend: 0x0, symName: __ZL17WellOpenUp_String, symObjAddr: 0x3D2760, symBinAddr: 0x10005C048, symSize: 0x0 }
  - { offsetInCU: 0x40E00, offset: 0x40E00, size: 0x8, addend: 0x0, symName: __ZL17WellRampUp_String, symObjAddr: 0x3D2778, symBinAddr: 0x10005C060, symSize: 0x0 }
  - { offsetInCU: 0x40E1A, offset: 0x40E1A, size: 0x8, addend: 0x0, symName: __ZL18WellReroute_String, symObjAddr: 0x3D2790, symBinAddr: 0x10005C078, symSize: 0x0 }
  - { offsetInCU: 0x40E34, offset: 0x40E34, size: 0x8, addend: 0x0, symName: __ZL18wellPrioritization, symObjAddr: 0x3D27A8, symBinAddr: 0x10005C090, symSize: 0x0 }
  - { offsetInCU: 0x40E4E, offset: 0x40E4E, size: 0x8, addend: 0x0, symName: __ZL20noWellPrioritization, symObjAddr: 0x3D27C0, symBinAddr: 0x10005C0A8, symSize: 0x0 }
  - { offsetInCU: 0x40E68, offset: 0x40E68, size: 0x8, addend: 0x0, symName: __ZL8weighted, symObjAddr: 0x3D27D8, symBinAddr: 0x10005C0C0, symSize: 0x0 }
  - { offsetInCU: 0x40E82, offset: 0x40E82, size: 0x8, addend: 0x0, symName: __ZL10sequential, symObjAddr: 0x3D27F0, symBinAddr: 0x10005C0D8, symSize: 0x0 }
  - { offsetInCU: 0x40E9C, offset: 0x40E9C, size: 0x8, addend: 0x0, symName: __ZL10condensate, symObjAddr: 0x3D2808, symBinAddr: 0x10005C0F0, symSize: 0x0 }
  - { offsetInCU: 0x40EB6, offset: 0x40EB6, size: 0x8, addend: 0x0, symName: __ZL3oil, symObjAddr: 0x3D2820, symBinAddr: 0x10005C108, symSize: 0x0 }
  - { offsetInCU: 0x40ED0, offset: 0x40ED0, size: 0x8, addend: 0x0, symName: __ZL3gas, symObjAddr: 0x3D2838, symBinAddr: 0x10005C120, symSize: 0x0 }
  - { offsetInCU: 0x40EEA, offset: 0x40EEA, size: 0x8, addend: 0x0, symName: __ZL2ag, symObjAddr: 0x3D2850, symBinAddr: 0x10005C138, symSize: 0x0 }
  - { offsetInCU: 0x40F04, offset: 0x40F04, size: 0x8, addend: 0x0, symName: __ZL3nag, symObjAddr: 0x3D2868, symBinAddr: 0x10005C150, symSize: 0x0 }
  - { offsetInCU: 0x40F1E, offset: 0x40F1E, size: 0x8, addend: 0x0, symName: __ZL5water, symObjAddr: 0x3D2880, symBinAddr: 0x10005C168, symSize: 0x0 }
  - { offsetInCU: 0x40F38, offset: 0x40F38, size: 0x8, addend: 0x0, symName: __ZL6liquid, symObjAddr: 0x3D2898, symBinAddr: 0x10005C180, symSize: 0x0 }
  - { offsetInCU: 0x40F52, offset: 0x40F52, size: 0x8, addend: 0x0, symName: __ZL20streamPrioritization, symObjAddr: 0x3D28B0, symBinAddr: 0x10005C198, symSize: 0x0 }
  - { offsetInCU: 0x40F6C, offset: 0x40F6C, size: 0x8, addend: 0x0, symName: __ZL27resourceClassPrioritization, symObjAddr: 0x3D28C8, symBinAddr: 0x10005C1B0, symSize: 0x0 }
  - { offsetInCU: 0x40F86, offset: 0x40F86, size: 0x8, addend: 0x0, symName: __ZL21projectPrioritization, symObjAddr: 0x3D28E0, symBinAddr: 0x10005C1C8, symSize: 0x0 }
  - { offsetInCU: 0x40FA0, offset: 0x40FA0, size: 0x8, addend: 0x0, symName: __ZL19nodalPrioritization, symObjAddr: 0x3D28F8, symBinAddr: 0x10005C1E0, symSize: 0x0 }
  - { offsetInCU: 0x40FBA, offset: 0x40FBA, size: 0x8, addend: 0x0, symName: __ZL4High, symObjAddr: 0x3D2910, symBinAddr: 0x10005C1F8, symSize: 0x0 }
  - { offsetInCU: 0x40FD4, offset: 0x40FD4, size: 0x8, addend: 0x0, symName: __ZL6Normal, symObjAddr: 0x3D2928, symBinAddr: 0x10005C210, symSize: 0x0 }
  - { offsetInCU: 0x40FEE, offset: 0x40FEE, size: 0x8, addend: 0x0, symName: __ZL3Low, symObjAddr: 0x3D2940, symBinAddr: 0x10005C228, symSize: 0x0 }
  - { offsetInCU: 0x41008, offset: 0x41008, size: 0x8, addend: 0x0, symName: __ZL8external, symObjAddr: 0x3D2958, symBinAddr: 0x10005C240, symSize: 0x0 }
  - { offsetInCU: 0x41022, offset: 0x41022, size: 0x8, addend: 0x0, symName: __ZL9potential, symObjAddr: 0x3D2970, symBinAddr: 0x10005C258, symSize: 0x0 }
  - { offsetInCU: 0x4103C, offset: 0x4103C, size: 0x8, addend: 0x0, symName: __ZL8internal, symObjAddr: 0x3D2988, symBinAddr: 0x10005C270, symSize: 0x0 }
  - { offsetInCU: 0x41056, offset: 0x41056, size: 0x8, addend: 0x0, symName: __ZL12availability, symObjAddr: 0x3D29A0, symBinAddr: 0x10005C288, symSize: 0x0 }
  - { offsetInCU: 0x41070, offset: 0x41070, size: 0x8, addend: 0x0, symName: __ZL9delivered, symObjAddr: 0x3D29B8, symBinAddr: 0x10005C2A0, symSize: 0x0 }
  - { offsetInCU: 0x4108A, offset: 0x4108A, size: 0x8, addend: 0x0, symName: __ZL7offtake, symObjAddr: 0x3D29D0, symBinAddr: 0x10005C2B8, symSize: 0x0 }
  - { offsetInCU: 0x410A4, offset: 0x410A4, size: 0x8, addend: 0x0, symName: __ZL13oil_water_gas, symObjAddr: 0x3D29E8, symBinAddr: 0x10005C2D0, symSize: 0x0 }
  - { offsetInCU: 0x410BE, offset: 0x410BE, size: 0x8, addend: 0x0, symName: __ZL9oil_water, symObjAddr: 0x3D2A00, symBinAddr: 0x10005C2E8, symSize: 0x0 }
  - { offsetInCU: 0x410D8, offset: 0x410D8, size: 0x8, addend: 0x0, symName: __ZL9water_gas, symObjAddr: 0x3D2A18, symBinAddr: 0x10005C300, symSize: 0x0 }
  - { offsetInCU: 0x410F2, offset: 0x410F2, size: 0x8, addend: 0x0, symName: __ZL7oil_gas, symObjAddr: 0x3D2A30, symBinAddr: 0x10005C318, symSize: 0x0 }
  - { offsetInCU: 0x4110C, offset: 0x4110C, size: 0x8, addend: 0x0, symName: __ZL9gas_plant, symObjAddr: 0x3D2A48, symBinAddr: 0x10005C330, symSize: 0x0 }
  - { offsetInCU: 0x41126, offset: 0x41126, size: 0x8, addend: 0x0, symName: __ZL12flow_station, symObjAddr: 0x3D2A60, symBinAddr: 0x10005C348, symSize: 0x0 }
  - { offsetInCU: 0x41140, offset: 0x41140, size: 0x8, addend: 0x0, symName: __ZL9oil_asset, symObjAddr: 0x3D2A78, symBinAddr: 0x10005C360, symSize: 0x0 }
  - { offsetInCU: 0x4115A, offset: 0x4115A, size: 0x8, addend: 0x0, symName: __ZL9gas_asset, symObjAddr: 0x3D2A90, symBinAddr: 0x10005C378, symSize: 0x0 }
  - { offsetInCU: 0x41174, offset: 0x41174, size: 0x8, addend: 0x0, symName: __ZL8ag_asset, symObjAddr: 0x3D2AA8, symBinAddr: 0x10005C390, symSize: 0x0 }
  - { offsetInCU: 0x4118E, offset: 0x4118E, size: 0x8, addend: 0x0, symName: __ZL9nag_asset, symObjAddr: 0x3D2AC0, symBinAddr: 0x10005C3A8, symSize: 0x0 }
  - { offsetInCU: 0x411A8, offset: 0x411A8, size: 0x8, addend: 0x0, symName: __ZL16condensate_asset, symObjAddr: 0x3D2AD8, symBinAddr: 0x10005C3C0, symSize: 0x0 }
  - { offsetInCU: 0x411BC, offset: 0x411BC, size: 0x8, addend: 0x0, symName: __ZN8nlohmann16json_abi_v3_11_36detail12static_constINS1_12from_json_fnEE5valueE, symObjAddr: 0x51008, symBinAddr: 0x100052BE0, symSize: 0x0 }
  - { offsetInCU: 0x42743, offset: 0x42743, size: 0x8, addend: 0x0, symName: __ZN8nlohmann16json_abi_v3_11_36detail9dtoa_impl36get_cached_power_for_binary_exponentEi, symObjAddr: 0x4A764, symBinAddr: 0x10004C160, symSize: 0x22C }
  - { offsetInCU: 0x4276F, offset: 0x4276F, size: 0x8, addend: 0x0, symName: __ZZN8nlohmann16json_abi_v3_11_36detail9dtoa_impl36get_cached_power_for_binary_exponentEiE13kCachedPowers, symObjAddr: 0x51788, symBinAddr: 0x100053360, symSize: 0x0 }
  - { offsetInCU: 0x42843, offset: 0x42843, size: 0x8, addend: 0x0, symName: __ZN8nlohmann16json_abi_v3_11_36detail9dtoa_impl6grisu2IdEEvPcRiS5_T_, symObjAddr: 0x49CD8, symBinAddr: 0x10004B6D4, symSize: 0xEC }
  - { offsetInCU: 0x428B3, offset: 0x428B3, size: 0x8, addend: 0x0, symName: __ZN8nlohmann16json_abi_v3_11_36detail9dtoa_impl13format_bufferEPciiii, symObjAddr: 0x49DC4, symBinAddr: 0x10004B7C0, symSize: 0x36C }
  - { offsetInCU: 0x4293B, offset: 0x4293B, size: 0x8, addend: 0x0, symName: __ZN8nlohmann16json_abi_v3_11_36detail9dtoa_impl18compute_boundariesIdEENS2_10boundariesET_, symObjAddr: 0x4A130, symBinAddr: 0x10004BB2C, symSize: 0x24C }
  - { offsetInCU: 0x42A4A, offset: 0x42A4A, size: 0x8, addend: 0x0, symName: __ZN8nlohmann16json_abi_v3_11_36detail9dtoa_impl6grisu2EPcRiS4_NS2_5diyfpES5_S5_, symObjAddr: 0x4A37C, symBinAddr: 0x10004BD78, symSize: 0x1C0 }
  - { offsetInCU: 0x42B33, offset: 0x42B33, size: 0x8, addend: 0x0, symName: __ZN8nlohmann16json_abi_v3_11_36detail9dtoa_impl16reinterpret_bitsIydEET_T0_, symObjAddr: 0x4A53C, symBinAddr: 0x10004BF38, symSize: 0x1C }
  - { offsetInCU: 0x42C36, offset: 0x42C36, size: 0x8, addend: 0x0, symName: __ZN8nlohmann16json_abi_v3_11_36detail9dtoa_impl16grisu2_digit_genEPcRiS4_NS2_5diyfpES5_S5_, symObjAddr: 0x4AAD0, symBinAddr: 0x10004C4CC, symSize: 0x4A4 }
  - { offsetInCU: 0x42DD8, offset: 0x42DD8, size: 0x8, addend: 0x0, symName: __ZN8nlohmann16json_abi_v3_11_36detail9dtoa_impl18find_largest_pow10EjRj, symObjAddr: 0x4B090, symBinAddr: 0x10004CA8C, symSize: 0x1F8 }
  - { offsetInCU: 0x42E16, offset: 0x42E16, size: 0x8, addend: 0x0, symName: __ZN8nlohmann16json_abi_v3_11_36detail9dtoa_impl12grisu2_roundEPciyyyy, symObjAddr: 0x4B288, symBinAddr: 0x10004CC84, symSize: 0x24C }
  - { offsetInCU: 0x42E8B, offset: 0x42E8B, size: 0x8, addend: 0x0, symName: __ZN8nlohmann16json_abi_v3_11_36detail9dtoa_impl15append_exponentEPci, symObjAddr: 0x4B4F0, symBinAddr: 0x10004CEEC, symSize: 0x220 }
  - { offsetInCU: 0x4357B, offset: 0x4357B, size: 0x8, addend: 0x0, symName: __ZN8nlohmann16json_abi_v3_11_36detail9from_jsonINS0_10basic_jsonINSt3__13mapENS4_6vectorENS4_12basic_stringIcNS4_11char_traitsIcEENS4_9allocatorIcEEEEbxydSA_NS0_14adl_serializerENS6_IhNSA_IhEEEEvEEEEvRKT_RNSH_8string_tE, symObjAddr: 0xB70, symBinAddr: 0x10000256C, symSize: 0x118 }
  - { offsetInCU: 0x435D3, offset: 0x435D3, size: 0x8, addend: 0x0, symName: __ZN8nlohmann16json_abi_v3_11_36detail9from_jsonINS0_10basic_jsonINSt3__13mapENS4_6vectorENS4_12basic_stringIcNS4_11char_traitsIcEENS4_9allocatorIcEEEEbxydSA_NS0_14adl_serializerENS6_IhNSA_IhEEEEvEEEEvRKT_RNSH_9boolean_tE, symObjAddr: 0x68B4, symBinAddr: 0x1000082B0, symSize: 0x11C }
  - { offsetInCU: 0x437EA, offset: 0x437EA, size: 0x8, addend: 0x0, symName: __ZN8nlohmann16json_abi_v3_11_36detail6concatINSt3__112basic_stringIcNS3_11char_traitsIcEENS3_9allocatorIcEEEEJRA30_KcPSA_EEET_DpOT0_, symObjAddr: 0x6B24, symBinAddr: 0x100008520, symSize: 0xCC }
  - { offsetInCU: 0x43850, offset: 0x43850, size: 0x8, addend: 0x0, symName: __ZN8nlohmann16json_abi_v3_11_36detail6concatINSt3__112basic_stringIcNS3_11char_traitsIcEENS3_9allocatorIcEEEEJS9_S9_RKS9_EEET_DpOT0_, symObjAddr: 0x6D44, symBinAddr: 0x100008740, symSize: 0xD8 }
  - { offsetInCU: 0x438CA, offset: 0x438CA, size: 0x8, addend: 0x0, symName: __ZN8nlohmann16json_abi_v3_11_36detail13concat_lengthINSt3__112basic_stringIcNS3_11char_traitsIcEENS3_9allocatorIcEEEEJS9_S9_EEEmRKT_DpRKT0_, symObjAddr: 0x6F48, symBinAddr: 0x100008944, symSize: 0x48 }
  - { offsetInCU: 0x43930, offset: 0x43930, size: 0x8, addend: 0x0, symName: __ZN8nlohmann16json_abi_v3_11_36detail11concat_intoINSt3__112basic_stringIcNS3_11char_traitsIcEENS3_9allocatorIcEEEES9_JS9_RKS9_ELi0EEEvRT_OT0_DpOT1_, symObjAddr: 0x6F90, symBinAddr: 0x10000898C, symSize: 0x44 }
  - { offsetInCU: 0x439AF, offset: 0x439AF, size: 0x8, addend: 0x0, symName: __ZN8nlohmann16json_abi_v3_11_36detail13concat_lengthINSt3__112basic_stringIcNS3_11char_traitsIcEENS3_9allocatorIcEEEEJS9_EEEmRKT_DpRKT0_, symObjAddr: 0x7028, symBinAddr: 0x100008A24, symSize: 0x40 }
  - { offsetInCU: 0x43A00, offset: 0x43A00, size: 0x8, addend: 0x0, symName: __ZN8nlohmann16json_abi_v3_11_36detail13concat_lengthINSt3__112basic_stringIcNS3_11char_traitsIcEENS3_9allocatorIcEEEEJEEEmRKT_DpRKT0_, symObjAddr: 0x7134, symBinAddr: 0x100008B30, symSize: 0x38 }
  - { offsetInCU: 0x43A3D, offset: 0x43A3D, size: 0x8, addend: 0x0, symName: __ZN8nlohmann16json_abi_v3_11_36detail13concat_lengthEv, symObjAddr: 0x716C, symBinAddr: 0x100008B68, symSize: 0x8 }
  - { offsetInCU: 0x43A5C, offset: 0x43A5C, size: 0x8, addend: 0x0, symName: __ZN8nlohmann16json_abi_v3_11_36detail11concat_intoINSt3__112basic_stringIcNS3_11char_traitsIcEENS3_9allocatorIcEEEES9_JRKS9_ELi0EEEvRT_OT0_DpOT1_, symObjAddr: 0x71C0, symBinAddr: 0x100008BBC, symSize: 0x3C }
  - { offsetInCU: 0x43AC8, offset: 0x43AC8, size: 0x8, addend: 0x0, symName: __ZN8nlohmann16json_abi_v3_11_36detail11concat_intoINSt3__112basic_stringIcNS3_11char_traitsIcEENS3_9allocatorIcEEEERKS9_JELi0EEEvRT_OT0_DpOT1_, symObjAddr: 0x72F0, symBinAddr: 0x100008CEC, symSize: 0x34 }
  - { offsetInCU: 0x43B1F, offset: 0x43B1F, size: 0x8, addend: 0x0, symName: __ZN8nlohmann16json_abi_v3_11_36detail11concat_intoINSt3__112basic_stringIcNS3_11char_traitsIcEENS3_9allocatorIcEEEEEEvRT_, symObjAddr: 0x7324, symBinAddr: 0x100008D20, symSize: 0x10 }
  - { offsetInCU: 0x43B4F, offset: 0x43B4F, size: 0x8, addend: 0x0, symName: __ZN8nlohmann16json_abi_v3_11_36detail6concatINSt3__112basic_stringIcNS3_11char_traitsIcEENS3_9allocatorIcEEEEJRA17_KcRKS9_cS9_RA3_SA_EEET_DpOT0_, symObjAddr: 0x7334, symBinAddr: 0x100008D30, symSize: 0xF0 }
  - { offsetInCU: 0x43BF1, offset: 0x43BF1, size: 0x8, addend: 0x0, symName: __ZN8nlohmann16json_abi_v3_11_36detail13concat_lengthIJNSt3__112basic_stringIcNS3_11char_traitsIcEENS3_9allocatorIcEEEEcS9_A3_cEEEmPKcDpRKT_, symObjAddr: 0x7424, symBinAddr: 0x100008E20, symSize: 0x58 }
  - { offsetInCU: 0x43C76, offset: 0x43C76, size: 0x8, addend: 0x0, symName: __ZN8nlohmann16json_abi_v3_11_36detail11concat_intoINSt3__112basic_stringIcNS3_11char_traitsIcEENS3_9allocatorIcEEEERA17_KcJRKS9_cS9_RA3_SA_ELi0EEEvRT_OT0_DpOT1_, symObjAddr: 0x747C, symBinAddr: 0x100008E78, symSize: 0x54 }
  - { offsetInCU: 0x43D1D, offset: 0x43D1D, size: 0x8, addend: 0x0, symName: __ZN8nlohmann16json_abi_v3_11_36detail13concat_lengthINSt3__112basic_stringIcNS3_11char_traitsIcEENS3_9allocatorIcEEEEJcS9_A3_cEEEmRKT_DpRKT0_, symObjAddr: 0x74D0, symBinAddr: 0x100008ECC, symSize: 0x54 }
  - { offsetInCU: 0x43D96, offset: 0x43D96, size: 0x8, addend: 0x0, symName: __ZN8nlohmann16json_abi_v3_11_36detail13concat_lengthIJNSt3__112basic_stringIcNS3_11char_traitsIcEENS3_9allocatorIcEEEEA3_cEEEmcDpRKT_, symObjAddr: 0x7524, symBinAddr: 0x100008F20, symSize: 0x34 }
  - { offsetInCU: 0x43DEF, offset: 0x43DEF, size: 0x8, addend: 0x0, symName: __ZN8nlohmann16json_abi_v3_11_36detail13concat_lengthINSt3__112basic_stringIcNS3_11char_traitsIcEENS3_9allocatorIcEEEEJA3_cEEEmRKT_DpRKT0_, symObjAddr: 0x7558, symBinAddr: 0x100008F54, symSize: 0x40 }
  - { offsetInCU: 0x43E40, offset: 0x43E40, size: 0x8, addend: 0x0, symName: __ZN8nlohmann16json_abi_v3_11_36detail13concat_lengthIJEEEmPKcDpRKT_, symObjAddr: 0x7598, symBinAddr: 0x100008F94, symSize: 0x38 }
  - { offsetInCU: 0x43E74, offset: 0x43E74, size: 0x8, addend: 0x0, symName: __ZN8nlohmann16json_abi_v3_11_36detail11concat_intoINSt3__112basic_stringIcNS3_11char_traitsIcEENS3_9allocatorIcEEEERKS9_JcS9_RA3_KcELi0EEEvRT_OT0_DpOT1_, symObjAddr: 0x75D0, symBinAddr: 0x100008FCC, symSize: 0x4C }
  - { offsetInCU: 0x43F08, offset: 0x43F08, size: 0x8, addend: 0x0, symName: __ZN8nlohmann16json_abi_v3_11_36detail11concat_intoINSt3__112basic_stringIcNS3_11char_traitsIcEENS3_9allocatorIcEEEEcJS9_RA3_KcELi0EEEvRT_OT0_DpOT1_, symObjAddr: 0x761C, symBinAddr: 0x100009018, symSize: 0x48 }
  - { offsetInCU: 0x43F88, offset: 0x43F88, size: 0x8, addend: 0x0, symName: __ZN8nlohmann16json_abi_v3_11_36detail11concat_intoINSt3__112basic_stringIcNS3_11char_traitsIcEENS3_9allocatorIcEEEES9_JRA3_KcELi0EEEvRT_OT0_DpOT1_, symObjAddr: 0x7698, symBinAddr: 0x100009094, symSize: 0x3C }
  - { offsetInCU: 0x43FF4, offset: 0x43FF4, size: 0x8, addend: 0x0, symName: __ZN8nlohmann16json_abi_v3_11_36detail11concat_intoINSt3__112basic_stringIcNS3_11char_traitsIcEENS3_9allocatorIcEEEERA3_KcJELi0EEEvRT_OT0_DpOT1_, symObjAddr: 0x76D4, symBinAddr: 0x1000090D0, symSize: 0x34 }
  - { offsetInCU: 0x4404A, offset: 0x4404A, size: 0x8, addend: 0x0, symName: __ZN8nlohmann16json_abi_v3_11_36detail13concat_lengthIJPKcEEEmS4_DpRKT_, symObjAddr: 0x7944, symBinAddr: 0x100009340, symSize: 0x44 }
  - { offsetInCU: 0x44093, offset: 0x44093, size: 0x8, addend: 0x0, symName: __ZN8nlohmann16json_abi_v3_11_36detail11concat_intoINSt3__112basic_stringIcNS3_11char_traitsIcEENS3_9allocatorIcEEEERA30_KcJPSA_ELi0EEEvRT_OT0_DpOT1_, symObjAddr: 0x7988, symBinAddr: 0x100009384, symSize: 0x3C }
  - { offsetInCU: 0x440FF, offset: 0x440FF, size: 0x8, addend: 0x0, symName: __ZN8nlohmann16json_abi_v3_11_36detail11concat_intoINSt3__112basic_stringIcNS3_11char_traitsIcEENS3_9allocatorIcEEEEPKcJELi0EEEvRT_OT0_DpOT1_, symObjAddr: 0x79C4, symBinAddr: 0x1000093C0, symSize: 0x38 }
  - { offsetInCU: 0x44155, offset: 0x44155, size: 0x8, addend: 0x0, symName: __ZN8nlohmann16json_abi_v3_11_36detail6concatINSt3__112basic_stringIcNS3_11char_traitsIcEENS3_9allocatorIcEEEEJRA22_KcPSA_EEET_DpOT0_, symObjAddr: 0xD67C, symBinAddr: 0x10000F078, symSize: 0xCC }
  - { offsetInCU: 0x442A0, offset: 0x442A0, size: 0x8, addend: 0x0, symName: __ZN8nlohmann16json_abi_v3_11_36detail6concatINSt3__112basic_stringIcNS3_11char_traitsIcEENS3_9allocatorIcEEEEJRA6_KcS9_RA12_SA_EEET_DpOT0_, symObjAddr: 0xD8E8, symBinAddr: 0x10000F2E4, symSize: 0xD8 }
  - { offsetInCU: 0x4431B, offset: 0x4431B, size: 0x8, addend: 0x0, symName: __ZN8nlohmann16json_abi_v3_11_36detail11concat_intoINSt3__112basic_stringIcNS3_11char_traitsIcEENS3_9allocatorIcEEEERA22_KcJPSA_ELi0EEEvRT_OT0_DpOT1_, symObjAddr: 0xDA18, symBinAddr: 0x10000F414, symSize: 0x3C }
  - { offsetInCU: 0x44386, offset: 0x44386, size: 0x8, addend: 0x0, symName: __ZN8nlohmann16json_abi_v3_11_36detail13concat_lengthIJNSt3__112basic_stringIcNS3_11char_traitsIcEENS3_9allocatorIcEEEEA12_cEEEmPKcDpRKT_, symObjAddr: 0xDF04, symBinAddr: 0x10000F900, symSize: 0x48 }
  - { offsetInCU: 0x443E3, offset: 0x443E3, size: 0x8, addend: 0x0, symName: __ZN8nlohmann16json_abi_v3_11_36detail11concat_intoINSt3__112basic_stringIcNS3_11char_traitsIcEENS3_9allocatorIcEEEERA6_KcJS9_RA12_SA_ELi0EEEvRT_OT0_DpOT1_, symObjAddr: 0xDF4C, symBinAddr: 0x10000F948, symSize: 0x44 }
  - { offsetInCU: 0x44462, offset: 0x44462, size: 0x8, addend: 0x0, symName: __ZN8nlohmann16json_abi_v3_11_36detail13concat_lengthINSt3__112basic_stringIcNS3_11char_traitsIcEENS3_9allocatorIcEEEEJA12_cEEEmRKT_DpRKT0_, symObjAddr: 0xDF90, symBinAddr: 0x10000F98C, symSize: 0x40 }
  - { offsetInCU: 0x444B4, offset: 0x444B4, size: 0x8, addend: 0x0, symName: __ZN8nlohmann16json_abi_v3_11_36detail11concat_intoINSt3__112basic_stringIcNS3_11char_traitsIcEENS3_9allocatorIcEEEES9_JRA12_KcELi0EEEvRT_OT0_DpOT1_, symObjAddr: 0xDFD0, symBinAddr: 0x10000F9CC, symSize: 0x3C }
  - { offsetInCU: 0x44520, offset: 0x44520, size: 0x8, addend: 0x0, symName: __ZN8nlohmann16json_abi_v3_11_36detail11concat_intoINSt3__112basic_stringIcNS3_11char_traitsIcEENS3_9allocatorIcEEEERA12_KcJELi0EEEvRT_OT0_DpOT1_, symObjAddr: 0xE00C, symBinAddr: 0x10000FA08, symSize: 0x34 }
  - { offsetInCU: 0x4461A, offset: 0x4461A, size: 0x8, addend: 0x0, symName: __ZN8nlohmann16json_abi_v3_11_36detaileqENS1_20primitive_iterator_tES2_, symObjAddr: 0xEA68, symBinAddr: 0x100010464, symSize: 0x28 }
  - { offsetInCU: 0x44657, offset: 0x44657, size: 0x8, addend: 0x0, symName: __ZN8nlohmann16json_abi_v3_11_36detail6concatINSt3__112basic_stringIcNS3_11char_traitsIcEENS3_9allocatorIcEEEEJRA29_KcPSA_EEET_DpOT0_, symObjAddr: 0xEEC0, symBinAddr: 0x1000108BC, symSize: 0xCC }
  - { offsetInCU: 0x446BE, offset: 0x446BE, size: 0x8, addend: 0x0, symName: __ZN8nlohmann16json_abi_v3_11_36detail11concat_intoINSt3__112basic_stringIcNS3_11char_traitsIcEENS3_9allocatorIcEEEERA29_KcJPSA_ELi0EEEvRT_OT0_DpOT1_, symObjAddr: 0xEFB4, symBinAddr: 0x1000109B0, symSize: 0x3C }
  - { offsetInCU: 0x4472A, offset: 0x4472A, size: 0x8, addend: 0x0, symName: __ZN8nlohmann16json_abi_v3_11_36detail7to_jsonINS0_10basic_jsonINSt3__13mapENS4_6vectorENS4_12basic_stringIcNS4_11char_traitsIcEENS4_9allocatorIcEEEEbxydSA_NS0_14adl_serializerENS6_IhNSA_IhEEEEvEEA17_cLi0EEEvRT_RKT0_, symObjAddr: 0x11954, symBinAddr: 0x100013350, symSize: 0x2C }
  - { offsetInCU: 0x44898, offset: 0x44898, size: 0x8, addend: 0x0, symName: __ZN8nlohmann16json_abi_v3_11_36detail7to_jsonINS0_10basic_jsonINSt3__13mapENS4_6vectorENS4_12basic_stringIcNS4_11char_traitsIcEENS4_9allocatorIcEEEEbxydSA_NS0_14adl_serializerENS6_IhNSA_IhEEEEvEESC_Li0EEEvRT_RKT0_, symObjAddr: 0x12068, symBinAddr: 0x100013A64, symSize: 0x2C }
  - { offsetInCU: 0x448EA, offset: 0x448EA, size: 0x8, addend: 0x0, symName: __ZN8nlohmann16json_abi_v3_11_36detail7to_jsonINS0_10basic_jsonINSt3__13mapENS4_6vectorENS4_12basic_stringIcNS4_11char_traitsIcEENS4_9allocatorIcEEEEbxydSA_NS0_14adl_serializerENS6_IhNSA_IhEEEEvEEA3_cLi0EEEvRT_RKT0_, symObjAddr: 0x12794, symBinAddr: 0x100014190, symSize: 0x2C }
  - { offsetInCU: 0x4493C, offset: 0x4493C, size: 0x8, addend: 0x0, symName: __ZN8nlohmann16json_abi_v3_11_36detail7to_jsonINS0_10basic_jsonINSt3__13mapENS4_6vectorENS4_12basic_stringIcNS4_11char_traitsIcEENS4_9allocatorIcEEEEbxydSA_NS0_14adl_serializerENS6_IhNSA_IhEEEEvEEA5_cLi0EEEvRT_RKT0_, symObjAddr: 0x12E58, symBinAddr: 0x100014854, symSize: 0x2C }
  - { offsetInCU: 0x4498E, offset: 0x4498E, size: 0x8, addend: 0x0, symName: __ZN8nlohmann16json_abi_v3_11_36detail7to_jsonINS0_10basic_jsonINSt3__13mapENS4_6vectorENS4_12basic_stringIcNS4_11char_traitsIcEENS4_9allocatorIcEEEEbxydSA_NS0_14adl_serializerENS6_IhNSA_IhEEEEvEEA6_cLi0EEEvRT_RKT0_, symObjAddr: 0x1351C, symBinAddr: 0x100014F18, symSize: 0x2C }
  - { offsetInCU: 0x449E0, offset: 0x449E0, size: 0x8, addend: 0x0, symName: __ZN8nlohmann16json_abi_v3_11_36detail7to_jsonINS0_10basic_jsonINSt3__13mapENS4_6vectorENS4_12basic_stringIcNS4_11char_traitsIcEENS4_9allocatorIcEEEEbxydSA_NS0_14adl_serializerENS6_IhNSA_IhEEEEvEEA2_cLi0EEEvRT_RKT0_, symObjAddr: 0x13BE0, symBinAddr: 0x1000155DC, symSize: 0x2C }
  - { offsetInCU: 0x44A32, offset: 0x44A32, size: 0x8, addend: 0x0, symName: __ZN8nlohmann16json_abi_v3_11_36detail7to_jsonINS0_10basic_jsonINSt3__13mapENS4_6vectorENS4_12basic_stringIcNS4_11char_traitsIcEENS4_9allocatorIcEEEEbxydSA_NS0_14adl_serializerENS6_IhNSA_IhEEEEvEENS6_IdNSA_IdEEEELi0EEEvRT_RKT0_, symObjAddr: 0x142A4, symBinAddr: 0x100015CA0, symSize: 0x2C }
  - { offsetInCU: 0x44AF3, offset: 0x44AF3, size: 0x8, addend: 0x0, symName: __ZN8nlohmann16json_abi_v3_11_36detail7to_jsonINS0_10basic_jsonINSt3__13mapENS4_6vectorENS4_12basic_stringIcNS4_11char_traitsIcEENS4_9allocatorIcEEEEbxydSA_NS0_14adl_serializerENS6_IhNSA_IhEEEEvEEdLi0EEEvRT_T0_, symObjAddr: 0x15358, symBinAddr: 0x100016D54, symSize: 0x2C }
  - { offsetInCU: 0x44B76, offset: 0x44B76, size: 0x8, addend: 0x0, symName: __ZN8nlohmann16json_abi_v3_11_36detail7to_jsonINS0_10basic_jsonINSt3__13mapENS4_6vectorENS4_12basic_stringIcNS4_11char_traitsIcEENS4_9allocatorIcEEEEbxydSA_NS0_14adl_serializerENS6_IhNSA_IhEEEEvEENS6_ISC_NSA_ISC_EEEELi0EEEvRT_RKT0_, symObjAddr: 0x15A28, symBinAddr: 0x100017424, symSize: 0x2C }
  - { offsetInCU: 0x44BC7, offset: 0x44BC7, size: 0x8, addend: 0x0, symName: __ZN8nlohmann16json_abi_v3_11_36detail6concatINSt3__112basic_stringIcNS3_11char_traitsIcEENS3_9allocatorIcEEEEJRA52_KcPSA_EEET_DpOT0_, symObjAddr: 0x17178, symBinAddr: 0x100018B74, symSize: 0xCC }
  - { offsetInCU: 0x44C2E, offset: 0x44C2E, size: 0x8, addend: 0x0, symName: __ZN8nlohmann16json_abi_v3_11_36detail11concat_intoINSt3__112basic_stringIcNS3_11char_traitsIcEENS3_9allocatorIcEEEERA52_KcJPSA_ELi0EEEvRT_OT0_DpOT1_, symObjAddr: 0x17244, symBinAddr: 0x100018C40, symSize: 0x3C }
  - { offsetInCU: 0x44D0C, offset: 0x44D0C, size: 0x8, addend: 0x0, symName: __ZN8nlohmann16json_abi_v3_11_36detail6concatINSt3__112basic_stringIcNS3_11char_traitsIcEENS3_9allocatorIcEEEEJRA51_KcPSA_EEET_DpOT0_, symObjAddr: 0x2D140, symBinAddr: 0x10002EB3C, symSize: 0xCC }
  - { offsetInCU: 0x44D73, offset: 0x44D73, size: 0x8, addend: 0x0, symName: __ZN8nlohmann16json_abi_v3_11_36detail11concat_intoINSt3__112basic_stringIcNS3_11char_traitsIcEENS3_9allocatorIcEEEERA51_KcJPSA_ELi0EEEvRT_OT0_DpOT1_, symObjAddr: 0x2D3A8, symBinAddr: 0x10002EDA4, symSize: 0x3C }
  - { offsetInCU: 0x44F3A, offset: 0x44F3A, size: 0x8, addend: 0x0, symName: __ZN8nlohmann16json_abi_v3_11_36detail13input_adapterERNSt3__113basic_istreamIcNS2_11char_traitsIcEEEE, symObjAddr: 0x2EDFC, symBinAddr: 0x1000307F8, symSize: 0x38 }
  - { offsetInCU: 0x4587F, offset: 0x4587F, size: 0x8, addend: 0x0, symName: __ZN8nlohmann16json_abi_v3_11_36detail12unknown_sizeEv, symObjAddr: 0x39A18, symBinAddr: 0x10003B414, symSize: 0x14 }
  - { offsetInCU: 0x4589D, offset: 0x4589D, size: 0x8, addend: 0x0, symName: __ZN8nlohmann16json_abi_v3_11_36detail6concatINSt3__112basic_stringIcNS3_11char_traitsIcEENS3_9allocatorIcEEEEJRA26_KcS9_cEEET_DpOT0_, symObjAddr: 0x3A474, symBinAddr: 0x10003BE70, symSize: 0xD8 }
  - { offsetInCU: 0x45917, offset: 0x45917, size: 0x8, addend: 0x0, symName: __ZN8nlohmann16json_abi_v3_11_36detail6concatINSt3__112basic_stringIcNS3_11char_traitsIcEENS3_9allocatorIcEEEEJRA24_KcS9_EEET_DpOT0_, symObjAddr: 0x3AF44, symBinAddr: 0x10003C940, symSize: 0xCC }
  - { offsetInCU: 0x4597D, offset: 0x4597D, size: 0x8, addend: 0x0, symName: __ZN8nlohmann16json_abi_v3_11_36detail13concat_lengthIJNSt3__112basic_stringIcNS3_11char_traitsIcEENS3_9allocatorIcEEEEEEEmPKcDpRKT_, symObjAddr: 0x3C80C, symBinAddr: 0x10003E208, symSize: 0x40 }
  - { offsetInCU: 0x459C6, offset: 0x459C6, size: 0x8, addend: 0x0, symName: __ZN8nlohmann16json_abi_v3_11_36detail11concat_intoINSt3__112basic_stringIcNS3_11char_traitsIcEENS3_9allocatorIcEEEERA24_KcJS9_ELi0EEEvRT_OT0_DpOT1_, symObjAddr: 0x3C84C, symBinAddr: 0x10003E248, symSize: 0x3C }
  - { offsetInCU: 0x45A32, offset: 0x45A32, size: 0x8, addend: 0x0, symName: __ZN8nlohmann16json_abi_v3_11_36detail11concat_intoINSt3__112basic_stringIcNS3_11char_traitsIcEENS3_9allocatorIcEEEES9_JELi0EEEvRT_OT0_DpOT1_, symObjAddr: 0x3C888, symBinAddr: 0x10003E284, symSize: 0x34 }
  - { offsetInCU: 0x45A88, offset: 0x45A88, size: 0x8, addend: 0x0, symName: __ZN8nlohmann16json_abi_v3_11_36detail6concatINSt3__112basic_stringIcNS3_11char_traitsIcEENS3_9allocatorIcEEEEJRA25_KcPSA_EEET_DpOT0_, symObjAddr: 0x3DD00, symBinAddr: 0x10003F6FC, symSize: 0xCC }
  - { offsetInCU: 0x45AEF, offset: 0x45AEF, size: 0x8, addend: 0x0, symName: __ZN8nlohmann16json_abi_v3_11_36detail11concat_intoINSt3__112basic_stringIcNS3_11char_traitsIcEENS3_9allocatorIcEEEERA25_KcJPSA_ELi0EEEvRT_OT0_DpOT1_, symObjAddr: 0x3EA40, symBinAddr: 0x10004043C, symSize: 0x3C }
  - { offsetInCU: 0x45B5A, offset: 0x45B5A, size: 0x8, addend: 0x0, symName: __ZN8nlohmann16json_abi_v3_11_36detail6concatINSt3__112basic_stringIcNS3_11char_traitsIcEENS3_9allocatorIcEEEEJRA23_KcS9_EEET_DpOT0_, symObjAddr: 0x3EFEC, symBinAddr: 0x1000409E8, symSize: 0xCC }
  - { offsetInCU: 0x45BC1, offset: 0x45BC1, size: 0x8, addend: 0x0, symName: __ZN8nlohmann16json_abi_v3_11_36detail11concat_intoINSt3__112basic_stringIcNS3_11char_traitsIcEENS3_9allocatorIcEEEERA23_KcJS9_ELi0EEEvRT_OT0_DpOT1_, symObjAddr: 0x3F0B8, symBinAddr: 0x100040AB4, symSize: 0x3C }
  - { offsetInCU: 0x45C2C, offset: 0x45C2C, size: 0x8, addend: 0x0, symName: __ZN8nlohmann16json_abi_v3_11_36detail13concat_lengthIJNSt3__112basic_stringIcNS3_11char_traitsIcEENS3_9allocatorIcEEEEcEEEmPKcDpRKT_, symObjAddr: 0x3F208, symBinAddr: 0x100040C04, symSize: 0x48 }
  - { offsetInCU: 0x45C89, offset: 0x45C89, size: 0x8, addend: 0x0, symName: __ZN8nlohmann16json_abi_v3_11_36detail11concat_intoINSt3__112basic_stringIcNS3_11char_traitsIcEENS3_9allocatorIcEEEERA26_KcJS9_cELi0EEEvRT_OT0_DpOT1_, symObjAddr: 0x3F250, symBinAddr: 0x100040C4C, symSize: 0x44 }
  - { offsetInCU: 0x45D08, offset: 0x45D08, size: 0x8, addend: 0x0, symName: __ZN8nlohmann16json_abi_v3_11_36detail13concat_lengthINSt3__112basic_stringIcNS3_11char_traitsIcEENS3_9allocatorIcEEEEJcEEEmRKT_DpRKT0_, symObjAddr: 0x3F294, symBinAddr: 0x100040C90, symSize: 0x44 }
  - { offsetInCU: 0x45D59, offset: 0x45D59, size: 0x8, addend: 0x0, symName: __ZN8nlohmann16json_abi_v3_11_36detail13concat_lengthIJEEEmcDpRKT_, symObjAddr: 0x3F2D8, symBinAddr: 0x100040CD4, symSize: 0x24 }
  - { offsetInCU: 0x45D8A, offset: 0x45D8A, size: 0x8, addend: 0x0, symName: __ZN8nlohmann16json_abi_v3_11_36detail11concat_intoINSt3__112basic_stringIcNS3_11char_traitsIcEENS3_9allocatorIcEEEES9_JcELi0EEEvRT_OT0_DpOT1_, symObjAddr: 0x3F2FC, symBinAddr: 0x100040CF8, symSize: 0x3C }
  - { offsetInCU: 0x45DF6, offset: 0x45DF6, size: 0x8, addend: 0x0, symName: __ZN8nlohmann16json_abi_v3_11_36detail11concat_intoINSt3__112basic_stringIcNS3_11char_traitsIcEENS3_9allocatorIcEEEEcJELi0EEEvRT_OT0_DpOT1_, symObjAddr: 0x3F338, symBinAddr: 0x100040D34, symSize: 0x38 }
  - { offsetInCU: 0x45E4D, offset: 0x45E4D, size: 0x8, addend: 0x0, symName: __ZN8nlohmann16json_abi_v3_11_36detail7to_jsonINS0_10basic_jsonINSt3__13mapENS4_6vectorENS4_12basic_stringIcNS4_11char_traitsIcEENS4_9allocatorIcEEEEbxydSA_NS0_14adl_serializerENS6_IhNSA_IhEEEEvEEbLi0EEEvRT_T0_, symObjAddr: 0x3FF1C, symBinAddr: 0x100041918, symSize: 0x38 }
  - { offsetInCU: 0x45ED0, offset: 0x45ED0, size: 0x8, addend: 0x0, symName: __ZN8nlohmann16json_abi_v3_11_36detail7to_jsonINS0_10basic_jsonINSt3__13mapENS4_6vectorENS4_12basic_stringIcNS4_11char_traitsIcEENS4_9allocatorIcEEEEbxydSA_NS0_14adl_serializerENS6_IhNSA_IhEEEEvEExLi0EEEvRT_T0_, symObjAddr: 0x40A80, symBinAddr: 0x10004247C, symSize: 0x2C }
  - { offsetInCU: 0x45F53, offset: 0x45F53, size: 0x8, addend: 0x0, symName: __ZN8nlohmann16json_abi_v3_11_36detail7to_jsonINS0_10basic_jsonINSt3__13mapENS4_6vectorENS4_12basic_stringIcNS4_11char_traitsIcEENS4_9allocatorIcEEEEbxydSA_NS0_14adl_serializerENS6_IhNSA_IhEEEEvEEyLi0EEEvRT_T0_, symObjAddr: 0x415CC, symBinAddr: 0x100042FC8, symSize: 0x2C }
  - { offsetInCU: 0x45FD5, offset: 0x45FD5, size: 0x8, addend: 0x0, symName: __ZN8nlohmann16json_abi_v3_11_36detail6concatINSt3__112basic_stringIcNS3_11char_traitsIcEENS3_9allocatorIcEEEEJS9_RA12_KcS9_RA3_SA_S9_RKS9_EEET_DpOT0_, symObjAddr: 0x41928, symBinAddr: 0x100043324, symSize: 0xFC }
  - { offsetInCU: 0x4608B, offset: 0x4608B, size: 0x8, addend: 0x0, symName: __ZN8nlohmann16json_abi_v3_11_36detail13concat_lengthINSt3__112basic_stringIcNS3_11char_traitsIcEENS3_9allocatorIcEEEEJA12_cS9_A3_cS9_S9_EEEmRKT_DpRKT0_, symObjAddr: 0x41B24, symBinAddr: 0x100043520, symSize: 0x60 }
  - { offsetInCU: 0x4612D, offset: 0x4612D, size: 0x8, addend: 0x0, symName: __ZN8nlohmann16json_abi_v3_11_36detail11concat_intoINSt3__112basic_stringIcNS3_11char_traitsIcEENS3_9allocatorIcEEEES9_JRA12_KcS9_RA3_SA_S9_RKS9_ELi0EEEvRT_OT0_DpOT1_, symObjAddr: 0x41B84, symBinAddr: 0x100043580, symSize: 0x5C }
  - { offsetInCU: 0x461E8, offset: 0x461E8, size: 0x8, addend: 0x0, symName: __ZN8nlohmann16json_abi_v3_11_36detail13concat_lengthIJNSt3__112basic_stringIcNS3_11char_traitsIcEENS3_9allocatorIcEEEEA3_cS9_S9_EEEmPKcDpRKT_, symObjAddr: 0x41BE0, symBinAddr: 0x1000435DC, symSize: 0x58 }
  - { offsetInCU: 0x4626C, offset: 0x4626C, size: 0x8, addend: 0x0, symName: __ZN8nlohmann16json_abi_v3_11_36detail13concat_lengthINSt3__112basic_stringIcNS3_11char_traitsIcEENS3_9allocatorIcEEEEJA3_cS9_S9_EEEmRKT_DpRKT0_, symObjAddr: 0x41C38, symBinAddr: 0x100043634, symSize: 0x50 }
  - { offsetInCU: 0x462E5, offset: 0x462E5, size: 0x8, addend: 0x0, symName: __ZN8nlohmann16json_abi_v3_11_36detail13concat_lengthIJNSt3__112basic_stringIcNS3_11char_traitsIcEENS3_9allocatorIcEEEES9_EEEmPKcDpRKT_, symObjAddr: 0x41C88, symBinAddr: 0x100043684, symSize: 0x48 }
  - { offsetInCU: 0x46342, offset: 0x46342, size: 0x8, addend: 0x0, symName: __ZN8nlohmann16json_abi_v3_11_36detail11concat_intoINSt3__112basic_stringIcNS3_11char_traitsIcEENS3_9allocatorIcEEEERA12_KcJS9_RA3_SA_S9_RKS9_ELi0EEEvRT_OT0_DpOT1_, symObjAddr: 0x41CD0, symBinAddr: 0x1000436CC, symSize: 0x54 }
  - { offsetInCU: 0x463EA, offset: 0x463EA, size: 0x8, addend: 0x0, symName: __ZN8nlohmann16json_abi_v3_11_36detail11concat_intoINSt3__112basic_stringIcNS3_11char_traitsIcEENS3_9allocatorIcEEEES9_JRA3_KcS9_RKS9_ELi0EEEvRT_OT0_DpOT1_, symObjAddr: 0x41D24, symBinAddr: 0x100043720, symSize: 0x4C }
  - { offsetInCU: 0x4647E, offset: 0x4647E, size: 0x8, addend: 0x0, symName: __ZN8nlohmann16json_abi_v3_11_36detail11concat_intoINSt3__112basic_stringIcNS3_11char_traitsIcEENS3_9allocatorIcEEEERA3_KcJS9_RKS9_ELi0EEEvRT_OT0_DpOT1_, symObjAddr: 0x41D70, symBinAddr: 0x10004376C, symSize: 0x44 }
  - { offsetInCU: 0x464FD, offset: 0x464FD, size: 0x8, addend: 0x0, symName: __ZN8nlohmann16json_abi_v3_11_36detail6concatINSt3__112basic_stringIcNS3_11char_traitsIcEENS3_9allocatorIcEEEEJRA10_KcS9_SC_S9_EEET_DpOT0_, symObjAddr: 0x41DB4, symBinAddr: 0x1000437B0, symSize: 0xE4 }
  - { offsetInCU: 0x4658B, offset: 0x4658B, size: 0x8, addend: 0x0, symName: __ZN8nlohmann16json_abi_v3_11_36detail13concat_lengthIJNSt3__112basic_stringIcNS3_11char_traitsIcEENS3_9allocatorIcEEEEA10_cS9_EEEmPKcDpRKT_, symObjAddr: 0x41E98, symBinAddr: 0x100043894, symSize: 0x50 }
  - { offsetInCU: 0x465FC, offset: 0x465FC, size: 0x8, addend: 0x0, symName: __ZN8nlohmann16json_abi_v3_11_36detail11concat_intoINSt3__112basic_stringIcNS3_11char_traitsIcEENS3_9allocatorIcEEEERA10_KcJS9_SC_S9_ELi0EEEvRT_OT0_DpOT1_, symObjAddr: 0x41EE8, symBinAddr: 0x1000438E4, symSize: 0x4C }
  - { offsetInCU: 0x4668F, offset: 0x4668F, size: 0x8, addend: 0x0, symName: __ZN8nlohmann16json_abi_v3_11_36detail13concat_lengthINSt3__112basic_stringIcNS3_11char_traitsIcEENS3_9allocatorIcEEEEJA10_cS9_EEEmRKT_DpRKT0_, symObjAddr: 0x41F34, symBinAddr: 0x100043930, symSize: 0x48 }
  - { offsetInCU: 0x466F5, offset: 0x466F5, size: 0x8, addend: 0x0, symName: __ZN8nlohmann16json_abi_v3_11_36detail11concat_intoINSt3__112basic_stringIcNS3_11char_traitsIcEENS3_9allocatorIcEEEES9_JRA10_KcS9_ELi0EEEvRT_OT0_DpOT1_, symObjAddr: 0x41F7C, symBinAddr: 0x100043978, symSize: 0x44 }
  - { offsetInCU: 0x46775, offset: 0x46775, size: 0x8, addend: 0x0, symName: __ZN8nlohmann16json_abi_v3_11_36detail11concat_intoINSt3__112basic_stringIcNS3_11char_traitsIcEENS3_9allocatorIcEEEERA10_KcJS9_ELi0EEEvRT_OT0_DpOT1_, symObjAddr: 0x41FC0, symBinAddr: 0x1000439BC, symSize: 0x3C }
  - { offsetInCU: 0x467E0, offset: 0x467E0, size: 0x8, addend: 0x0, symName: __ZN8nlohmann16json_abi_v3_11_36detail6concatINSt3__112basic_stringIcNS3_11char_traitsIcEENS3_9allocatorIcEEEEJRA15_KcRKS9_cEEET_DpOT0_, symObjAddr: 0x4208C, symBinAddr: 0x100043A88, symSize: 0xD8 }
  - { offsetInCU: 0x4685A, offset: 0x4685A, size: 0x8, addend: 0x0, symName: __ZN8nlohmann16json_abi_v3_11_36detail6concatINSt3__112basic_stringIcNS3_11char_traitsIcEENS3_9allocatorIcEEEEJPKcRA15_SA_S9_cEEET_DpOT0_, symObjAddr: 0x42190, symBinAddr: 0x100043B8C, symSize: 0xE8 }
  - { offsetInCU: 0x468E8, offset: 0x468E8, size: 0x8, addend: 0x0, symName: __ZN8nlohmann16json_abi_v3_11_36detail6concatINSt3__112basic_stringIcNS3_11char_traitsIcEENS3_9allocatorIcEEEEJRA12_KcPSA_EEET_DpOT0_, symObjAddr: 0x42290, symBinAddr: 0x100043C8C, symSize: 0xCC }
  - { offsetInCU: 0x4694F, offset: 0x4694F, size: 0x8, addend: 0x0, symName: __ZN8nlohmann16json_abi_v3_11_36detail11concat_intoINSt3__112basic_stringIcNS3_11char_traitsIcEENS3_9allocatorIcEEEERA15_KcJRKS9_cELi0EEEvRT_OT0_DpOT1_, symObjAddr: 0x424E8, symBinAddr: 0x100043EE4, symSize: 0x44 }
  - { offsetInCU: 0x469CF, offset: 0x469CF, size: 0x8, addend: 0x0, symName: __ZN8nlohmann16json_abi_v3_11_36detail11concat_intoINSt3__112basic_stringIcNS3_11char_traitsIcEENS3_9allocatorIcEEEERKS9_JcELi0EEEvRT_OT0_DpOT1_, symObjAddr: 0x4252C, symBinAddr: 0x100043F28, symSize: 0x3C }
  - { offsetInCU: 0x46A3A, offset: 0x46A3A, size: 0x8, addend: 0x0, symName: __ZN8nlohmann16json_abi_v3_11_36detail13concat_lengthIJA15_cNSt3__112basic_stringIcNS4_11char_traitsIcEENS4_9allocatorIcEEEEcEEEmPKcDpRKT_, symObjAddr: 0x42568, symBinAddr: 0x100043F64, symSize: 0x50 }
  - { offsetInCU: 0x46AAB, offset: 0x46AAB, size: 0x8, addend: 0x0, symName: __ZN8nlohmann16json_abi_v3_11_36detail11concat_intoINSt3__112basic_stringIcNS3_11char_traitsIcEENS3_9allocatorIcEEEEPKcJRA15_SA_S9_cELi0EEEvRT_OT0_DpOT1_, symObjAddr: 0x425B8, symBinAddr: 0x100043FB4, symSize: 0x50 }
  - { offsetInCU: 0x46B3F, offset: 0x46B3F, size: 0x8, addend: 0x0, symName: __ZN8nlohmann16json_abi_v3_11_36detail11concat_intoINSt3__112basic_stringIcNS3_11char_traitsIcEENS3_9allocatorIcEEEERA15_KcJS9_cELi0EEEvRT_OT0_DpOT1_, symObjAddr: 0x42608, symBinAddr: 0x100044004, symSize: 0x44 }
  - { offsetInCU: 0x46BBF, offset: 0x46BBF, size: 0x8, addend: 0x0, symName: __ZN8nlohmann16json_abi_v3_11_36detail11concat_intoINSt3__112basic_stringIcNS3_11char_traitsIcEENS3_9allocatorIcEEEERA12_KcJPSA_ELi0EEEvRT_OT0_DpOT1_, symObjAddr: 0x4264C, symBinAddr: 0x100044048, symSize: 0x3C }
  - { offsetInCU: 0x46C2A, offset: 0x46C2A, size: 0x8, addend: 0x0, symName: __ZN8nlohmann16json_abi_v3_11_36detail6concatINSt3__112basic_stringIcNS3_11char_traitsIcEENS3_9allocatorIcEEEEJRA29_KcS9_RA5_SA_S9_EEET_DpOT0_, symObjAddr: 0x48EB4, symBinAddr: 0x10004A8B0, symSize: 0xE4 }
  - { offsetInCU: 0x470B9, offset: 0x470B9, size: 0x8, addend: 0x0, symName: __ZN8nlohmann16json_abi_v3_11_36detail6concatINSt3__112basic_stringIcNS3_11char_traitsIcEENS3_9allocatorIcEEEEJRA39_KcS9_EEET_DpOT0_, symObjAddr: 0x490A8, symBinAddr: 0x10004AAA4, symSize: 0xCC }
  - { offsetInCU: 0x4711F, offset: 0x4711F, size: 0x8, addend: 0x0, symName: __ZN8nlohmann16json_abi_v3_11_36detail13concat_lengthIJNSt3__112basic_stringIcNS3_11char_traitsIcEENS3_9allocatorIcEEEEA5_cS9_EEEmPKcDpRKT_, symObjAddr: 0x491F0, symBinAddr: 0x10004ABEC, symSize: 0x50 }
  - { offsetInCU: 0x47190, offset: 0x47190, size: 0x8, addend: 0x0, symName: __ZN8nlohmann16json_abi_v3_11_36detail11concat_intoINSt3__112basic_stringIcNS3_11char_traitsIcEENS3_9allocatorIcEEEERA29_KcJS9_RA5_SA_S9_ELi0EEEvRT_OT0_DpOT1_, symObjAddr: 0x49240, symBinAddr: 0x10004AC3C, symSize: 0x4C }
  - { offsetInCU: 0x47223, offset: 0x47223, size: 0x8, addend: 0x0, symName: __ZN8nlohmann16json_abi_v3_11_36detail13concat_lengthINSt3__112basic_stringIcNS3_11char_traitsIcEENS3_9allocatorIcEEEEJA5_cS9_EEEmRKT_DpRKT0_, symObjAddr: 0x4928C, symBinAddr: 0x10004AC88, symSize: 0x48 }
  - { offsetInCU: 0x47289, offset: 0x47289, size: 0x8, addend: 0x0, symName: __ZN8nlohmann16json_abi_v3_11_36detail11concat_intoINSt3__112basic_stringIcNS3_11char_traitsIcEENS3_9allocatorIcEEEES9_JRA5_KcS9_ELi0EEEvRT_OT0_DpOT1_, symObjAddr: 0x492D4, symBinAddr: 0x10004ACD0, symSize: 0x44 }
  - { offsetInCU: 0x47309, offset: 0x47309, size: 0x8, addend: 0x0, symName: __ZN8nlohmann16json_abi_v3_11_36detail11concat_intoINSt3__112basic_stringIcNS3_11char_traitsIcEENS3_9allocatorIcEEEERA5_KcJS9_ELi0EEEvRT_OT0_DpOT1_, symObjAddr: 0x49318, symBinAddr: 0x10004AD14, symSize: 0x3C }
  - { offsetInCU: 0x47375, offset: 0x47375, size: 0x8, addend: 0x0, symName: __ZN8nlohmann16json_abi_v3_11_36detail11concat_intoINSt3__112basic_stringIcNS3_11char_traitsIcEENS3_9allocatorIcEEEERA39_KcJS9_ELi0EEEvRT_OT0_DpOT1_, symObjAddr: 0x49354, symBinAddr: 0x10004AD50, symSize: 0x3C }
  - { offsetInCU: 0x473E0, offset: 0x473E0, size: 0x8, addend: 0x0, symName: __ZN8nlohmann16json_abi_v3_11_36detail8to_charsIdEEPcS3_PKcT_, symObjAddr: 0x49A48, symBinAddr: 0x10004B444, symSize: 0x26C }
  - { offsetInCU: 0x49342, offset: 0x49342, size: 0x8, addend: 0x0, symName: __ZN8nlohmann16json_abi_v3_11_3rsERNSt3__113basic_istreamIcNS1_11char_traitsIcEEEERNS0_10basic_jsonINS1_3mapENS1_6vectorENS1_12basic_stringIcS4_NS1_9allocatorIcEEEEbxydSB_NS0_14adl_serializerENS9_IhNSB_IhEEEEvEE, symObjAddr: 0x5B3C, symBinAddr: 0x100007538, symSize: 0x120 }
  - { offsetInCU: 0x49727, offset: 0x49727, size: 0x8, addend: 0x0, symName: __ZN8nlohmann16json_abi_v3_11_36detail12static_constINS1_10to_json_fnEE5valueE, symObjAddr: 0x510D3, symBinAddr: 0x100052CAB, symSize: 0x0 }
  - { offsetInCU: 0x49740, offset: 0x49740, size: 0x8, addend: 0x0, symName: __ZNSt3__19__any_imp17__unique_typeinfoIdE4__idE, symObjAddr: 0x51108, symBinAddr: 0x100052CE0, symSize: 0x0 }
  - { offsetInCU: 0x4976B, offset: 0x4976B, size: 0x8, addend: 0x0, symName: __ZNSt3__19__any_imp17__unique_typeinfoINS_6vectorINS_12basic_stringIcNS_11char_traitsIcEENS_9allocatorIcEEEENS6_IS8_EEEEE4__idE, symObjAddr: 0x51164, symBinAddr: 0x100052D3C, symSize: 0x0 }
  - { offsetInCU: 0x4995E, offset: 0x4995E, size: 0x8, addend: 0x0, symName: __ZNSt3__19__any_imp17__unique_typeinfoINS_6vectorINS_3anyENS_9allocatorIS3_EEEEE4__idE, symObjAddr: 0x51198, symBinAddr: 0x100052D70, symSize: 0x0 }
  - { offsetInCU: 0x4ACB7, offset: 0x4ACB7, size: 0x8, addend: 0x0, symName: __ZN8nlohmann16json_abi_v3_11_36detail10serializerINS0_10basic_jsonINSt3__13mapENS4_6vectorENS4_12basic_stringIcNS4_11char_traitsIcEENS4_9allocatorIcEEEEbxydSA_NS0_14adl_serializerENS6_IhNSA_IhEEEEvEEE6decodeERhRjh, symObjAddr: 0x48CEC, symBinAddr: 0x10004A6E8, symSize: 0x180 }
  - { offsetInCU: 0x4ACD8, offset: 0x4ACD8, size: 0x8, addend: 0x0, symName: __ZZN8nlohmann16json_abi_v3_11_36detail10serializerINS0_10basic_jsonINSt3__13mapENS4_6vectorENS4_12basic_stringIcNS4_11char_traitsIcEENS4_9allocatorIcEEEEbxydSA_NS0_14adl_serializerENS6_IhNSA_IhEEEEvEEE6decodeERhRjhE5utf8d, symObjAddr: 0x5139D, symBinAddr: 0x100052F75, symSize: 0x0 }
  - { offsetInCU: 0x4AD71, offset: 0x4AD71, size: 0x8, addend: 0x0, symName: __ZN8nlohmann16json_abi_v3_11_36detail10serializerINS0_10basic_jsonINSt3__13mapENS4_6vectorENS4_12basic_stringIcNS4_11char_traitsIcEENS4_9allocatorIcEEEEbxydSA_NS0_14adl_serializerENS6_IhNSA_IhEEEEvEEE12dump_integerIhLi0EEEvT_, symObjAddr: 0x4834C, symBinAddr: 0x100049D48, symSize: 0x2C8 }
  - { offsetInCU: 0x4AD96, offset: 0x4AD96, size: 0x8, addend: 0x0, symName: __ZZN8nlohmann16json_abi_v3_11_36detail10serializerINS0_10basic_jsonINSt3__13mapENS4_6vectorENS4_12basic_stringIcNS4_11char_traitsIcEENS4_9allocatorIcEEEEbxydSA_NS0_14adl_serializerENS6_IhNSA_IhEEEEvEEE12dump_integerIhLi0EEEvT_E12digits_to_99, symObjAddr: 0x5152D, symBinAddr: 0x100053105, symSize: 0x0 }
  - { offsetInCU: 0x4AEB9, offset: 0x4AEB9, size: 0x8, addend: 0x0, symName: __ZN8nlohmann16json_abi_v3_11_36detail10serializerINS0_10basic_jsonINSt3__13mapENS4_6vectorENS4_12basic_stringIcNS4_11char_traitsIcEENS4_9allocatorIcEEEEbxydSA_NS0_14adl_serializerENS6_IhNSA_IhEEEEvEEE12dump_integerIyLi0EEEvT_, symObjAddr: 0x48684, symBinAddr: 0x10004A080, symSize: 0x2C4 }
  - { offsetInCU: 0x4AEDE, offset: 0x4AEDE, size: 0x8, addend: 0x0, symName: __ZZN8nlohmann16json_abi_v3_11_36detail10serializerINS0_10basic_jsonINSt3__13mapENS4_6vectorENS4_12basic_stringIcNS4_11char_traitsIcEENS4_9allocatorIcEEEEbxydSA_NS0_14adl_serializerENS6_IhNSA_IhEEEEvEEE12dump_integerIyLi0EEEvT_E12digits_to_99, symObjAddr: 0x515F5, symBinAddr: 0x1000531CD, symSize: 0x0 }
  - { offsetInCU: 0x4AF7D, offset: 0x4AF7D, size: 0x8, addend: 0x0, symName: __ZN8nlohmann16json_abi_v3_11_36detail10serializerINS0_10basic_jsonINSt3__13mapENS4_6vectorENS4_12basic_stringIcNS4_11char_traitsIcEENS4_9allocatorIcEEEEbxydSA_NS0_14adl_serializerENS6_IhNSA_IhEEEEvEEE12dump_integerIxLi0EEEvT_, symObjAddr: 0x4898C, symBinAddr: 0x10004A388, symSize: 0x2C4 }
  - { offsetInCU: 0x4AFA2, offset: 0x4AFA2, size: 0x8, addend: 0x0, symName: __ZZN8nlohmann16json_abi_v3_11_36detail10serializerINS0_10basic_jsonINSt3__13mapENS4_6vectorENS4_12basic_stringIcNS4_11char_traitsIcEENS4_9allocatorIcEEEEbxydSA_NS0_14adl_serializerENS6_IhNSA_IhEEEEvEEE12dump_integerIxLi0EEEvT_E12digits_to_99, symObjAddr: 0x516BD, symBinAddr: 0x100053295, symSize: 0x0 }
  - { offsetInCU: 0x4B041, offset: 0x4B041, size: 0x8, addend: 0x0, symName: __ZN8nlohmann16json_abi_v3_11_36detail10serializerINS0_10basic_jsonINSt3__13mapENS4_6vectorENS4_12basic_stringIcNS4_11char_traitsIcEENS4_9allocatorIcEEEEbxydSA_NS0_14adl_serializerENS6_IhNSA_IhEEEEvEEE10dump_floatEd, symObjAddr: 0x48C50, symBinAddr: 0x10004A64C, symSize: 0x6C }
  - { offsetInCU: 0x4B066, offset: 0x4B066, size: 0x8, addend: 0x0, symName: __ZZN8nlohmann16json_abi_v3_11_36detail10serializerINS0_10basic_jsonINSt3__13mapENS4_6vectorENS4_12basic_stringIcNS4_11char_traitsIcEENS4_9allocatorIcEEEEbxydSA_NS0_14adl_serializerENS6_IhNSA_IhEEEEvEEE10dump_floatEdE24is_ieee_single_or_double, symObjAddr: 0x51785, symBinAddr: 0x10005335D, symSize: 0x0 }
  - { offsetInCU: 0x4B683, offset: 0x4B683, size: 0x8, addend: 0x0, symName: __ZNSt3__16vectorIN8nlohmann16json_abi_v3_11_310basic_jsonINS_3mapES0_NS_12basic_stringIcNS_11char_traitsIcEENS_9allocatorIcEEEEbxydS8_NS2_14adl_serializerENS0_IhNS8_IhEEEEvEENS8_ISE_EEE26__swap_out_circular_bufferERNS_14__split_bufferISE_RSF_EE, symObjAddr: 0x9C58, symBinAddr: 0x10000B654, symSize: 0x110 }
  - { offsetInCU: 0x4B751, offset: 0x4B751, size: 0x8, addend: 0x0, symName: __ZNSt3__16vectorINS_12basic_stringIcNS_11char_traitsIcEENS_9allocatorIcEEEENS4_IS6_EEE26__swap_out_circular_bufferERNS_14__split_bufferIS6_RS7_EE, symObjAddr: 0xF43C, symBinAddr: 0x100010E38, symSize: 0x110 }
  - { offsetInCU: 0x4C106, offset: 0x4C106, size: 0x8, addend: 0x0, symName: __ZNSt3__16vectorI15_ForecastResultNS_9allocatorIS1_EEE26__swap_out_circular_bufferERNS_14__split_bufferIS1_RS3_EE, symObjAddr: 0x1FF44, symBinAddr: 0x100021940, symSize: 0x110 }
  - { offsetInCU: 0x4D66B, offset: 0x4D66B, size: 0x8, addend: 0x0, symName: __ZNSt3__16vectorINS_3anyENS_9allocatorIS1_EEE26__swap_out_circular_bufferERNS_14__split_bufferIS1_RS3_EE, symObjAddr: 0x243CC, symBinAddr: 0x100025DC8, symSize: 0x110 }
  - { offsetInCU: 0x4D83F, offset: 0x4D83F, size: 0x8, addend: 0x0, symName: __ZNSt3__16vectorI24_ForecastResultsByModuleNS_9allocatorIS1_EEE26__swap_out_circular_bufferERNS_14__split_bufferIS1_RS3_EE, symObjAddr: 0x2D9D0, symBinAddr: 0x10002F3CC, symSize: 0x110 }
  - { offsetInCU: 0x4DB32, offset: 0x4DB32, size: 0x8, addend: 0x0, symName: __ZNSt3__16vectorIcNS_9allocatorIcEEE26__swap_out_circular_bufferERNS_14__split_bufferIcRS2_EE, symObjAddr: 0x32374, symBinAddr: 0x100033D70, symSize: 0x110 }
  - { offsetInCU: 0x4DEAA, offset: 0x4DEAA, size: 0x8, addend: 0x0, symName: __ZNSt3__16vectorIPN8nlohmann16json_abi_v3_11_310basic_jsonINS_3mapES0_NS_12basic_stringIcNS_11char_traitsIcEENS_9allocatorIcEEEEbxydS8_NS2_14adl_serializerENS0_IhNS8_IhEEEEvEENS8_ISF_EEE26__swap_out_circular_bufferERNS_14__split_bufferISF_RSG_EE, symObjAddr: 0x3B85C, symBinAddr: 0x10003D258, symSize: 0x110 }
  - { offsetInCU: 0x50228, offset: 0x50228, size: 0x8, addend: 0x0, symName: __ZNSt3__112basic_stringIcNS_11char_traitsIcEENS_9allocatorIcEEEC1B8ue170006ILi0EEEPKc, symObjAddr: 0x0, symBinAddr: 0x1000019FC, symSize: 0x34 }
  - { offsetInCU: 0x50266, offset: 0x50266, size: 0x8, addend: 0x0, symName: __Z25chartInputPayload_to_jsonRKN8nlohmann16json_abi_v3_11_310basic_jsonINSt3__13mapENS2_6vectorENS2_12basic_stringIcNS2_11char_traitsIcEENS2_9allocatorIcEEEEbxydS8_NS0_14adl_serializerENS4_IhNS8_IhEEEEvEE, symObjAddr: 0x34, symBinAddr: 0x100001A30, symSize: 0x4B8 }
  - { offsetInCU: 0x504B0, offset: 0x504B0, size: 0x8, addend: 0x0, symName: __ZN18_ChartInputPayloadC1Ev, symObjAddr: 0x4EC, symBinAddr: 0x100001EE8, symSize: 0x2C }
  - { offsetInCU: 0x504F6, offset: 0x504F6, size: 0x8, addend: 0x0, symName: __ZNK8nlohmann16json_abi_v3_11_310basic_jsonINSt3__13mapENS2_6vectorENS2_12basic_stringIcNS2_11char_traitsIcEENS2_9allocatorIcEEEEbxydS8_NS0_14adl_serializerENS4_IhNS8_IhEEEEvE2atIRA19_KcLi0EEERKSE_OT_, symObjAddr: 0x518, symBinAddr: 0x100001F14, symSize: 0x24C }
  - { offsetInCU: 0x5054A, offset: 0x5054A, size: 0x8, addend: 0x0, symName: __ZNK8nlohmann16json_abi_v3_11_310basic_jsonINSt3__13mapENS2_6vectorENS2_12basic_stringIcNS2_11char_traitsIcEENS2_9allocatorIcEEEEbxydS8_NS0_14adl_serializerENS4_IhNS8_IhEEEEvE5beginEv, symObjAddr: 0x764, symBinAddr: 0x100002160, symSize: 0x2C }
  - { offsetInCU: 0x50570, offset: 0x50570, size: 0x8, addend: 0x0, symName: __ZNK8nlohmann16json_abi_v3_11_310basic_jsonINSt3__13mapENS2_6vectorENS2_12basic_stringIcNS2_11char_traitsIcEENS2_9allocatorIcEEEEbxydS8_NS0_14adl_serializerENS4_IhNS8_IhEEEEvE3endEv, symObjAddr: 0x790, symBinAddr: 0x10000218C, symSize: 0x2C }
  - { offsetInCU: 0x50596, offset: 0x50596, size: 0x8, addend: 0x0, symName: __ZNK8nlohmann16json_abi_v3_11_36detail9iter_implIKNS0_10basic_jsonINSt3__13mapENS4_6vectorENS4_12basic_stringIcNS4_11char_traitsIcEENS4_9allocatorIcEEEEbxydSA_NS0_14adl_serializerENS6_IhNSA_IhEEEEvEEEneISI_LDn0EEEbRKT_, symObjAddr: 0x7BC, symBinAddr: 0x1000021B8, symSize: 0x34 }
  - { offsetInCU: 0x505DA, offset: 0x505DA, size: 0x8, addend: 0x0, symName: __ZNK8nlohmann16json_abi_v3_11_36detail9iter_implIKNS0_10basic_jsonINSt3__13mapENS4_6vectorENS4_12basic_stringIcNS4_11char_traitsIcEENS4_9allocatorIcEEEEbxydSA_NS0_14adl_serializerENS6_IhNSA_IhEEEEvEEEdeEv, symObjAddr: 0x7F0, symBinAddr: 0x1000021EC, symSize: 0x32C }
  - { offsetInCU: 0x50600, offset: 0x50600, size: 0x8, addend: 0x0, symName: __ZNSt3__112basic_stringIcNS_11char_traitsIcEENS_9allocatorIcEEEC1B8ue170006Ev, symObjAddr: 0xB44, symBinAddr: 0x100002540, symSize: 0x2C }
  - { offsetInCU: 0x5062A, offset: 0x5062A, size: 0x8, addend: 0x0, symName: __ZNSt3__16vectorINS_12basic_stringIcNS_11char_traitsIcEENS_9allocatorIcEEEENS4_IS6_EEE9push_backB8ue170006ERKS6_, symObjAddr: 0xC88, symBinAddr: 0x100002684, symSize: 0x6C }
  - { offsetInCU: 0x50661, offset: 0x50661, size: 0x8, addend: 0x0, symName: __ZN8nlohmann16json_abi_v3_11_36detail9iter_implIKNS0_10basic_jsonINSt3__13mapENS4_6vectorENS4_12basic_stringIcNS4_11char_traitsIcEENS4_9allocatorIcEEEEbxydSA_NS0_14adl_serializerENS6_IhNSA_IhEEEEvEEEppEv, symObjAddr: 0xCF4, symBinAddr: 0x1000026F0, symSize: 0xE0 }
  - { offsetInCU: 0x506A0, offset: 0x506A0, size: 0x8, addend: 0x0, symName: __ZNK8nlohmann16json_abi_v3_11_310basic_jsonINSt3__13mapENS2_6vectorENS2_12basic_stringIcNS2_11char_traitsIcEENS2_9allocatorIcEEEEbxydS8_NS0_14adl_serializerENS4_IhNS8_IhEEEEvE2atIRA20_KcLi0EEERKSE_OT_, symObjAddr: 0xDFC, symBinAddr: 0x1000027F8, symSize: 0x24C }
  - { offsetInCU: 0x5070D, offset: 0x5070D, size: 0x8, addend: 0x0, symName: __ZNK8nlohmann16json_abi_v3_11_310basic_jsonINSt3__13mapENS2_6vectorENS2_12basic_stringIcNS2_11char_traitsIcEENS2_9allocatorIcEEEEbxydS8_NS0_14adl_serializerENS4_IhNS8_IhEEEEvE2atIRA18_KcLi0EEERKSE_OT_, symObjAddr: 0x1048, symBinAddr: 0x100002A44, symSize: 0x24C }
  - { offsetInCU: 0x5076C, offset: 0x5076C, size: 0x8, addend: 0x0, symName: __ZNK8nlohmann16json_abi_v3_11_310basic_jsonINSt3__13mapENS2_6vectorENS2_12basic_stringIcNS2_11char_traitsIcEENS2_9allocatorIcEEEEbxydS8_NS0_14adl_serializerENS4_IhNS8_IhEEEEvE2atIRA16_KcLi0EEERKSE_OT_, symObjAddr: 0x1294, symBinAddr: 0x100002C90, symSize: 0x24C }
  - { offsetInCU: 0x507C0, offset: 0x507C0, size: 0x8, addend: 0x0, symName: __ZNK8nlohmann16json_abi_v3_11_310basic_jsonINSt3__13mapENS2_6vectorENS2_12basic_stringIcNS2_11char_traitsIcEENS2_9allocatorIcEEEEbxydS8_NS0_14adl_serializerENS4_IhNS8_IhEEEEvE3getIbbEEDTcldtclL_ZNS2_7declvalIRKSE_EEDTclsr3stdE9__declvalIT_ELi0EEEvEE8get_implIT0_EtlNS0_6detail12priority_tagILj4EEEEEEv, symObjAddr: 0x14E0, symBinAddr: 0x100002EDC, symSize: 0x28 }
  - { offsetInCU: 0x50811, offset: 0x50811, size: 0x8, addend: 0x0, symName: __ZNK8nlohmann16json_abi_v3_11_310basic_jsonINSt3__13mapENS2_6vectorENS2_12basic_stringIcNS2_11char_traitsIcEENS2_9allocatorIcEEEEbxydS8_NS0_14adl_serializerENS4_IhNS8_IhEEEEvE2atIRA23_KcLi0EEERKSE_OT_, symObjAddr: 0x1508, symBinAddr: 0x100002F04, symSize: 0x24C }
  - { offsetInCU: 0x5087E, offset: 0x5087E, size: 0x8, addend: 0x0, symName: __ZNK8nlohmann16json_abi_v3_11_310basic_jsonINSt3__13mapENS2_6vectorENS2_12basic_stringIcNS2_11char_traitsIcEENS2_9allocatorIcEEEEbxydS8_NS0_14adl_serializerENS4_IhNS8_IhEEEEvE2atIRA10_KcLi0EEERKSE_OT_, symObjAddr: 0x1754, symBinAddr: 0x100003150, symSize: 0x24C }
  - { offsetInCU: 0x508D2, offset: 0x508D2, size: 0x8, addend: 0x0, symName: __ZN18_ChartInputPayloadD1Ev, symObjAddr: 0x19A0, symBinAddr: 0x10000339C, symSize: 0x2C }
  - { offsetInCU: 0x50C93, offset: 0x50C93, size: 0x8, addend: 0x0, symName: __ZN29AllWellsYearlyResultNewAsyncTC2Ev, symObjAddr: 0x19CC, symBinAddr: 0x1000033C8, symSize: 0xA8 }
  - { offsetInCU: 0x50CBE, offset: 0x50CBE, size: 0x8, addend: 0x0, symName: __ZN29AllWellsYearlyResultNewAsyncTC1Ev, symObjAddr: 0x1A74, symBinAddr: 0x100003470, symSize: 0x2C }
  - { offsetInCU: 0x50CE9, offset: 0x50CE9, size: 0x8, addend: 0x0, symName: __ZN29AllWellsYearlyResultNewAsyncTD2Ev, symObjAddr: 0x1AA0, symBinAddr: 0x10000349C, symSize: 0x44 }
  - { offsetInCU: 0x50D14, offset: 0x50D14, size: 0x8, addend: 0x0, symName: __ZN29AllWellsYearlyResultNewAsyncTD1Ev, symObjAddr: 0x1AE4, symBinAddr: 0x1000034E0, symSize: 0x2C }
  - { offsetInCU: 0x50D3F, offset: 0x50D3F, size: 0x8, addend: 0x0, symName: __ZN29AllWellsYearlyResultNewAsyncT5splitERKNSt3__112basic_stringIcNS0_11char_traitsIcEENS0_9allocatorIcEEEE, symObjAddr: 0x1B10, symBinAddr: 0x10000350C, symSize: 0x198 }
  - { offsetInCU: 0x50D9F, offset: 0x50D9F, size: 0x8, addend: 0x0, symName: __ZNSt3__16vectorINS_12basic_stringIcNS_11char_traitsIcEENS_9allocatorIcEEEENS4_IS6_EEEC1B8ue170006Ev, symObjAddr: 0x1CA8, symBinAddr: 0x1000036A4, symSize: 0x2C }
  - { offsetInCU: 0x50DC9, offset: 0x50DC9, size: 0x8, addend: 0x0, symName: __ZNKSt3__112basic_stringIcNS_11char_traitsIcEENS_9allocatorIcEEE4findB8ue170006ERKS5_m, symObjAddr: 0x1CD4, symBinAddr: 0x1000036D0, symSize: 0x78 }
  - { offsetInCU: 0x50E0F, offset: 0x50E0F, size: 0x8, addend: 0x0, symName: __ZNSt3__16vectorINS_12basic_stringIcNS_11char_traitsIcEENS_9allocatorIcEEEENS4_IS6_EEE9push_backB8ue170006EOS6_, symObjAddr: 0x1D4C, symBinAddr: 0x100003748, symSize: 0x6C }
  - { offsetInCU: 0x50E46, offset: 0x50E46, size: 0x8, addend: 0x0, symName: __ZNKSt3__112basic_stringIcNS_11char_traitsIcEENS_9allocatorIcEEE6substrB8ue170006Emm, symObjAddr: 0x1DB8, symBinAddr: 0x1000037B4, symSize: 0x68 }
  - { offsetInCU: 0x50E8A, offset: 0x50E8A, size: 0x8, addend: 0x0, symName: __ZNKSt3__112basic_stringIcNS_11char_traitsIcEENS_9allocatorIcEEE6lengthB8ue170006Ev, symObjAddr: 0x1E20, symBinAddr: 0x10000381C, symSize: 0x24 }
  - { offsetInCU: 0x50EB0, offset: 0x50EB0, size: 0x8, addend: 0x0, symName: __ZNSt3__16vectorINS_12basic_stringIcNS_11char_traitsIcEENS_9allocatorIcEEEENS4_IS6_EEED1B8ue170006Ev, symObjAddr: 0x1E44, symBinAddr: 0x100003840, symSize: 0x2C }
  - { offsetInCU: 0x50EDA, offset: 0x50EDA, size: 0x8, addend: 0x0, symName: __ZN29AllWellsYearlyResultNewAsyncT5splitERKNSt3__112basic_stringIcNS0_11char_traitsIcEENS0_9allocatorIcEEEES8_, symObjAddr: 0x1E70, symBinAddr: 0x10000386C, symSize: 0x194 }
  - { offsetInCU: 0x50F47, offset: 0x50F47, size: 0x8, addend: 0x0, symName: __Z7to_jsonRK5_YObj, symObjAddr: 0x2004, symBinAddr: 0x100003A00, symSize: 0xB68 }
  - { offsetInCU: 0x50F8E, offset: 0x50F8E, size: 0x8, addend: 0x0, symName: __ZN8nlohmann16json_abi_v3_11_36detail8json_refINS0_10basic_jsonINSt3__13mapENS4_6vectorENS4_12basic_stringIcNS4_11char_traitsIcEENS4_9allocatorIcEEEEbxydSA_NS0_14adl_serializerENS6_IhNSA_IhEEEEvEEEC1IJRA17_KcELi0EEEDpOT_, symObjAddr: 0x2B6C, symBinAddr: 0x100004568, symSize: 0x34 }
  - { offsetInCU: 0x50FD8, offset: 0x50FD8, size: 0x8, addend: 0x0, symName: __ZN8nlohmann16json_abi_v3_11_36detail8json_refINS0_10basic_jsonINSt3__13mapENS4_6vectorENS4_12basic_stringIcNS4_11char_traitsIcEENS4_9allocatorIcEEEEbxydSA_NS0_14adl_serializerENS6_IhNSA_IhEEEEvEEEC1IJRKSC_ELi0EEEDpOT_, symObjAddr: 0x2BA0, symBinAddr: 0x10000459C, symSize: 0x34 }
  - { offsetInCU: 0x51022, offset: 0x51022, size: 0x8, addend: 0x0, symName: __ZN8nlohmann16json_abi_v3_11_36detail8json_refINS0_10basic_jsonINSt3__13mapENS4_6vectorENS4_12basic_stringIcNS4_11char_traitsIcEENS4_9allocatorIcEEEEbxydSA_NS0_14adl_serializerENS6_IhNSA_IhEEEEvEEED1Ev, symObjAddr: 0x2BD4, symBinAddr: 0x1000045D0, symSize: 0x2C }
  - { offsetInCU: 0x5104C, offset: 0x5104C, size: 0x8, addend: 0x0, symName: __ZN8nlohmann16json_abi_v3_11_36detail8json_refINS0_10basic_jsonINSt3__13mapENS4_6vectorENS4_12basic_stringIcNS4_11char_traitsIcEENS4_9allocatorIcEEEEbxydSA_NS0_14adl_serializerENS6_IhNSA_IhEEEEvEEEC1ESt16initializer_listISH_E, symObjAddr: 0x2C00, symBinAddr: 0x1000045FC, symSize: 0x3C }
  - { offsetInCU: 0x5109E, offset: 0x5109E, size: 0x8, addend: 0x0, symName: __ZN8nlohmann16json_abi_v3_11_36detail8json_refINS0_10basic_jsonINSt3__13mapENS4_6vectorENS4_12basic_stringIcNS4_11char_traitsIcEENS4_9allocatorIcEEEEbxydSA_NS0_14adl_serializerENS6_IhNSA_IhEEEEvEEEC1IJRA3_KcELi0EEEDpOT_, symObjAddr: 0x2C3C, symBinAddr: 0x100004638, symSize: 0x34 }
  - { offsetInCU: 0x51101, offset: 0x51101, size: 0x8, addend: 0x0, symName: __ZN8nlohmann16json_abi_v3_11_36detail8json_refINS0_10basic_jsonINSt3__13mapENS4_6vectorENS4_12basic_stringIcNS4_11char_traitsIcEENS4_9allocatorIcEEEEbxydSA_NS0_14adl_serializerENS6_IhNSA_IhEEEEvEEEC1IJRA5_KcELi0EEEDpOT_, symObjAddr: 0x2C70, symBinAddr: 0x10000466C, symSize: 0x34 }
  - { offsetInCU: 0x51164, offset: 0x51164, size: 0x8, addend: 0x0, symName: __ZN8nlohmann16json_abi_v3_11_36detail8json_refINS0_10basic_jsonINSt3__13mapENS4_6vectorENS4_12basic_stringIcNS4_11char_traitsIcEENS4_9allocatorIcEEEEbxydSA_NS0_14adl_serializerENS6_IhNSA_IhEEEEvEEEC1IJRA6_KcELi0EEEDpOT_, symObjAddr: 0x2CA4, symBinAddr: 0x1000046A0, symSize: 0x34 }
  - { offsetInCU: 0x511B9, offset: 0x511B9, size: 0x8, addend: 0x0, symName: __ZN8nlohmann16json_abi_v3_11_36detail8json_refINS0_10basic_jsonINSt3__13mapENS4_6vectorENS4_12basic_stringIcNS4_11char_traitsIcEENS4_9allocatorIcEEEEbxydSA_NS0_14adl_serializerENS6_IhNSA_IhEEEEvEEEC1IJRA2_KcELi0EEEDpOT_, symObjAddr: 0x2CD8, symBinAddr: 0x1000046D4, symSize: 0x34 }
  - { offsetInCU: 0x51203, offset: 0x51203, size: 0x8, addend: 0x0, symName: __ZN8nlohmann16json_abi_v3_11_36detail8json_refINS0_10basic_jsonINSt3__13mapENS4_6vectorENS4_12basic_stringIcNS4_11char_traitsIcEENS4_9allocatorIcEEEEbxydSA_NS0_14adl_serializerENS6_IhNSA_IhEEEEvEEEC1IJRKNS6_IdNSA_IdEEEEELi0EEEDpOT_, symObjAddr: 0x2D0C, symBinAddr: 0x100004708, symSize: 0x34 }
  - { offsetInCU: 0x5124D, offset: 0x5124D, size: 0x8, addend: 0x0, symName: __ZN8nlohmann16json_abi_v3_11_36detail8json_refINS0_10basic_jsonINSt3__13mapENS4_6vectorENS4_12basic_stringIcNS4_11char_traitsIcEENS4_9allocatorIcEEEEbxydSA_NS0_14adl_serializerENS6_IhNSA_IhEEEEvEEEC1IJRKNS6_ISC_NSA_ISC_EEEEELi0EEEDpOT_, symObjAddr: 0x2D40, symBinAddr: 0x10000473C, symSize: 0x34 }
  - { offsetInCU: 0x51297, offset: 0x51297, size: 0x8, addend: 0x0, symName: __ZN8nlohmann16json_abi_v3_11_310basic_jsonINSt3__13mapENS2_6vectorENS2_12basic_stringIcNS2_11char_traitsIcEENS2_9allocatorIcEEEEbxydS8_NS0_14adl_serializerENS4_IhNS8_IhEEEEvEC1ESt16initializer_listINS0_6detail8json_refISE_EEEbNSG_7value_tE, symObjAddr: 0x2D74, symBinAddr: 0x100004770, symSize: 0x58 }
  - { offsetInCU: 0x512EE, offset: 0x512EE, size: 0x8, addend: 0x0, symName: __ZN29AllWellsYearlyResultNewAsyncT32getResultsTableForForecastModuleERKNSt3__112basic_stringIcNS0_11char_traitsIcEENS0_9allocatorIcEEEES6_S6_, symObjAddr: 0x2DCC, symBinAddr: 0x1000047C8, symSize: 0xB20 }
  - { offsetInCU: 0x513CF, offset: 0x513CF, size: 0x8, addend: 0x0, symName: __ZNSt3__16vectorI15_ForecastResultNS_9allocatorIS1_EEEC1B8ue170006Ev, symObjAddr: 0x38EC, symBinAddr: 0x1000052E8, symSize: 0x2C }
  - { offsetInCU: 0x513F9, offset: 0x513F9, size: 0x8, addend: 0x0, symName: __ZNKSt3__16vectorINS_12basic_stringIcNS_11char_traitsIcEENS_9allocatorIcEEEENS4_IS6_EEE4sizeB8ue170006Ev, symObjAddr: 0x3918, symBinAddr: 0x100005314, symSize: 0x28 }
  - { offsetInCU: 0x5141F, offset: 0x5141F, size: 0x8, addend: 0x0, symName: __ZNSt3__16vectorINS_12basic_stringIcNS_11char_traitsIcEENS_9allocatorIcEEEENS4_IS6_EEEixB8ue170006Em, symObjAddr: 0x3940, symBinAddr: 0x10000533C, symSize: 0x2C }
  - { offsetInCU: 0x51456, offset: 0x51456, size: 0x8, addend: 0x0, symName: __ZN15_ForecastResultC1Ev, symObjAddr: 0x396C, symBinAddr: 0x100005368, symSize: 0x2C }
  - { offsetInCU: 0x51482, offset: 0x51482, size: 0x8, addend: 0x0, symName: __ZNSt3__113basic_ostreamIcNS_11char_traitsIcEEElsB8ue170006EPFRS3_S4_E, symObjAddr: 0x39E0, symBinAddr: 0x1000053DC, symSize: 0x2C }
  - { offsetInCU: 0x514B6, offset: 0x514B6, size: 0x8, addend: 0x0, symName: __ZNSt3__16vectorI15_ForecastResultNS_9allocatorIS1_EEE9push_backB8ue170006ERKS1_, symObjAddr: 0x3A70, symBinAddr: 0x10000546C, symSize: 0x6C }
  - { offsetInCU: 0x514ED, offset: 0x514ED, size: 0x8, addend: 0x0, symName: __ZN15_ForecastResultD1Ev, symObjAddr: 0x3ADC, symBinAddr: 0x1000054D8, symSize: 0x2C }
  - { offsetInCU: 0x51519, offset: 0x51519, size: 0x8, addend: 0x0, symName: __ZNKSt3__16vectorI15_ForecastResultNS_9allocatorIS1_EEE5emptyB8ue170006Ev, symObjAddr: 0x3B08, symBinAddr: 0x100005504, symSize: 0x28 }
  - { offsetInCU: 0x5153F, offset: 0x5153F, size: 0x8, addend: 0x0, symName: __ZNSt3__16vectorI15_ForecastResultNS_9allocatorIS1_EEE8pop_backEv, symObjAddr: 0x3B30, symBinAddr: 0x10000552C, symSize: 0x2C }
  - { offsetInCU: 0x51567, offset: 0x51567, size: 0x8, addend: 0x0, symName: __ZNSt3__16vectorI15_ForecastResultNS_9allocatorIS1_EEED1B8ue170006Ev, symObjAddr: 0x3B5C, symBinAddr: 0x100005558, symSize: 0x2C }
  - { offsetInCU: 0x51591, offset: 0x51591, size: 0x8, addend: 0x0, symName: __ZN29AllWellsYearlyResultNewAsyncT32chartDataByModulesOrAggregateNewERKNSt3__16vectorINS0_12basic_stringIcNS0_11char_traitsIcEENS0_9allocatorIcEEEENS5_IS7_EEEESB_bSB_RKNS1_I24_ForecastResultsByModuleNS5_ISC_EEEESB_b, symObjAddr: 0x3B88, symBinAddr: 0x100005584, symSize: 0xAE4 }
  - { offsetInCU: 0x518DA, offset: 0x518DA, size: 0x8, addend: 0x0, symName: __ZNSt3__13mapINS_12basic_stringIcNS_11char_traitsIcEENS_9allocatorIcEEEENS0_IS6_NS0_IS6_NS0_IS6_NS0_IS6_NS_6vectorINS_3anyENS4_IS8_EEEENS_4lessIS6_EENS4_INS_4pairIKS6_SA_EEEEEESC_NS4_INSD_ISE_SH_EEEEEESC_NS4_INSD_ISE_SK_EEEEEESC_NS4_INSD_ISE_SN_EEEEEESC_NS4_INSD_ISE_SQ_EEEEEC1B8ue170006Ev, symObjAddr: 0x466C, symBinAddr: 0x100006068, symSize: 0x2C }
  - { offsetInCU: 0x51904, offset: 0x51904, size: 0x8, addend: 0x0, symName: __ZNKSt3__16vectorINS_12basic_stringIcNS_11char_traitsIcEENS_9allocatorIcEEEENS4_IS6_EEEixB8ue170006Em, symObjAddr: 0x4698, symBinAddr: 0x100006094, symSize: 0x2C }
  - { offsetInCU: 0x5193B, offset: 0x5193B, size: 0x8, addend: 0x0, symName: __ZNKSt3__16vectorINS_12basic_stringIcNS_11char_traitsIcEENS_9allocatorIcEEEENS4_IS6_EEE5beginB8ue170006Ev, symObjAddr: 0x46C4, symBinAddr: 0x1000060C0, symSize: 0x30 }
  - { offsetInCU: 0x51963, offset: 0x51963, size: 0x8, addend: 0x0, symName: __ZNKSt3__16vectorINS_12basic_stringIcNS_11char_traitsIcEENS_9allocatorIcEEEENS4_IS6_EEE3endB8ue170006Ev, symObjAddr: 0x46F4, symBinAddr: 0x1000060F0, symSize: 0x30 }
  - { offsetInCU: 0x5198B, offset: 0x5198B, size: 0x8, addend: 0x0, symName: __ZNKSt3__111__wrap_iterIPKNS_12basic_stringIcNS_11char_traitsIcEENS_9allocatorIcEEEEEdeB8ue170006Ev, symObjAddr: 0x4758, symBinAddr: 0x100006154, symSize: 0x18 }
  - { offsetInCU: 0x519B1, offset: 0x519B1, size: 0x8, addend: 0x0, symName: __ZNKSt3__16vectorI24_ForecastResultsByModuleNS_9allocatorIS1_EEE5beginB8ue170006Ev, symObjAddr: 0x490C, symBinAddr: 0x100006308, symSize: 0x30 }
  - { offsetInCU: 0x519D9, offset: 0x519D9, size: 0x8, addend: 0x0, symName: __ZNKSt3__16vectorI24_ForecastResultsByModuleNS_9allocatorIS1_EEE3endB8ue170006Ev, symObjAddr: 0x493C, symBinAddr: 0x100006338, symSize: 0x30 }
  - { offsetInCU: 0x51A01, offset: 0x51A01, size: 0x8, addend: 0x0, symName: __ZNKSt3__111__wrap_iterIPK24_ForecastResultsByModuleEdeB8ue170006Ev, symObjAddr: 0x49A0, symBinAddr: 0x10000639C, symSize: 0x18 }
  - { offsetInCU: 0x51A27, offset: 0x51A27, size: 0x8, addend: 0x0, symName: __ZNSt3__16vectorI15_ForecastResultNS_9allocatorIS1_EEE5beginB8ue170006Ev, symObjAddr: 0x4B00, symBinAddr: 0x1000064FC, symSize: 0x30 }
  - { offsetInCU: 0x51A4F, offset: 0x51A4F, size: 0x8, addend: 0x0, symName: __ZNSt3__16vectorI15_ForecastResultNS_9allocatorIS1_EEE3endB8ue170006Ev, symObjAddr: 0x4B30, symBinAddr: 0x10000652C, symSize: 0x30 }
  - { offsetInCU: 0x51A77, offset: 0x51A77, size: 0x8, addend: 0x0, symName: __ZNKSt3__111__wrap_iterIP15_ForecastResultEdeB8ue170006Ev, symObjAddr: 0x4B94, symBinAddr: 0x100006590, symSize: 0x18 }
  - { offsetInCU: 0x51A9D, offset: 0x51A9D, size: 0x8, addend: 0x0, symName: __ZNSt3__111__wrap_iterIP15_ForecastResultEppB8ue170006Ev, symObjAddr: 0x4BEC, symBinAddr: 0x1000065E8, symSize: 0x20 }
  - { offsetInCU: 0x51AC3, offset: 0x51AC3, size: 0x8, addend: 0x0, symName: __ZNSt3__16vectorINS_3anyENS_9allocatorIS1_EEEC1B8ue170006Ev, symObjAddr: 0x4C0C, symBinAddr: 0x100006608, symSize: 0x2C }
  - { offsetInCU: 0x51AED, offset: 0x51AED, size: 0x8, addend: 0x0, symName: __ZNSt3__16vectorINS_3anyENS_9allocatorIS1_EEE9push_backB8ue170006EOS1_, symObjAddr: 0x4C38, symBinAddr: 0x100006634, symSize: 0x6C }
  - { offsetInCU: 0x51B24, offset: 0x51B24, size: 0x8, addend: 0x0, symName: __ZNK15_ForecastResult17getVariableByNameERKNSt3__112basic_stringIcNS0_11char_traitsIcEENS0_9allocatorIcEEEE, symObjAddr: 0x4CA4, symBinAddr: 0x1000066A0, symSize: 0x1EC }
  - { offsetInCU: 0x51B5E, offset: 0x51B5E, size: 0x8, addend: 0x0, symName: __ZNSt3__13anyC1B8ue170006IddvEEOT_, symObjAddr: 0x4E90, symBinAddr: 0x10000688C, symSize: 0x34 }
  - { offsetInCU: 0x51BAA, offset: 0x51BAA, size: 0x8, addend: 0x0, symName: __ZNSt3__13anyD1B8ue170006Ev, symObjAddr: 0x4EC4, symBinAddr: 0x1000068C0, symSize: 0x2C }
  - { offsetInCU: 0x51BD4, offset: 0x51BD4, size: 0x8, addend: 0x0, symName: __ZNSt3__13mapINS_12basic_stringIcNS_11char_traitsIcEENS_9allocatorIcEEEENS0_IS6_NS0_IS6_NS0_IS6_NS0_IS6_NS_6vectorINS_3anyENS4_IS8_EEEENS_4lessIS6_EENS4_INS_4pairIKS6_SA_EEEEEESC_NS4_INSD_ISE_SH_EEEEEESC_NS4_INSD_ISE_SK_EEEEEESC_NS4_INSD_ISE_SN_EEEEEESC_NS4_INSD_ISE_SQ_EEEEEixERSE_, symObjAddr: 0x4EF0, symBinAddr: 0x1000068EC, symSize: 0x80 }
  - { offsetInCU: 0x51C0B, offset: 0x51C0B, size: 0x8, addend: 0x0, symName: __ZNSt3__13mapINS_12basic_stringIcNS_11char_traitsIcEENS_9allocatorIcEEEENS0_IS6_NS0_IS6_NS0_IS6_NS_6vectorINS_3anyENS4_IS8_EEEENS_4lessIS6_EENS4_INS_4pairIKS6_SA_EEEEEESC_NS4_INSD_ISE_SH_EEEEEESC_NS4_INSD_ISE_SK_EEEEEESC_NS4_INSD_ISE_SN_EEEEEixERSE_, symObjAddr: 0x4F70, symBinAddr: 0x10000696C, symSize: 0x80 }
  - { offsetInCU: 0x51C42, offset: 0x51C42, size: 0x8, addend: 0x0, symName: __ZNSt3__13mapINS_12basic_stringIcNS_11char_traitsIcEENS_9allocatorIcEEEENS0_IS6_NS0_IS6_NS_6vectorINS_3anyENS4_IS8_EEEENS_4lessIS6_EENS4_INS_4pairIKS6_SA_EEEEEESC_NS4_INSD_ISE_SH_EEEEEESC_NS4_INSD_ISE_SK_EEEEEixERSE_, symObjAddr: 0x4FF0, symBinAddr: 0x1000069EC, symSize: 0x80 }
  - { offsetInCU: 0x51C79, offset: 0x51C79, size: 0x8, addend: 0x0, symName: __ZNSt3__13mapINS_12basic_stringIcNS_11char_traitsIcEENS_9allocatorIcEEEENS0_IS6_NS_6vectorINS_3anyENS4_IS8_EEEENS_4lessIS6_EENS4_INS_4pairIKS6_SA_EEEEEESC_NS4_INSD_ISE_SH_EEEEEixERSE_, symObjAddr: 0x5070, symBinAddr: 0x100006A6C, symSize: 0x80 }
  - { offsetInCU: 0x51CB0, offset: 0x51CB0, size: 0x8, addend: 0x0, symName: __ZNSt3__13mapINS_12basic_stringIcNS_11char_traitsIcEENS_9allocatorIcEEEENS_6vectorINS_3anyENS4_IS8_EEEENS_4lessIS6_EENS4_INS_4pairIKS6_SA_EEEEEixEOS6_, symObjAddr: 0x50F0, symBinAddr: 0x100006AEC, symSize: 0x80 }
  - { offsetInCU: 0x51CE7, offset: 0x51CE7, size: 0x8, addend: 0x0, symName: __ZNSt3__13anyC1B8ue170006IRNS_6vectorINS_12basic_stringIcNS_11char_traitsIcEENS_9allocatorIcEEEENS6_IS8_EEEESA_vEEOT_, symObjAddr: 0x5170, symBinAddr: 0x100006B6C, symSize: 0x34 }
  - { offsetInCU: 0x51D33, offset: 0x51D33, size: 0x8, addend: 0x0, symName: __ZNSt3__13anyC1B8ue170006IRNS_6vectorIS0_NS_9allocatorIS0_EEEES5_vEEOT_, symObjAddr: 0x51A4, symBinAddr: 0x100006BA0, symSize: 0x34 }
  - { offsetInCU: 0x51D7F, offset: 0x51D7F, size: 0x8, addend: 0x0, symName: __ZNSt3__16vectorINS_3anyENS_9allocatorIS1_EEED1B8ue170006Ev, symObjAddr: 0x51D8, symBinAddr: 0x100006BD4, symSize: 0x2C }
  - { offsetInCU: 0x51DA9, offset: 0x51DA9, size: 0x8, addend: 0x0, symName: __ZNSt3__111__wrap_iterIPK24_ForecastResultsByModuleEppB8ue170006Ev, symObjAddr: 0x5204, symBinAddr: 0x100006C00, symSize: 0x20 }
  - { offsetInCU: 0x51DCF, offset: 0x51DCF, size: 0x8, addend: 0x0, symName: __ZNSt3__111__wrap_iterIPKNS_12basic_stringIcNS_11char_traitsIcEENS_9allocatorIcEEEEEppB8ue170006Ev, symObjAddr: 0x5224, symBinAddr: 0x100006C20, symSize: 0x20 }
  - { offsetInCU: 0x51DF5, offset: 0x51DF5, size: 0x8, addend: 0x0, symName: __ZNSt3__13mapINS_12basic_stringIcNS_11char_traitsIcEENS_9allocatorIcEEEENS0_IS6_NS0_IS6_NS0_IS6_NS0_IS6_NS_6vectorINS_3anyENS4_IS8_EEEENS_4lessIS6_EENS4_INS_4pairIKS6_SA_EEEEEESC_NS4_INSD_ISE_SH_EEEEEESC_NS4_INSD_ISE_SK_EEEEEESC_NS4_INSD_ISE_SN_EEEEEESC_NS4_INSD_ISE_SQ_EEEEED1B8ue170006Ev, symObjAddr: 0x5244, symBinAddr: 0x100006C40, symSize: 0x2C }
  - { offsetInCU: 0x51E1E, offset: 0x51E1E, size: 0x8, addend: 0x0, symName: __Z20parseForecastResultsRKN8nlohmann16json_abi_v3_11_310basic_jsonINSt3__13mapENS2_6vectorENS2_12basic_stringIcNS2_11char_traitsIcEENS2_9allocatorIcEEEEbxydS8_NS0_14adl_serializerENS4_IhNS8_IhEEEEvEE, symObjAddr: 0x5270, symBinAddr: 0x100006C6C, symSize: 0x360 }
  - { offsetInCU: 0x51EBC, offset: 0x51EBC, size: 0x8, addend: 0x0, symName: __ZNSt3__16vectorI24_ForecastResultsByModuleNS_9allocatorIS1_EEEC1B8ue170006Ev, symObjAddr: 0x55D0, symBinAddr: 0x100006FCC, symSize: 0x2C }
  - { offsetInCU: 0x51EEC, offset: 0x51EEC, size: 0x8, addend: 0x0, symName: __ZN24_ForecastResultsByModuleC1Ev, symObjAddr: 0x55FC, symBinAddr: 0x100006FF8, symSize: 0x2C }
  - { offsetInCU: 0x51F19, offset: 0x51F19, size: 0x8, addend: 0x0, symName: __ZNK8nlohmann16json_abi_v3_11_310basic_jsonINSt3__13mapENS2_6vectorENS2_12basic_stringIcNS2_11char_traitsIcEENS2_9allocatorIcEEEEbxydS8_NS0_14adl_serializerENS4_IhNS8_IhEEEEvEixIKcEERKSE_PT_, symObjAddr: 0x5628, symBinAddr: 0x100007024, symSize: 0x78 }
  - { offsetInCU: 0x51F57, offset: 0x51F57, size: 0x8, addend: 0x0, symName: __ZNK8nlohmann16json_abi_v3_11_310basic_jsonINSt3__13mapENS2_6vectorENS2_12basic_stringIcNS2_11char_traitsIcEENS2_9allocatorIcEEEEbxydS8_NS0_14adl_serializerENS4_IhNS8_IhEEEEvE3getISA_SA_EEDTcldtclL_ZNS2_7declvalIRKSE_EEDTclsr3stdE9__declvalIT_ELi0EEEvEE8get_implIT0_EtlNS0_6detail12priority_tagILj4EEEEEEv, symObjAddr: 0x56A0, symBinAddr: 0x10000709C, symSize: 0x2C }
  - { offsetInCU: 0x51F8F, offset: 0x51F8F, size: 0x8, addend: 0x0, symName: __ZNSt3__112basic_stringIcNS_11char_traitsIcEENS_9allocatorIcEEEaSB8ue170006EOS5_, symObjAddr: 0x56CC, symBinAddr: 0x1000070C8, symSize: 0x34 }
  - { offsetInCU: 0x51FC4, offset: 0x51FC4, size: 0x8, addend: 0x0, symName: __ZNSt3__16vectorI24_ForecastResultsByModuleNS_9allocatorIS1_EEE9push_backB8ue170006ERKS1_, symObjAddr: 0x5700, symBinAddr: 0x1000070FC, symSize: 0x6C }
  - { offsetInCU: 0x51FFB, offset: 0x51FFB, size: 0x8, addend: 0x0, symName: __ZN24_ForecastResultsByModuleD1Ev, symObjAddr: 0x576C, symBinAddr: 0x100007168, symSize: 0x2C }
  - { offsetInCU: 0x52028, offset: 0x52028, size: 0x8, addend: 0x0, symName: __ZNSt3__16vectorI24_ForecastResultsByModuleNS_9allocatorIS1_EEED1B8ue170006Ev, symObjAddr: 0x5798, symBinAddr: 0x100007194, symSize: 0x2C }
  - { offsetInCU: 0x52051, offset: 0x52051, size: 0x8, addend: 0x0, symName: __Z12ReadJsonFileNSt3__112basic_stringIcNS_11char_traitsIcEENS_9allocatorIcEEEE, symObjAddr: 0x57C4, symBinAddr: 0x1000071C0, symSize: 0x194 }
  - { offsetInCU: 0x5214F, offset: 0x5214F, size: 0x8, addend: 0x0, symName: __ZNSt3__114basic_ifstreamIcNS_11char_traitsIcEEEC1ERKNS_12basic_stringIcS2_NS_9allocatorIcEEEEj, symObjAddr: 0x5958, symBinAddr: 0x100007354, symSize: 0x16C }
  - { offsetInCU: 0x52199, offset: 0x52199, size: 0x8, addend: 0x0, symName: __ZNKSt3__114basic_ifstreamIcNS_11char_traitsIcEEE7is_openEv, symObjAddr: 0x5AC4, symBinAddr: 0x1000074C0, symSize: 0x2C }
  - { offsetInCU: 0x521C1, offset: 0x521C1, size: 0x8, addend: 0x0, symName: __ZN8nlohmann16json_abi_v3_11_310basic_jsonINSt3__13mapENS2_6vectorENS2_12basic_stringIcNS2_11char_traitsIcEENS2_9allocatorIcEEEEbxydS8_NS0_14adl_serializerENS4_IhNS8_IhEEEEvEC1EDn, symObjAddr: 0x5AF0, symBinAddr: 0x1000074EC, symSize: 0x4C }
  - { offsetInCU: 0x521F7, offset: 0x521F7, size: 0x8, addend: 0x0, symName: __ZNSt3__114basic_ifstreamIcNS_11char_traitsIcEEE5closeEv, symObjAddr: 0x5C5C, symBinAddr: 0x100007658, symSize: 0x58 }
  - { offsetInCU: 0x5221F, offset: 0x5221F, size: 0x8, addend: 0x0, symName: __ZN8nlohmann16json_abi_v3_11_310basic_jsonINSt3__13mapENS2_6vectorENS2_12basic_stringIcNS2_11char_traitsIcEENS2_9allocatorIcEEEEbxydS8_NS0_14adl_serializerENS4_IhNS8_IhEEEEvED1Ev, symObjAddr: 0x5CB4, symBinAddr: 0x1000076B0, symSize: 0x2C }
  - { offsetInCU: 0x5224F, offset: 0x5224F, size: 0x8, addend: 0x0, symName: __ZNSt3__114basic_ifstreamIcNS_11char_traitsIcEEED1Ev, symObjAddr: 0x5CE0, symBinAddr: 0x1000076DC, symSize: 0x40 }
  - { offsetInCU: 0x5227B, offset: 0x5227B, size: 0x8, addend: 0x0, symName: __Z14export_to_fileRKN8nlohmann16json_abi_v3_11_310basic_jsonINSt3__13mapENS2_6vectorENS2_12basic_stringIcNS2_11char_traitsIcEENS2_9allocatorIcEEEEbxydS8_NS0_14adl_serializerENS4_IhNS8_IhEEEEvEERKSA_, symObjAddr: 0x5D20, symBinAddr: 0x10000771C, symSize: 0x1A8 }
  - { offsetInCU: 0x522E0, offset: 0x522E0, size: 0x8, addend: 0x0, symName: __ZNSt3__114basic_ofstreamIcNS_11char_traitsIcEEEC1ERKNS_12basic_stringIcS2_NS_9allocatorIcEEEEj, symObjAddr: 0x5EC8, symBinAddr: 0x1000078C4, symSize: 0x16C }
  - { offsetInCU: 0x5232A, offset: 0x5232A, size: 0x8, addend: 0x0, symName: __ZNKSt3__114basic_ofstreamIcNS_11char_traitsIcEEE7is_openEv, symObjAddr: 0x6034, symBinAddr: 0x100007A30, symSize: 0x2C }
  - { offsetInCU: 0x52352, offset: 0x52352, size: 0x8, addend: 0x0, symName: __ZNK8nlohmann16json_abi_v3_11_310basic_jsonINSt3__13mapENS2_6vectorENS2_12basic_stringIcNS2_11char_traitsIcEENS2_9allocatorIcEEEEbxydS8_NS0_14adl_serializerENS4_IhNS8_IhEEEEvE4dumpEicbNS0_6detail15error_handler_tE, symObjAddr: 0x60AC, symBinAddr: 0x100007AA8, symSize: 0x1F4 }
  - { offsetInCU: 0x523DA, offset: 0x523DA, size: 0x8, addend: 0x0, symName: __ZNSt3__114basic_ofstreamIcNS_11char_traitsIcEEE5closeEv, symObjAddr: 0x62A0, symBinAddr: 0x100007C9C, symSize: 0x58 }
  - { offsetInCU: 0x52408, offset: 0x52408, size: 0x8, addend: 0x0, symName: __ZNSt3__114basic_ofstreamIcNS_11char_traitsIcEEED1Ev, symObjAddr: 0x62F8, symBinAddr: 0x100007CF4, symSize: 0x40 }
  - { offsetInCU: 0x52435, offset: 0x52435, size: 0x8, addend: 0x0, symName: _main, symObjAddr: 0x6338, symBinAddr: 0x100007D34, symSize: 0x460 }
  - { offsetInCU: 0x52503, offset: 0x52503, size: 0x8, addend: 0x0, symName: __ZNSt3__16vectorINS_12basic_stringIcNS_11char_traitsIcEENS_9allocatorIcEEEENS4_IS6_EEEC1ERKS8_, symObjAddr: 0x6798, symBinAddr: 0x100008194, symSize: 0x34 }
  - { offsetInCU: 0x5253E, offset: 0x5253E, size: 0x8, addend: 0x0, symName: __ZN18_ChartInputPayloadC2Ev, symObjAddr: 0x67CC, symBinAddr: 0x1000081C8, symSize: 0x50 }
  - { offsetInCU: 0x5256B, offset: 0x5256B, size: 0x8, addend: 0x0, symName: __ZNK8nlohmann16json_abi_v3_11_310basic_jsonINSt3__13mapENS2_6vectorENS2_12basic_stringIcNS2_11char_traitsIcEENS2_9allocatorIcEEEEbxydS8_NS0_14adl_serializerENS4_IhNS8_IhEEEEvE8get_implIbLi0EEET_NS0_6detail12priority_tagILj0EEE, symObjAddr: 0x681C, symBinAddr: 0x100008218, symSize: 0x34 }
  - { offsetInCU: 0x525BB, offset: 0x525BB, size: 0x8, addend: 0x0, symName: __ZN8nlohmann16json_abi_v3_11_314adl_serializerIbvE9from_jsonIRKNS0_10basic_jsonINSt3__13mapENS5_6vectorENS5_12basic_stringIcNS5_11char_traitsIcEENS5_9allocatorIcEEEEbxydSB_S1_NS7_IhNSB_IhEEEEvEEbEEDTcmclL_ZNS0_9from_jsonEEclsr3stdE7forwardIT_Efp_Efp0_Ecvv_EEOSJ_RT0_, symObjAddr: 0x6850, symBinAddr: 0x10000824C, symSize: 0x34 }
  - { offsetInCU: 0x52606, offset: 0x52606, size: 0x8, addend: 0x0, symName: __ZNK8nlohmann16json_abi_v3_11_36detail12from_json_fnclINS0_10basic_jsonINSt3__13mapENS5_6vectorENS5_12basic_stringIcNS5_11char_traitsIcEENS5_9allocatorIcEEEEbxydSB_NS0_14adl_serializerENS7_IhNSB_IhEEEEvEERbEEDTcl9from_jsonfp_clsr3stdE7forwardIT0_Efp0_EEERKT_OSJ_, symObjAddr: 0x6884, symBinAddr: 0x100008280, symSize: 0x30 }
  - { offsetInCU: 0x5265C, offset: 0x5265C, size: 0x8, addend: 0x0, symName: __ZNK8nlohmann16json_abi_v3_11_310basic_jsonINSt3__13mapENS2_6vectorENS2_12basic_stringIcNS2_11char_traitsIcEENS2_9allocatorIcEEEEbxydS8_NS0_14adl_serializerENS4_IhNS8_IhEEEEvE10is_booleanEv, symObjAddr: 0x69D0, symBinAddr: 0x1000083CC, symSize: 0x24 }
  - { offsetInCU: 0x52699, offset: 0x52699, size: 0x8, addend: 0x0, symName: __ZN8nlohmann16json_abi_v3_11_36detail10type_error6createIPKNS0_10basic_jsonINSt3__13mapENS5_6vectorENS5_12basic_stringIcNS5_11char_traitsIcEENS5_9allocatorIcEEEEbxydSB_NS0_14adl_serializerENS7_IhNSB_IhEEEEvEELi0EEES2_iRKSD_T_, symObjAddr: 0x69F4, symBinAddr: 0x1000083F0, symSize: 0x130 }
  - { offsetInCU: 0x526F9, offset: 0x526F9, size: 0x8, addend: 0x0, symName: __ZNK8nlohmann16json_abi_v3_11_310basic_jsonINSt3__13mapENS2_6vectorENS2_12basic_stringIcNS2_11char_traitsIcEENS2_9allocatorIcEEEEbxydS8_NS0_14adl_serializerENS4_IhNS8_IhEEEEvE9type_nameEv, symObjAddr: 0x6BF0, symBinAddr: 0x1000085EC, symSize: 0xD8 }
  - { offsetInCU: 0x5271F, offset: 0x5271F, size: 0x8, addend: 0x0, symName: __ZN8nlohmann16json_abi_v3_11_36detail10type_errorD1Ev, symObjAddr: 0x6CF0, symBinAddr: 0x1000086EC, symSize: 0x2C }
  - { offsetInCU: 0x5274C, offset: 0x5274C, size: 0x8, addend: 0x0, symName: __ZNK8nlohmann16json_abi_v3_11_310basic_jsonINSt3__13mapENS2_6vectorENS2_12basic_stringIcNS2_11char_traitsIcEENS2_9allocatorIcEEEEbxydS8_NS0_14adl_serializerENS4_IhNS8_IhEEEEvE7get_ptrIPKbLi0EEEDTcldtclL_ZNS2_7declvalIRKSE_EEDTclsr3stdE9__declvalIT_ELi0EEEvEE12get_impl_ptrclsr3stdE7declvalISL_EEEEv, symObjAddr: 0x6D1C, symBinAddr: 0x100008718, symSize: 0x28 }
  - { offsetInCU: 0x52781, offset: 0x52781, size: 0x8, addend: 0x0, symName: __ZN8nlohmann16json_abi_v3_11_36detail9exception4nameERKNSt3__112basic_stringIcNS3_11char_traitsIcEENS3_9allocatorIcEEEEi, symObjAddr: 0x6E1C, symBinAddr: 0x100008818, symSize: 0xA0 }
  - { offsetInCU: 0x527B4, offset: 0x527B4, size: 0x8, addend: 0x0, symName: __ZN8nlohmann16json_abi_v3_11_36detail9exception11diagnosticsINS0_10basic_jsonINSt3__13mapENS5_6vectorENS5_12basic_stringIcNS5_11char_traitsIcEENS5_9allocatorIcEEEEbxydSB_NS0_14adl_serializerENS7_IhNSB_IhEEEEvEEEESD_PKT_, symObjAddr: 0x6EBC, symBinAddr: 0x1000088B8, symSize: 0x2C }
  - { offsetInCU: 0x527E1, offset: 0x527E1, size: 0x8, addend: 0x0, symName: __ZNKSt3__112basic_stringIcNS_11char_traitsIcEENS_9allocatorIcEEE5c_strB8ue170006Ev, symObjAddr: 0x6EE8, symBinAddr: 0x1000088E4, symSize: 0x24 }
  - { offsetInCU: 0x52807, offset: 0x52807, size: 0x8, addend: 0x0, symName: __ZN8nlohmann16json_abi_v3_11_36detail10type_errorC1EiPKc, symObjAddr: 0x6F0C, symBinAddr: 0x100008908, symSize: 0x3C }
  - { offsetInCU: 0x5284F, offset: 0x5284F, size: 0x8, addend: 0x0, symName: __ZNKSt3__112basic_stringIcNS_11char_traitsIcEENS_9allocatorIcEEE4sizeB8ue170006Ev, symObjAddr: 0x6FD4, symBinAddr: 0x1000089D0, symSize: 0x54 }
  - { offsetInCU: 0x52875, offset: 0x52875, size: 0x8, addend: 0x0, symName: __ZNKSt3__112basic_stringIcNS_11char_traitsIcEENS_9allocatorIcEEE9__is_longB8ue170006Ev, symObjAddr: 0x7068, symBinAddr: 0x100008A64, symSize: 0x38 }
  - { offsetInCU: 0x5289B, offset: 0x5289B, size: 0x8, addend: 0x0, symName: __ZNKSt3__112basic_stringIcNS_11char_traitsIcEENS_9allocatorIcEEE15__get_long_sizeB8ue170006Ev, symObjAddr: 0x70A0, symBinAddr: 0x100008A9C, symSize: 0x28 }
  - { offsetInCU: 0x528C1, offset: 0x528C1, size: 0x8, addend: 0x0, symName: __ZNKSt3__112basic_stringIcNS_11char_traitsIcEENS_9allocatorIcEEE16__get_short_sizeB8ue170006Ev, symObjAddr: 0x70C8, symBinAddr: 0x100008AC4, symSize: 0x34 }
  - { offsetInCU: 0x528E7, offset: 0x528E7, size: 0x8, addend: 0x0, symName: __ZNKSt3__117__compressed_pairINS_12basic_stringIcNS_11char_traitsIcEENS_9allocatorIcEEE5__repES5_E5firstB8ue170006Ev, symObjAddr: 0x70FC, symBinAddr: 0x100008AF8, symSize: 0x24 }
  - { offsetInCU: 0x5290D, offset: 0x5290D, size: 0x8, addend: 0x0, symName: __ZNKSt3__122__compressed_pair_elemINS_12basic_stringIcNS_11char_traitsIcEENS_9allocatorIcEEE5__repELi0ELb0EE5__getB8ue170006Ev, symObjAddr: 0x7120, symBinAddr: 0x100008B1C, symSize: 0x14 }
  - { offsetInCU: 0x52933, offset: 0x52933, size: 0x8, addend: 0x0, symName: __ZNSt3__112basic_stringIcNS_11char_traitsIcEENS_9allocatorIcEEE6appendB8ue170006ERKS5_, symObjAddr: 0x7174, symBinAddr: 0x100008B70, symSize: 0x4C }
  - { offsetInCU: 0x52968, offset: 0x52968, size: 0x8, addend: 0x0, symName: __ZNKSt3__112basic_stringIcNS_11char_traitsIcEENS_9allocatorIcEEE4dataB8ue170006Ev, symObjAddr: 0x71FC, symBinAddr: 0x100008BF8, symSize: 0x28 }
  - { offsetInCU: 0x5298E, offset: 0x5298E, size: 0x8, addend: 0x0, symName: __ZNKSt3__112basic_stringIcNS_11char_traitsIcEENS_9allocatorIcEEE13__get_pointerB8ue170006Ev, symObjAddr: 0x7238, symBinAddr: 0x100008C34, symSize: 0x54 }
  - { offsetInCU: 0x529B4, offset: 0x529B4, size: 0x8, addend: 0x0, symName: __ZNKSt3__112basic_stringIcNS_11char_traitsIcEENS_9allocatorIcEEE18__get_long_pointerB8ue170006Ev, symObjAddr: 0x728C, symBinAddr: 0x100008C88, symSize: 0x28 }
  - { offsetInCU: 0x529DA, offset: 0x529DA, size: 0x8, addend: 0x0, symName: __ZNKSt3__112basic_stringIcNS_11char_traitsIcEENS_9allocatorIcEEE19__get_short_pointerB8ue170006Ev, symObjAddr: 0x72B4, symBinAddr: 0x100008CB0, symSize: 0x28 }
  - { offsetInCU: 0x52A00, offset: 0x52A00, size: 0x8, addend: 0x0, symName: __ZNSt3__114pointer_traitsIPKcE10pointer_toB8ue170006ERS1_, symObjAddr: 0x72DC, symBinAddr: 0x100008CD8, symSize: 0x14 }
  - { offsetInCU: 0x52A23, offset: 0x52A23, size: 0x8, addend: 0x0, symName: __ZNSt3__112basic_stringIcNS_11char_traitsIcEENS_9allocatorIcEEEpLB8ue170006Ec, symObjAddr: 0x7664, symBinAddr: 0x100009060, symSize: 0x34 }
  - { offsetInCU: 0x52A58, offset: 0x52A58, size: 0x8, addend: 0x0, symName: __ZN8nlohmann16json_abi_v3_11_36detail9exception18get_byte_positionsINS0_10basic_jsonINSt3__13mapENS5_6vectorENS5_12basic_stringIcNS5_11char_traitsIcEENS5_9allocatorIcEEEEbxydSB_NS0_14adl_serializerENS7_IhNSB_IhEEEEvEEEESD_PKT_, symObjAddr: 0x7708, symBinAddr: 0x100009104, symSize: 0x3C }
  - { offsetInCU: 0x52A85, offset: 0x52A85, size: 0x8, addend: 0x0, symName: __ZN8nlohmann16json_abi_v3_11_36detail10type_errorC2EiPKc, symObjAddr: 0x7744, symBinAddr: 0x100009140, symSize: 0x54 }
  - { offsetInCU: 0x52ACD, offset: 0x52ACD, size: 0x8, addend: 0x0, symName: __ZN8nlohmann16json_abi_v3_11_36detail9exceptionC2EiPKc, symObjAddr: 0x7798, symBinAddr: 0x100009194, symSize: 0x8C }
  - { offsetInCU: 0x52B15, offset: 0x52B15, size: 0x8, addend: 0x0, symName: __ZN8nlohmann16json_abi_v3_11_36detail10type_errorD0Ev, symObjAddr: 0x7824, symBinAddr: 0x100009220, symSize: 0x30 }
  - { offsetInCU: 0x52B42, offset: 0x52B42, size: 0x8, addend: 0x0, symName: __ZNK8nlohmann16json_abi_v3_11_36detail9exception4whatEv, symObjAddr: 0x7854, symBinAddr: 0x100009250, symSize: 0x28 }
  - { offsetInCU: 0x52B68, offset: 0x52B68, size: 0x8, addend: 0x0, symName: __ZNSt9exceptionC2B8ue170006Ev, symObjAddr: 0x787C, symBinAddr: 0x100009278, symSize: 0x24 }
  - { offsetInCU: 0x52B92, offset: 0x52B92, size: 0x8, addend: 0x0, symName: __ZN8nlohmann16json_abi_v3_11_36detail9exceptionD1Ev, symObjAddr: 0x78A0, symBinAddr: 0x10000929C, symSize: 0x2C }
  - { offsetInCU: 0x52BBF, offset: 0x52BBF, size: 0x8, addend: 0x0, symName: __ZN8nlohmann16json_abi_v3_11_36detail9exceptionD0Ev, symObjAddr: 0x78CC, symBinAddr: 0x1000092C8, symSize: 0x30 }
  - { offsetInCU: 0x52BEC, offset: 0x52BEC, size: 0x8, addend: 0x0, symName: __ZN8nlohmann16json_abi_v3_11_36detail9exceptionD2Ev, symObjAddr: 0x78FC, symBinAddr: 0x1000092F8, symSize: 0x48 }
  - { offsetInCU: 0x52C19, offset: 0x52C19, size: 0x8, addend: 0x0, symName: __ZN8nlohmann16json_abi_v3_11_36detail10type_errorD2Ev, symObjAddr: 0x79FC, symBinAddr: 0x1000093F8, symSize: 0x2C }
  - { offsetInCU: 0x52C46, offset: 0x52C46, size: 0x8, addend: 0x0, symName: __ZNK8nlohmann16json_abi_v3_11_310basic_jsonINSt3__13mapENS2_6vectorENS2_12basic_stringIcNS2_11char_traitsIcEENS2_9allocatorIcEEEEbxydS8_NS0_14adl_serializerENS4_IhNS8_IhEEEEvE12get_impl_ptrEPKb, symObjAddr: 0x7A28, symBinAddr: 0x100009424, symSize: 0x54 }
  - { offsetInCU: 0x52C78, offset: 0x52C78, size: 0x8, addend: 0x0, symName: __ZN18_ChartInputPayloadD2Ev, symObjAddr: 0x7A7C, symBinAddr: 0x100009478, symSize: 0x50 }
  - { offsetInCU: 0x52CA5, offset: 0x52CA5, size: 0x8, addend: 0x0, symName: __ZN8nlohmann16json_abi_v3_11_36detail8json_refINS0_10basic_jsonINSt3__13mapENS4_6vectorENS4_12basic_stringIcNS4_11char_traitsIcEENS4_9allocatorIcEEEEbxydSA_NS0_14adl_serializerENS6_IhNSA_IhEEEEvEEED2Ev, symObjAddr: 0x7ACC, symBinAddr: 0x1000094C8, symSize: 0x2C }
  - { offsetInCU: 0x52CCF, offset: 0x52CCF, size: 0x8, addend: 0x0, symName: __ZN15_ForecastResultC2Ev, symObjAddr: 0x7AF8, symBinAddr: 0x1000094F4, symSize: 0x15C }
  - { offsetInCU: 0x52CFB, offset: 0x52CFB, size: 0x8, addend: 0x0, symName: __ZN15_ForecastResultD2Ev, symObjAddr: 0x7C54, symBinAddr: 0x100009650, symSize: 0x15C }
  - { offsetInCU: 0x52D27, offset: 0x52D27, size: 0x8, addend: 0x0, symName: __ZNKSt3__111__wrap_iterIPKNS_12basic_stringIcNS_11char_traitsIcEENS_9allocatorIcEEEEE4baseB8ue170006Ev, symObjAddr: 0x7DF8, symBinAddr: 0x1000097F4, symSize: 0x18 }
  - { offsetInCU: 0x52D4D, offset: 0x52D4D, size: 0x8, addend: 0x0, symName: __ZNKSt3__111__wrap_iterIPK24_ForecastResultsByModuleE4baseB8ue170006Ev, symObjAddr: 0x7E58, symBinAddr: 0x100009854, symSize: 0x18 }
  - { offsetInCU: 0x52D73, offset: 0x52D73, size: 0x8, addend: 0x0, symName: __ZNKSt3__111__wrap_iterIP15_ForecastResultE4baseB8ue170006Ev, symObjAddr: 0x7EB8, symBinAddr: 0x1000098B4, symSize: 0x18 }
  - { offsetInCU: 0x52D99, offset: 0x52D99, size: 0x8, addend: 0x0, symName: __ZNSt16invalid_argumentC1B8ue170006EPKc, symObjAddr: 0x7F7C, symBinAddr: 0x100009978, symSize: 0x34 }
  - { offsetInCU: 0x52DD1, offset: 0x52DD1, size: 0x8, addend: 0x0, symName: __ZNSt3__111char_traitsIcE6lengthB8ue170006EPKc, symObjAddr: 0x7FB0, symBinAddr: 0x1000099AC, symSize: 0x34 }
  - { offsetInCU: 0x52DF4, offset: 0x52DF4, size: 0x8, addend: 0x0, symName: __ZNSt16invalid_argumentC2B8ue170006EPKc, symObjAddr: 0x8008, symBinAddr: 0x100009A04, symSize: 0x4C }
  - { offsetInCU: 0x52E2C, offset: 0x52E2C, size: 0x8, addend: 0x0, symName: __ZNSt3__13anyD2B8ue170006Ev, symObjAddr: 0x8054, symBinAddr: 0x100009A50, symSize: 0x2C }
  - { offsetInCU: 0x52E56, offset: 0x52E56, size: 0x8, addend: 0x0, symName: __ZNSt3__13any5resetB8ue170006Ev, symObjAddr: 0x8080, symBinAddr: 0x100009A7C, symSize: 0x5C }
  - { offsetInCU: 0x52E7C, offset: 0x52E7C, size: 0x8, addend: 0x0, symName: __ZNSt3__13any6__callB8ue170006ENS_9__any_imp7_ActionEPS0_PKSt9type_infoPKv, symObjAddr: 0x80DC, symBinAddr: 0x100009AD8, symSize: 0x48 }
  - { offsetInCU: 0x52EDE, offset: 0x52EDE, size: 0x8, addend: 0x0, symName: __ZN24_ForecastResultsByModuleC2Ev, symObjAddr: 0x8124, symBinAddr: 0x100009B20, symSize: 0x80 }
  - { offsetInCU: 0x52F0B, offset: 0x52F0B, size: 0x8, addend: 0x0, symName: __ZNK8nlohmann16json_abi_v3_11_310basic_jsonINSt3__13mapENS2_6vectorENS2_12basic_stringIcNS2_11char_traitsIcEENS2_9allocatorIcEEEEbxydS8_NS0_14adl_serializerENS4_IhNS8_IhEEEEvE8get_implISA_Li0EEET_NS0_6detail12priority_tagILj0EEE, symObjAddr: 0x81A4, symBinAddr: 0x100009BA0, symSize: 0xA8 }
  - { offsetInCU: 0x52F5C, offset: 0x52F5C, size: 0x8, addend: 0x0, symName: __ZN8nlohmann16json_abi_v3_11_314adl_serializerINSt3__112basic_stringIcNS2_11char_traitsIcEENS2_9allocatorIcEEEEvE9from_jsonIRKNS0_10basic_jsonINS2_3mapENS2_6vectorES8_bxydS6_S1_NSD_IhNS6_IhEEEEvEES8_EEDTcmclL_ZNS0_9from_jsonEEclsr3stdE7forwardIT_Efp_Efp0_Ecvv_EEOSJ_RT0_, symObjAddr: 0x824C, symBinAddr: 0x100009C48, symSize: 0x34 }
  - { offsetInCU: 0x52FA1, offset: 0x52FA1, size: 0x8, addend: 0x0, symName: __ZNK8nlohmann16json_abi_v3_11_36detail12from_json_fnclINS0_10basic_jsonINSt3__13mapENS5_6vectorENS5_12basic_stringIcNS5_11char_traitsIcEENS5_9allocatorIcEEEEbxydSB_NS0_14adl_serializerENS7_IhNSB_IhEEEEvEERSD_EEDTcl9from_jsonfp_clsr3stdE7forwardIT0_Efp0_EEERKT_OSJ_, symObjAddr: 0x8280, symBinAddr: 0x100009C7C, symSize: 0x30 }
  - { offsetInCU: 0x52FF7, offset: 0x52FF7, size: 0x8, addend: 0x0, symName: __ZN24_ForecastResultsByModuleD2Ev, symObjAddr: 0x82B0, symBinAddr: 0x100009CAC, symSize: 0x80 }
  - { offsetInCU: 0x53024, offset: 0x53024, size: 0x8, addend: 0x0, symName: __ZNSt3__114basic_ifstreamIcNS_11char_traitsIcEEED2Ev, symObjAddr: 0x8330, symBinAddr: 0x100009D2C, symSize: 0x64 }
  - { offsetInCU: 0x5305E, offset: 0x5305E, size: 0x8, addend: 0x0, symName: __ZTv0_n24_NSt3__114basic_ifstreamIcNS_11char_traitsIcEEED1Ev, symObjAddr: 0x8394, symBinAddr: 0x100009D90, symSize: 0x28 }
  - { offsetInCU: 0x53075, offset: 0x53075, size: 0x8, addend: 0x0, symName: __ZNSt3__114basic_ofstreamIcNS_11char_traitsIcEEED2Ev, symObjAddr: 0x83BC, symBinAddr: 0x100009DB8, symSize: 0x64 }
  - { offsetInCU: 0x530AF, offset: 0x530AF, size: 0x8, addend: 0x0, symName: __ZTv0_n24_NSt3__114basic_ofstreamIcNS_11char_traitsIcEEED1Ev, symObjAddr: 0x8420, symBinAddr: 0x100009E1C, symSize: 0x28 }
  - { offsetInCU: 0x530C6, offset: 0x530C6, size: 0x8, addend: 0x0, symName: __ZNSt3__112basic_stringIcNS_11char_traitsIcEENS_9allocatorIcEEEC2B8ue170006Ev, symObjAddr: 0x8448, symBinAddr: 0x100009E44, symSize: 0x48 }
  - { offsetInCU: 0x530F6, offset: 0x530F6, size: 0x8, addend: 0x0, symName: __ZNSt3__117__compressed_pairINS_12basic_stringIcNS_11char_traitsIcEENS_9allocatorIcEEE5__repES5_EC1B8ue170006INS_18__default_init_tagESA_EEOT_OT0_, symObjAddr: 0x8490, symBinAddr: 0x100009E8C, symSize: 0x3C }
  - { offsetInCU: 0x5314E, offset: 0x5314E, size: 0x8, addend: 0x0, symName: __ZNSt3__112basic_stringIcNS_11char_traitsIcEENS_9allocatorIcEEE14__default_initB8ue170006Ev, symObjAddr: 0x84CC, symBinAddr: 0x100009EC8, symSize: 0x40 }
  - { offsetInCU: 0x53174, offset: 0x53174, size: 0x8, addend: 0x0, symName: __ZNSt3__117__compressed_pairINS_12basic_stringIcNS_11char_traitsIcEENS_9allocatorIcEEE5__repES5_EC2B8ue170006INS_18__default_init_tagESA_EEOT_OT0_, symObjAddr: 0x850C, symBinAddr: 0x100009F08, symSize: 0x3C }
  - { offsetInCU: 0x531CC, offset: 0x531CC, size: 0x8, addend: 0x0, symName: __ZNSt3__122__compressed_pair_elemINS_12basic_stringIcNS_11char_traitsIcEENS_9allocatorIcEEE5__repELi0ELb0EEC2B8ue170006ENS_18__default_init_tagE, symObjAddr: 0x8548, symBinAddr: 0x100009F44, symSize: 0x14 }
  - { offsetInCU: 0x53201, offset: 0x53201, size: 0x8, addend: 0x0, symName: __ZNSt3__122__compressed_pair_elemINS_9allocatorIcEELi1ELb1EEC2B8ue170006ENS_18__default_init_tagE, symObjAddr: 0x855C, symBinAddr: 0x100009F58, symSize: 0x2C }
  - { offsetInCU: 0x53236, offset: 0x53236, size: 0x8, addend: 0x0, symName: __ZNSt3__19allocatorIcEC2B8ue170006Ev, symObjAddr: 0x8588, symBinAddr: 0x100009F84, symSize: 0x2C }
  - { offsetInCU: 0x53260, offset: 0x53260, size: 0x8, addend: 0x0, symName: __ZNSt3__116__non_trivial_ifILb1ENS_9allocatorIcEEEC2B8ue170006Ev, symObjAddr: 0x85B4, symBinAddr: 0x100009FB0, symSize: 0x14 }
  - { offsetInCU: 0x5328A, offset: 0x5328A, size: 0x8, addend: 0x0, symName: __ZNSt3__117__compressed_pairINS_12basic_stringIcNS_11char_traitsIcEENS_9allocatorIcEEE5__repES5_E5firstB8ue170006Ev, symObjAddr: 0x85C8, symBinAddr: 0x100009FC4, symSize: 0x24 }
  - { offsetInCU: 0x532B0, offset: 0x532B0, size: 0x8, addend: 0x0, symName: __ZNSt3__122__compressed_pair_elemINS_12basic_stringIcNS_11char_traitsIcEENS_9allocatorIcEEE5__repELi0ELb0EE5__getB8ue170006Ev, symObjAddr: 0x85EC, symBinAddr: 0x100009FE8, symSize: 0x14 }
  - { offsetInCU: 0x532D6, offset: 0x532D6, size: 0x8, addend: 0x0, symName: __ZNSt3__112basic_stringIcNS_11char_traitsIcEENS_9allocatorIcEEE13__move_assignB8ue170006ERS5_NS_17integral_constantIbLb1EEE, symObjAddr: 0x8600, symBinAddr: 0x100009FFC, symSize: 0xC8 }
  - { offsetInCU: 0x53319, offset: 0x53319, size: 0x8, addend: 0x0, symName: __ZNSt3__116allocator_traitsINS_9allocatorIcEEE10deallocateB8ue170006ERS2_Pcm, symObjAddr: 0x86C8, symBinAddr: 0x10000A0C4, symSize: 0x34 }
  - { offsetInCU: 0x5335B, offset: 0x5335B, size: 0x8, addend: 0x0, symName: __ZNSt3__112basic_stringIcNS_11char_traitsIcEENS_9allocatorIcEEE7__allocB8ue170006Ev, symObjAddr: 0x86FC, symBinAddr: 0x10000A0F8, symSize: 0x24 }
  - { offsetInCU: 0x53381, offset: 0x53381, size: 0x8, addend: 0x0, symName: __ZNSt3__112basic_stringIcNS_11char_traitsIcEENS_9allocatorIcEEE18__get_long_pointerB8ue170006Ev, symObjAddr: 0x8720, symBinAddr: 0x10000A11C, symSize: 0x28 }
  - { offsetInCU: 0x533A7, offset: 0x533A7, size: 0x8, addend: 0x0, symName: __ZNKSt3__112basic_stringIcNS_11char_traitsIcEENS_9allocatorIcEEE14__get_long_capB8ue170006Ev, symObjAddr: 0x8748, symBinAddr: 0x10000A144, symSize: 0x30 }
  - { offsetInCU: 0x533CD, offset: 0x533CD, size: 0x8, addend: 0x0, symName: __ZNSt3__112basic_stringIcNS_11char_traitsIcEENS_9allocatorIcEEE19__move_assign_allocB8ue170006ERS5_, symObjAddr: 0x8778, symBinAddr: 0x10000A174, symSize: 0x2C }
  - { offsetInCU: 0x53402, offset: 0x53402, size: 0x8, addend: 0x0, symName: __ZNSt3__112basic_stringIcNS_11char_traitsIcEENS_9allocatorIcEEE16__set_short_sizeB8ue170006Em, symObjAddr: 0x87A4, symBinAddr: 0x10000A1A0, symSize: 0x78 }
  - { offsetInCU: 0x53437, offset: 0x53437, size: 0x8, addend: 0x0, symName: __ZNSt3__111char_traitsIcE6assignB8ue170006ERcRKc, symObjAddr: 0x881C, symBinAddr: 0x10000A218, symSize: 0x24 }
  - { offsetInCU: 0x53468, offset: 0x53468, size: 0x8, addend: 0x0, symName: __ZNSt3__112basic_stringIcNS_11char_traitsIcEENS_9allocatorIcEEE19__get_short_pointerB8ue170006Ev, symObjAddr: 0x8840, symBinAddr: 0x10000A23C, symSize: 0x28 }
  - { offsetInCU: 0x5348E, offset: 0x5348E, size: 0x8, addend: 0x0, symName: __ZNSt3__19allocatorIcE10deallocateB8ue170006EPcm, symObjAddr: 0x8868, symBinAddr: 0x10000A264, symSize: 0x40 }
  - { offsetInCU: 0x534D0, offset: 0x534D0, size: 0x8, addend: 0x0, symName: __ZNSt3__117__compressed_pairINS_12basic_stringIcNS_11char_traitsIcEENS_9allocatorIcEEE5__repES5_E6secondB8ue170006Ev, symObjAddr: 0x89D0, symBinAddr: 0x10000A3CC, symSize: 0x24 }
  - { offsetInCU: 0x534F6, offset: 0x534F6, size: 0x8, addend: 0x0, symName: __ZNSt3__122__compressed_pair_elemINS_9allocatorIcEELi1ELb1EE5__getB8ue170006Ev, symObjAddr: 0x89F4, symBinAddr: 0x10000A3F0, symSize: 0x14 }
  - { offsetInCU: 0x5351C, offset: 0x5351C, size: 0x8, addend: 0x0, symName: __ZNSt3__112basic_stringIcNS_11char_traitsIcEENS_9allocatorIcEEE19__move_assign_allocB8ue170006ERS5_NS_17integral_constantIbLb1EEE, symObjAddr: 0x8A08, symBinAddr: 0x10000A404, symSize: 0x38 }
  - { offsetInCU: 0x5355D, offset: 0x5355D, size: 0x8, addend: 0x0, symName: __ZNSt3__114pointer_traitsIPcE10pointer_toB8ue170006ERc, symObjAddr: 0x8A40, symBinAddr: 0x10000A43C, symSize: 0x14 }
  - { offsetInCU: 0x53580, offset: 0x53580, size: 0x8, addend: 0x0, symName: __ZNSt3__112basic_stringIcNS_11char_traitsIcEENS_9allocatorIcEEEC2B8ue170006ILi0EEEPKc, symObjAddr: 0x8A54, symBinAddr: 0x10000A450, symSize: 0x58 }
  - { offsetInCU: 0x535BF, offset: 0x535BF, size: 0x8, addend: 0x0, symName: __ZN8nlohmann16json_abi_v3_11_310basic_jsonINSt3__13mapENS2_6vectorENS2_12basic_stringIcNS2_11char_traitsIcEENS2_9allocatorIcEEEEbxydS8_NS0_14adl_serializerENS4_IhNS8_IhEEEEvED2Ev, symObjAddr: 0x8AAC, symBinAddr: 0x10000A4A8, symSize: 0x3C }
  - { offsetInCU: 0x535E9, offset: 0x535E9, size: 0x8, addend: 0x0, symName: __ZNK8nlohmann16json_abi_v3_11_310basic_jsonINSt3__13mapENS2_6vectorENS2_12basic_stringIcNS2_11char_traitsIcEENS2_9allocatorIcEEEEbxydS8_NS0_14adl_serializerENS4_IhNS8_IhEEEEvE16assert_invariantEb, symObjAddr: 0x8AE8, symBinAddr: 0x10000A4E4, symSize: 0x1F0 }
  - { offsetInCU: 0x5361E, offset: 0x5361E, size: 0x8, addend: 0x0, symName: __ZN8nlohmann16json_abi_v3_11_310basic_jsonINSt3__13mapENS2_6vectorENS2_12basic_stringIcNS2_11char_traitsIcEENS2_9allocatorIcEEEEbxydS8_NS0_14adl_serializerENS4_IhNS8_IhEEEEvE4dataD1Ev, symObjAddr: 0x8CD8, symBinAddr: 0x10000A6D4, symSize: 0x2C }
  - { offsetInCU: 0x53648, offset: 0x53648, size: 0x8, addend: 0x0, symName: __ZN8nlohmann16json_abi_v3_11_310basic_jsonINSt3__13mapENS2_6vectorENS2_12basic_stringIcNS2_11char_traitsIcEENS2_9allocatorIcEEEEbxydS8_NS0_14adl_serializerENS4_IhNS8_IhEEEEvE4dataD2Ev, symObjAddr: 0x8D04, symBinAddr: 0x10000A700, symSize: 0x3C }
  - { offsetInCU: 0x53672, offset: 0x53672, size: 0x8, addend: 0x0, symName: __ZN8nlohmann16json_abi_v3_11_310basic_jsonINSt3__13mapENS2_6vectorENS2_12basic_stringIcNS2_11char_traitsIcEENS2_9allocatorIcEEEEbxydS8_NS0_14adl_serializerENS4_IhNS8_IhEEEEvE10json_value7destroyENS0_6detail7value_tE, symObjAddr: 0x8D40, symBinAddr: 0x10000A73C, symSize: 0x518 }
  - { offsetInCU: 0x537FE, offset: 0x537FE, size: 0x8, addend: 0x0, symName: __ZNSt3__16vectorIN8nlohmann16json_abi_v3_11_310basic_jsonINS_3mapES0_NS_12basic_stringIcNS_11char_traitsIcEENS_9allocatorIcEEEEbxydS8_NS2_14adl_serializerENS0_IhNS8_IhEEEEvEENS8_ISE_EEEC1B8ue170006Ev, symObjAddr: 0x9280, symBinAddr: 0x10000AC7C, symSize: 0x2C }
  - { offsetInCU: 0x53828, offset: 0x53828, size: 0x8, addend: 0x0, symName: __ZNSt3__16vectorIN8nlohmann16json_abi_v3_11_310basic_jsonINS_3mapES0_NS_12basic_stringIcNS_11char_traitsIcEENS_9allocatorIcEEEEbxydS8_NS2_14adl_serializerENS0_IhNS8_IhEEEEvEENS8_ISE_EEE7reserveEm, symObjAddr: 0x92AC, symBinAddr: 0x10000ACA8, symSize: 0xE8 }
  - { offsetInCU: 0x53884, offset: 0x53884, size: 0x8, addend: 0x0, symName: __ZNKSt3__16vectorIN8nlohmann16json_abi_v3_11_310basic_jsonINS_3mapES0_NS_12basic_stringIcNS_11char_traitsIcEENS_9allocatorIcEEEEbxydS8_NS2_14adl_serializerENS0_IhNS8_IhEEEEvEENS8_ISE_EEE4sizeB8ue170006Ev, symObjAddr: 0x9394, symBinAddr: 0x10000AD90, symSize: 0x28 }
  - { offsetInCU: 0x538AA, offset: 0x538AA, size: 0x8, addend: 0x0, symName: __ZNSt3__16vectorIN8nlohmann16json_abi_v3_11_310basic_jsonINS_3mapES0_NS_12basic_stringIcNS_11char_traitsIcEENS_9allocatorIcEEEEbxydS8_NS2_14adl_serializerENS0_IhNS8_IhEEEEvEENS8_ISE_EEE5beginB8ue170006Ev, symObjAddr: 0x941C, symBinAddr: 0x10000AE18, symSize: 0x30 }
  - { offsetInCU: 0x538D2, offset: 0x538D2, size: 0x8, addend: 0x0, symName: __ZNSt3__16vectorIN8nlohmann16json_abi_v3_11_310basic_jsonINS_3mapES0_NS_12basic_stringIcNS_11char_traitsIcEENS_9allocatorIcEEEEbxydS8_NS2_14adl_serializerENS0_IhNS8_IhEEEEvEENS8_ISE_EEE3endB8ue170006Ev, symObjAddr: 0x944C, symBinAddr: 0x10000AE48, symSize: 0x30 }
  - { offsetInCU: 0x538FA, offset: 0x538FA, size: 0x8, addend: 0x0, symName: __ZNKSt3__13mapINS_12basic_stringIcNS_11char_traitsIcEENS_9allocatorIcEEEEN8nlohmann16json_abi_v3_11_310basic_jsonIS0_NS_6vectorES6_bxydS4_NS8_14adl_serializerENSA_IhNS4_IhEEEEvEENS_4lessIvEENS4_INS_4pairIKS6_SE_EEEEE4sizeB8ue170006Ev, symObjAddr: 0x94A8, symBinAddr: 0x10000AEA4, symSize: 0x28 }
  - { offsetInCU: 0x53920, offset: 0x53920, size: 0x8, addend: 0x0, symName: __ZNSt3__13mapINS_12basic_stringIcNS_11char_traitsIcEENS_9allocatorIcEEEEN8nlohmann16json_abi_v3_11_310basic_jsonIS0_NS_6vectorES6_bxydS4_NS8_14adl_serializerENSA_IhNS4_IhEEEEvEENS_4lessIvEENS4_INS_4pairIKS6_SE_EEEEE5beginB8ue170006Ev, symObjAddr: 0x94D0, symBinAddr: 0x10000AECC, symSize: 0x38 }
  - { offsetInCU: 0x53946, offset: 0x53946, size: 0x8, addend: 0x0, symName: __ZNSt3__13mapINS_12basic_stringIcNS_11char_traitsIcEENS_9allocatorIcEEEEN8nlohmann16json_abi_v3_11_310basic_jsonIS0_NS_6vectorES6_bxydS4_NS8_14adl_serializerENSA_IhNS4_IhEEEEvEENS_4lessIvEENS4_INS_4pairIKS6_SE_EEEEE3endB8ue170006Ev, symObjAddr: 0x9508, symBinAddr: 0x10000AF04, symSize: 0x38 }
  - { offsetInCU: 0x5396C, offset: 0x5396C, size: 0x8, addend: 0x0, symName: __ZNKSt3__114__map_iteratorINS_15__tree_iteratorINS_12__value_typeINS_12basic_stringIcNS_11char_traitsIcEENS_9allocatorIcEEEEN8nlohmann16json_abi_v3_11_310basic_jsonINS_3mapENS_6vectorES8_bxydS6_NSA_14adl_serializerENSD_IhNS6_IhEEEEvEEEEPNS_11__tree_nodeISI_PvEElEEEdeB8ue170006Ev, symObjAddr: 0x9570, symBinAddr: 0x10000AF6C, symSize: 0x28 }
  - { offsetInCU: 0x53992, offset: 0x53992, size: 0x8, addend: 0x0, symName: __ZNSt3__16vectorIN8nlohmann16json_abi_v3_11_310basic_jsonINS_3mapES0_NS_12basic_stringIcNS_11char_traitsIcEENS_9allocatorIcEEEEbxydS8_NS2_14adl_serializerENS0_IhNS8_IhEEEEvEENS8_ISE_EEE9push_backB8ue170006EOSE_, symObjAddr: 0x9598, symBinAddr: 0x10000AF94, symSize: 0x6C }
  - { offsetInCU: 0x539C9, offset: 0x539C9, size: 0x8, addend: 0x0, symName: __ZNSt3__114__map_iteratorINS_15__tree_iteratorINS_12__value_typeINS_12basic_stringIcNS_11char_traitsIcEENS_9allocatorIcEEEEN8nlohmann16json_abi_v3_11_310basic_jsonINS_3mapENS_6vectorES8_bxydS6_NSA_14adl_serializerENSD_IhNS6_IhEEEEvEEEEPNS_11__tree_nodeISI_PvEElEEEppB8ue170006Ev, symObjAddr: 0x9604, symBinAddr: 0x10000B000, symSize: 0x2C }
  - { offsetInCU: 0x539EF, offset: 0x539EF, size: 0x8, addend: 0x0, symName: __ZNKSt3__16vectorIN8nlohmann16json_abi_v3_11_310basic_jsonINS_3mapES0_NS_12basic_stringIcNS_11char_traitsIcEENS_9allocatorIcEEEEbxydS8_NS2_14adl_serializerENS0_IhNS8_IhEEEEvEENS8_ISE_EEE5emptyB8ue170006Ev, symObjAddr: 0x9630, symBinAddr: 0x10000B02C, symSize: 0x28 }
  - { offsetInCU: 0x53A15, offset: 0x53A15, size: 0x8, addend: 0x0, symName: __ZNSt3__16vectorIN8nlohmann16json_abi_v3_11_310basic_jsonINS_3mapES0_NS_12basic_stringIcNS_11char_traitsIcEENS_9allocatorIcEEEEbxydS8_NS2_14adl_serializerENS0_IhNS8_IhEEEEvEENS8_ISE_EEE4backB8ue170006Ev, symObjAddr: 0x9658, symBinAddr: 0x10000B054, symSize: 0x1C }
  - { offsetInCU: 0x53A3B, offset: 0x53A3B, size: 0x8, addend: 0x0, symName: __ZN8nlohmann16json_abi_v3_11_310basic_jsonINSt3__13mapENS2_6vectorENS2_12basic_stringIcNS2_11char_traitsIcEENS2_9allocatorIcEEEEbxydS8_NS0_14adl_serializerENS4_IhNS8_IhEEEEvEC1EOSE_, symObjAddr: 0x9674, symBinAddr: 0x10000B070, symSize: 0x34 }
  - { offsetInCU: 0x53A74, offset: 0x53A74, size: 0x8, addend: 0x0, symName: __ZNSt3__16vectorIN8nlohmann16json_abi_v3_11_310basic_jsonINS_3mapES0_NS_12basic_stringIcNS_11char_traitsIcEENS_9allocatorIcEEEEbxydS8_NS2_14adl_serializerENS0_IhNS8_IhEEEEvEENS8_ISE_EEE8pop_backEv, symObjAddr: 0x96A8, symBinAddr: 0x10000B0A4, symSize: 0x2C }
  - { offsetInCU: 0x53A9C, offset: 0x53A9C, size: 0x8, addend: 0x0, symName: __ZNK8nlohmann16json_abi_v3_11_310basic_jsonINSt3__13mapENS2_6vectorENS2_12basic_stringIcNS2_11char_traitsIcEENS2_9allocatorIcEEEEbxydS8_NS0_14adl_serializerENS4_IhNS8_IhEEEEvE8is_arrayEv, symObjAddr: 0x96D4, symBinAddr: 0x10000B0D0, symSize: 0x24 }
  - { offsetInCU: 0x53AC2, offset: 0x53AC2, size: 0x8, addend: 0x0, symName: __ZNSt3__16vectorIN8nlohmann16json_abi_v3_11_310basic_jsonINS_3mapES0_NS_12basic_stringIcNS_11char_traitsIcEENS_9allocatorIcEEEEbxydS8_NS2_14adl_serializerENS0_IhNS8_IhEEEEvEENS8_ISE_EEE5clearB8ue170006Ev, symObjAddr: 0x96F8, symBinAddr: 0x10000B0F4, symSize: 0x44 }
  - { offsetInCU: 0x53AF7, offset: 0x53AF7, size: 0x8, addend: 0x0, symName: __ZNK8nlohmann16json_abi_v3_11_310basic_jsonINSt3__13mapENS2_6vectorENS2_12basic_stringIcNS2_11char_traitsIcEENS2_9allocatorIcEEEEbxydS8_NS0_14adl_serializerENS4_IhNS8_IhEEEEvE9is_objectEv, symObjAddr: 0x973C, symBinAddr: 0x10000B138, symSize: 0x24 }
  - { offsetInCU: 0x53B1D, offset: 0x53B1D, size: 0x8, addend: 0x0, symName: __ZNSt3__13mapINS_12basic_stringIcNS_11char_traitsIcEENS_9allocatorIcEEEEN8nlohmann16json_abi_v3_11_310basic_jsonIS0_NS_6vectorES6_bxydS4_NS8_14adl_serializerENSA_IhNS4_IhEEEEvEENS_4lessIvEENS4_INS_4pairIKS6_SE_EEEEE5clearB8ue170006Ev, symObjAddr: 0x9760, symBinAddr: 0x10000B15C, symSize: 0x24 }
  - { offsetInCU: 0x53B43, offset: 0x53B43, size: 0x8, addend: 0x0, symName: __ZNSt3__16vectorIN8nlohmann16json_abi_v3_11_310basic_jsonINS_3mapES0_NS_12basic_stringIcNS_11char_traitsIcEENS_9allocatorIcEEEEbxydS8_NS2_14adl_serializerENS0_IhNS8_IhEEEEvEENS8_ISE_EEED1B8ue170006Ev, symObjAddr: 0x9784, symBinAddr: 0x10000B180, symSize: 0x2C }
  - { offsetInCU: 0x53B8A, offset: 0x53B8A, size: 0x8, addend: 0x0, symName: __ZNSt3__19allocatorINS_3mapINS_12basic_stringIcNS_11char_traitsIcEENS0_IcEEEEN8nlohmann16json_abi_v3_11_310basic_jsonIS1_NS_6vectorES6_bxydS0_NS8_14adl_serializerENSA_IhNS0_IhEEEEvEENS_4lessIvEENS0_INS_4pairIKS6_SE_EEEEEEEC1B8ue170006Ev, symObjAddr: 0x97B0, symBinAddr: 0x10000B1AC, symSize: 0x2C }
  - { offsetInCU: 0x53BBA, offset: 0x53BBA, size: 0x8, addend: 0x0, symName: __ZNSt3__116allocator_traitsINS_9allocatorINS_3mapINS_12basic_stringIcNS_11char_traitsIcEENS1_IcEEEEN8nlohmann16json_abi_v3_11_310basic_jsonIS2_NS_6vectorES7_bxydS1_NS9_14adl_serializerENSB_IhNS1_IhEEEEvEENS_4lessIvEENS1_INS_4pairIKS7_SF_EEEEEEEEE7destroyB8ue170006ISM_vEEvRSN_PT_, symObjAddr: 0x97DC, symBinAddr: 0x10000B1D8, symSize: 0x2C }
  - { offsetInCU: 0x53BF7, offset: 0x53BF7, size: 0x8, addend: 0x0, symName: __ZNSt3__116allocator_traitsINS_9allocatorINS_3mapINS_12basic_stringIcNS_11char_traitsIcEENS1_IcEEEEN8nlohmann16json_abi_v3_11_310basic_jsonIS2_NS_6vectorES7_bxydS1_NS9_14adl_serializerENSB_IhNS1_IhEEEEvEENS_4lessIvEENS1_INS_4pairIKS7_SF_EEEEEEEEE10deallocateB8ue170006ERSN_PSM_m, symObjAddr: 0x9808, symBinAddr: 0x10000B204, symSize: 0x34 }
  - { offsetInCU: 0x53C56, offset: 0x53C56, size: 0x8, addend: 0x0, symName: __ZNSt3__19allocatorINS_6vectorIN8nlohmann16json_abi_v3_11_310basic_jsonINS_3mapES1_NS_12basic_stringIcNS_11char_traitsIcEENS0_IcEEEEbxydS0_NS3_14adl_serializerENS1_IhNS0_IhEEEEvEENS0_ISE_EEEEEC1B8ue170006Ev, symObjAddr: 0x983C, symBinAddr: 0x10000B238, symSize: 0x2C }
  - { offsetInCU: 0x53C86, offset: 0x53C86, size: 0x8, addend: 0x0, symName: __ZNSt3__116allocator_traitsINS_9allocatorINS_6vectorIN8nlohmann16json_abi_v3_11_310basic_jsonINS_3mapES2_NS_12basic_stringIcNS_11char_traitsIcEENS1_IcEEEEbxydS1_NS4_14adl_serializerENS2_IhNS1_IhEEEEvEENS1_ISF_EEEEEEE7destroyB8ue170006ISH_vEEvRSI_PT_, symObjAddr: 0x9868, symBinAddr: 0x10000B264, symSize: 0x2C }
  - { offsetInCU: 0x53CC3, offset: 0x53CC3, size: 0x8, addend: 0x0, symName: __ZNSt3__116allocator_traitsINS_9allocatorINS_6vectorIN8nlohmann16json_abi_v3_11_310basic_jsonINS_3mapES2_NS_12basic_stringIcNS_11char_traitsIcEENS1_IcEEEEbxydS1_NS4_14adl_serializerENS2_IhNS1_IhEEEEvEENS1_ISF_EEEEEEE10deallocateB8ue170006ERSI_PSH_m, symObjAddr: 0x9894, symBinAddr: 0x10000B290, symSize: 0x34 }
  - { offsetInCU: 0x53D05, offset: 0x53D05, size: 0x8, addend: 0x0, symName: __ZNSt3__19allocatorINS_12basic_stringIcNS_11char_traitsIcEENS0_IcEEEEEC1B8ue170006Ev, symObjAddr: 0x98C8, symBinAddr: 0x10000B2C4, symSize: 0x2C }
  - { offsetInCU: 0x53D2F, offset: 0x53D2F, size: 0x8, addend: 0x0, symName: __ZNSt3__116allocator_traitsINS_9allocatorINS_12basic_stringIcNS_11char_traitsIcEENS1_IcEEEEEEE7destroyB8ue170006IS6_vEEvRS7_PT_, symObjAddr: 0x98F4, symBinAddr: 0x10000B2F0, symSize: 0x2C }
  - { offsetInCU: 0x53D6C, offset: 0x53D6C, size: 0x8, addend: 0x0, symName: __ZNSt3__116allocator_traitsINS_9allocatorINS_12basic_stringIcNS_11char_traitsIcEENS1_IcEEEEEEE10deallocateB8ue170006ERS7_PS6_m, symObjAddr: 0x9920, symBinAddr: 0x10000B31C, symSize: 0x34 }
  - { offsetInCU: 0x53DD1, offset: 0x53DD1, size: 0x8, addend: 0x0, symName: __ZNSt3__19allocatorIN8nlohmann16json_abi_v3_11_327byte_container_with_subtypeINS_6vectorIhNS0_IhEEEEEEEC1B8ue170006Ev, symObjAddr: 0x9954, symBinAddr: 0x10000B350, symSize: 0x2C }
  - { offsetInCU: 0x53E01, offset: 0x53E01, size: 0x8, addend: 0x0, symName: __ZNSt3__116allocator_traitsINS_9allocatorIN8nlohmann16json_abi_v3_11_327byte_container_with_subtypeINS_6vectorIhNS1_IhEEEEEEEEE7destroyB8ue170006IS8_vEEvRS9_PT_, symObjAddr: 0x9980, symBinAddr: 0x10000B37C, symSize: 0x2C }
  - { offsetInCU: 0x53E3E, offset: 0x53E3E, size: 0x8, addend: 0x0, symName: __ZNSt3__116allocator_traitsINS_9allocatorIN8nlohmann16json_abi_v3_11_327byte_container_with_subtypeINS_6vectorIhNS1_IhEEEEEEEEE10deallocateB8ue170006ERS9_PS8_m, symObjAddr: 0x99AC, symBinAddr: 0x10000B3A8, symSize: 0x34 }
  - { offsetInCU: 0x53E80, offset: 0x53E80, size: 0x8, addend: 0x0, symName: __ZNSt3__16vectorIN8nlohmann16json_abi_v3_11_310basic_jsonINS_3mapES0_NS_12basic_stringIcNS_11char_traitsIcEENS_9allocatorIcEEEEbxydS8_NS2_14adl_serializerENS0_IhNS8_IhEEEEvEENS8_ISE_EEEC2B8ue170006Ev, symObjAddr: 0x99E0, symBinAddr: 0x10000B3DC, symSize: 0x4C }
  - { offsetInCU: 0x53EB0, offset: 0x53EB0, size: 0x8, addend: 0x0, symName: __ZNSt3__117__compressed_pairIPN8nlohmann16json_abi_v3_11_310basic_jsonINS_3mapENS_6vectorENS_12basic_stringIcNS_11char_traitsIcEENS_9allocatorIcEEEEbxydS9_NS2_14adl_serializerENS5_IhNS9_IhEEEEvEENS9_ISF_EEEC1B8ue170006IDnNS_18__default_init_tagEEEOT_OT0_, symObjAddr: 0x9A2C, symBinAddr: 0x10000B428, symSize: 0x3C }
  - { offsetInCU: 0x53F08, offset: 0x53F08, size: 0x8, addend: 0x0, symName: __ZNSt3__117__compressed_pairIPN8nlohmann16json_abi_v3_11_310basic_jsonINS_3mapENS_6vectorENS_12basic_stringIcNS_11char_traitsIcEENS_9allocatorIcEEEEbxydS9_NS2_14adl_serializerENS5_IhNS9_IhEEEEvEENS9_ISF_EEEC2B8ue170006IDnNS_18__default_init_tagEEEOT_OT0_, symObjAddr: 0x9A68, symBinAddr: 0x10000B464, symSize: 0x40 }
  - { offsetInCU: 0x53F60, offset: 0x53F60, size: 0x8, addend: 0x0, symName: __ZNSt3__122__compressed_pair_elemIPN8nlohmann16json_abi_v3_11_310basic_jsonINS_3mapENS_6vectorENS_12basic_stringIcNS_11char_traitsIcEENS_9allocatorIcEEEEbxydS9_NS2_14adl_serializerENS5_IhNS9_IhEEEEvEELi0ELb0EEC2B8ue170006IDnvEEOT_, symObjAddr: 0x9AA8, symBinAddr: 0x10000B4A4, symSize: 0x1C }
  - { offsetInCU: 0x53FA2, offset: 0x53FA2, size: 0x8, addend: 0x0, symName: __ZNSt3__122__compressed_pair_elemINS_9allocatorIN8nlohmann16json_abi_v3_11_310basic_jsonINS_3mapENS_6vectorENS_12basic_stringIcNS_11char_traitsIcEENS1_IcEEEEbxydS1_NS3_14adl_serializerENS6_IhNS1_IhEEEEvEEEELi1ELb1EEC2B8ue170006ENS_18__default_init_tagE, symObjAddr: 0x9AC4, symBinAddr: 0x10000B4C0, symSize: 0x2C }
  - { offsetInCU: 0x53FD7, offset: 0x53FD7, size: 0x8, addend: 0x0, symName: __ZNSt3__19allocatorIN8nlohmann16json_abi_v3_11_310basic_jsonINS_3mapENS_6vectorENS_12basic_stringIcNS_11char_traitsIcEENS0_IcEEEEbxydS0_NS2_14adl_serializerENS5_IhNS0_IhEEEEvEEEC2B8ue170006Ev, symObjAddr: 0x9AF0, symBinAddr: 0x10000B4EC, symSize: 0x2C }
  - { offsetInCU: 0x54001, offset: 0x54001, size: 0x8, addend: 0x0, symName: __ZNSt3__116__non_trivial_ifILb1ENS_9allocatorIN8nlohmann16json_abi_v3_11_310basic_jsonINS_3mapENS_6vectorENS_12basic_stringIcNS_11char_traitsIcEENS1_IcEEEEbxydS1_NS3_14adl_serializerENS6_IhNS1_IhEEEEvEEEEEC2B8ue170006Ev, symObjAddr: 0x9B1C, symBinAddr: 0x10000B518, symSize: 0x14 }
  - { offsetInCU: 0x5402B, offset: 0x5402B, size: 0x8, addend: 0x0, symName: __ZNKSt3__16vectorIN8nlohmann16json_abi_v3_11_310basic_jsonINS_3mapES0_NS_12basic_stringIcNS_11char_traitsIcEENS_9allocatorIcEEEEbxydS8_NS2_14adl_serializerENS0_IhNS8_IhEEEEvEENS8_ISE_EEE8capacityB8ue170006Ev, symObjAddr: 0x9B30, symBinAddr: 0x10000B52C, symSize: 0x40 }
  - { offsetInCU: 0x54051, offset: 0x54051, size: 0x8, addend: 0x0, symName: __ZNKSt3__16vectorIN8nlohmann16json_abi_v3_11_310basic_jsonINS_3mapES0_NS_12basic_stringIcNS_11char_traitsIcEENS_9allocatorIcEEEEbxydS8_NS2_14adl_serializerENS0_IhNS8_IhEEEEvEENS8_ISE_EEE8max_sizeEv, symObjAddr: 0x9B70, symBinAddr: 0x10000B56C, symSize: 0x60 }
  - { offsetInCU: 0x54079, offset: 0x54079, size: 0x8, addend: 0x0, symName: __ZNKSt3__16vectorIN8nlohmann16json_abi_v3_11_310basic_jsonINS_3mapES0_NS_12basic_stringIcNS_11char_traitsIcEENS_9allocatorIcEEEEbxydS8_NS2_14adl_serializerENS0_IhNS8_IhEEEEvEENS8_ISE_EEE20__throw_length_errorB8ue170006Ev, symObjAddr: 0x9BD0, symBinAddr: 0x10000B5CC, symSize: 0x1C }
  - { offsetInCU: 0x5409F, offset: 0x5409F, size: 0x8, addend: 0x0, symName: __ZNSt3__16vectorIN8nlohmann16json_abi_v3_11_310basic_jsonINS_3mapES0_NS_12basic_stringIcNS_11char_traitsIcEENS_9allocatorIcEEEEbxydS8_NS2_14adl_serializerENS0_IhNS8_IhEEEEvEENS8_ISE_EEE7__allocB8ue170006Ev, symObjAddr: 0x9BEC, symBinAddr: 0x10000B5E8, symSize: 0x28 }
  - { offsetInCU: 0x540C5, offset: 0x540C5, size: 0x8, addend: 0x0, symName: __ZNSt3__114__split_bufferIN8nlohmann16json_abi_v3_11_310basic_jsonINS_3mapENS_6vectorENS_12basic_stringIcNS_11char_traitsIcEENS_9allocatorIcEEEEbxydS9_NS2_14adl_serializerENS5_IhNS9_IhEEEEvEERNS9_ISF_EEEC1EmmSH_, symObjAddr: 0x9C14, symBinAddr: 0x10000B610, symSize: 0x44 }
  - { offsetInCU: 0x5411B, offset: 0x5411B, size: 0x8, addend: 0x0, symName: __ZNSt3__114__split_bufferIN8nlohmann16json_abi_v3_11_310basic_jsonINS_3mapENS_6vectorENS_12basic_stringIcNS_11char_traitsIcEENS_9allocatorIcEEEEbxydS9_NS2_14adl_serializerENS5_IhNS9_IhEEEEvEERNS9_ISF_EEED1Ev, symObjAddr: 0x9D68, symBinAddr: 0x10000B764, symSize: 0x2C }
  - { offsetInCU: 0x54147, offset: 0x54147, size: 0x8, addend: 0x0, symName: __ZNKSt3__16vectorIN8nlohmann16json_abi_v3_11_310basic_jsonINS_3mapES0_NS_12basic_stringIcNS_11char_traitsIcEENS_9allocatorIcEEEEbxydS8_NS2_14adl_serializerENS0_IhNS8_IhEEEEvEENS8_ISE_EEE9__end_capB8ue170006Ev, symObjAddr: 0x9D94, symBinAddr: 0x10000B790, symSize: 0x28 }
  - { offsetInCU: 0x5416D, offset: 0x5416D, size: 0x8, addend: 0x0, symName: __ZNKSt3__117__compressed_pairIPN8nlohmann16json_abi_v3_11_310basic_jsonINS_3mapENS_6vectorENS_12basic_stringIcNS_11char_traitsIcEENS_9allocatorIcEEEEbxydS9_NS2_14adl_serializerENS5_IhNS9_IhEEEEvEENS9_ISF_EEE5firstB8ue170006Ev, symObjAddr: 0x9DBC, symBinAddr: 0x10000B7B8, symSize: 0x24 }
  - { offsetInCU: 0x54193, offset: 0x54193, size: 0x8, addend: 0x0, symName: __ZNKSt3__122__compressed_pair_elemIPN8nlohmann16json_abi_v3_11_310basic_jsonINS_3mapENS_6vectorENS_12basic_stringIcNS_11char_traitsIcEENS_9allocatorIcEEEEbxydS9_NS2_14adl_serializerENS5_IhNS9_IhEEEEvEELi0ELb0EE5__getB8ue170006Ev, symObjAddr: 0x9DE0, symBinAddr: 0x10000B7DC, symSize: 0x14 }
  - { offsetInCU: 0x541C4, offset: 0x541C4, size: 0x8, addend: 0x0, symName: __ZNSt3__116allocator_traitsINS_9allocatorIN8nlohmann16json_abi_v3_11_310basic_jsonINS_3mapENS_6vectorENS_12basic_stringIcNS_11char_traitsIcEENS1_IcEEEEbxydS1_NS3_14adl_serializerENS6_IhNS1_IhEEEEvEEEEE8max_sizeB8ue170006ISG_vEEmRKSG_, symObjAddr: 0x9E20, symBinAddr: 0x10000B81C, symSize: 0x24 }
  - { offsetInCU: 0x541F2, offset: 0x541F2, size: 0x8, addend: 0x0, symName: __ZNKSt3__16vectorIN8nlohmann16json_abi_v3_11_310basic_jsonINS_3mapES0_NS_12basic_stringIcNS_11char_traitsIcEENS_9allocatorIcEEEEbxydS8_NS2_14adl_serializerENS0_IhNS8_IhEEEEvEENS8_ISE_EEE7__allocB8ue170006Ev, symObjAddr: 0x9E44, symBinAddr: 0x10000B840, symSize: 0x28 }
  - { offsetInCU: 0x54218, offset: 0x54218, size: 0x8, addend: 0x0, symName: __ZNSt3__114numeric_limitsIlE3maxB8ue170006Ev, symObjAddr: 0x9E6C, symBinAddr: 0x10000B868, symSize: 0x14 }
  - { offsetInCU: 0x54237, offset: 0x54237, size: 0x8, addend: 0x0, symName: __ZNKSt3__16__lessIvvEclB8ue170006ImmEEbRKT_RKT0_, symObjAddr: 0x9ED4, symBinAddr: 0x10000B8D0, symSize: 0x34 }
  - { offsetInCU: 0x5428B, offset: 0x5428B, size: 0x8, addend: 0x0, symName: __ZNKSt3__19allocatorIN8nlohmann16json_abi_v3_11_310basic_jsonINS_3mapENS_6vectorENS_12basic_stringIcNS_11char_traitsIcEENS0_IcEEEEbxydS0_NS2_14adl_serializerENS5_IhNS0_IhEEEEvEEE8max_sizeB8ue170006Ev, symObjAddr: 0x9F08, symBinAddr: 0x10000B904, symSize: 0x14 }
  - { offsetInCU: 0x542B1, offset: 0x542B1, size: 0x8, addend: 0x0, symName: __ZNKSt3__117__compressed_pairIPN8nlohmann16json_abi_v3_11_310basic_jsonINS_3mapENS_6vectorENS_12basic_stringIcNS_11char_traitsIcEENS_9allocatorIcEEEEbxydS9_NS2_14adl_serializerENS5_IhNS9_IhEEEEvEENS9_ISF_EEE6secondB8ue170006Ev, symObjAddr: 0x9F1C, symBinAddr: 0x10000B918, symSize: 0x24 }
  - { offsetInCU: 0x542D7, offset: 0x542D7, size: 0x8, addend: 0x0, symName: __ZNKSt3__122__compressed_pair_elemINS_9allocatorIN8nlohmann16json_abi_v3_11_310basic_jsonINS_3mapENS_6vectorENS_12basic_stringIcNS_11char_traitsIcEENS1_IcEEEEbxydS1_NS3_14adl_serializerENS6_IhNS1_IhEEEEvEEEELi1ELb1EE5__getB8ue170006Ev, symObjAddr: 0x9F40, symBinAddr: 0x10000B93C, symSize: 0x14 }
  - { offsetInCU: 0x542FD, offset: 0x542FD, size: 0x8, addend: 0x0, symName: __ZNSt3__123__libcpp_numeric_limitsIlLb1EE3maxB8ue170006Ev, symObjAddr: 0x9F54, symBinAddr: 0x10000B950, symSize: 0x8 }
  - { offsetInCU: 0x54311, offset: 0x54311, size: 0x8, addend: 0x0, symName: __ZNSt12length_errorC1B8ue170006EPKc, symObjAddr: 0x9FC0, symBinAddr: 0x10000B9BC, symSize: 0x34 }
  - { offsetInCU: 0x54349, offset: 0x54349, size: 0x8, addend: 0x0, symName: __ZNSt12length_errorC2B8ue170006EPKc, symObjAddr: 0x9FF4, symBinAddr: 0x10000B9F0, symSize: 0x4C }
  - { offsetInCU: 0x54381, offset: 0x54381, size: 0x8, addend: 0x0, symName: __ZNSt3__117__compressed_pairIPN8nlohmann16json_abi_v3_11_310basic_jsonINS_3mapENS_6vectorENS_12basic_stringIcNS_11char_traitsIcEENS_9allocatorIcEEEEbxydS9_NS2_14adl_serializerENS5_IhNS9_IhEEEEvEENS9_ISF_EEE6secondB8ue170006Ev, symObjAddr: 0xA040, symBinAddr: 0x10000BA3C, symSize: 0x24 }
  - { offsetInCU: 0x543A7, offset: 0x543A7, size: 0x8, addend: 0x0, symName: __ZNSt3__122__compressed_pair_elemINS_9allocatorIN8nlohmann16json_abi_v3_11_310basic_jsonINS_3mapENS_6vectorENS_12basic_stringIcNS_11char_traitsIcEENS1_IcEEEEbxydS1_NS3_14adl_serializerENS6_IhNS1_IhEEEEvEEEELi1ELb1EE5__getB8ue170006Ev, symObjAddr: 0xA064, symBinAddr: 0x10000BA60, symSize: 0x14 }
  - { offsetInCU: 0x543CD, offset: 0x543CD, size: 0x8, addend: 0x0, symName: __ZNSt3__114__split_bufferIN8nlohmann16json_abi_v3_11_310basic_jsonINS_3mapENS_6vectorENS_12basic_stringIcNS_11char_traitsIcEENS_9allocatorIcEEEEbxydS9_NS2_14adl_serializerENS5_IhNS9_IhEEEEvEERNS9_ISF_EEEC2EmmSH_, symObjAddr: 0xA078, symBinAddr: 0x10000BA74, symSize: 0xD4 }
  - { offsetInCU: 0x54441, offset: 0x54441, size: 0x8, addend: 0x0, symName: __ZNSt3__117__compressed_pairIPN8nlohmann16json_abi_v3_11_310basic_jsonINS_3mapENS_6vectorENS_12basic_stringIcNS_11char_traitsIcEENS_9allocatorIcEEEEbxydS9_NS2_14adl_serializerENS5_IhNS9_IhEEEEvEERNS9_ISF_EEEC1B8ue170006IDnSI_EEOT_OT0_, symObjAddr: 0xA14C, symBinAddr: 0x10000BB48, symSize: 0x3C }
  - { offsetInCU: 0x54499, offset: 0x54499, size: 0x8, addend: 0x0, symName: __ZNSt3__114__split_bufferIN8nlohmann16json_abi_v3_11_310basic_jsonINS_3mapENS_6vectorENS_12basic_stringIcNS_11char_traitsIcEENS_9allocatorIcEEEEbxydS9_NS2_14adl_serializerENS5_IhNS9_IhEEEEvEERNS9_ISF_EEE7__allocB8ue170006Ev, symObjAddr: 0xA1C8, symBinAddr: 0x10000BBC4, symSize: 0x28 }
  - { offsetInCU: 0x544BF, offset: 0x544BF, size: 0x8, addend: 0x0, symName: __ZNSt3__114__split_bufferIN8nlohmann16json_abi_v3_11_310basic_jsonINS_3mapENS_6vectorENS_12basic_stringIcNS_11char_traitsIcEENS_9allocatorIcEEEEbxydS9_NS2_14adl_serializerENS5_IhNS9_IhEEEEvEERNS9_ISF_EEE9__end_capB8ue170006Ev, symObjAddr: 0xA1F0, symBinAddr: 0x10000BBEC, symSize: 0x28 }
  - { offsetInCU: 0x544E5, offset: 0x544E5, size: 0x8, addend: 0x0, symName: __ZNSt3__117__compressed_pairIPN8nlohmann16json_abi_v3_11_310basic_jsonINS_3mapENS_6vectorENS_12basic_stringIcNS_11char_traitsIcEENS_9allocatorIcEEEEbxydS9_NS2_14adl_serializerENS5_IhNS9_IhEEEEvEERNS9_ISF_EEEC2B8ue170006IDnSI_EEOT_OT0_, symObjAddr: 0xA218, symBinAddr: 0x10000BC14, symSize: 0x48 }
  - { offsetInCU: 0x5453D, offset: 0x5453D, size: 0x8, addend: 0x0, symName: __ZNSt3__122__compressed_pair_elemIRNS_9allocatorIN8nlohmann16json_abi_v3_11_310basic_jsonINS_3mapENS_6vectorENS_12basic_stringIcNS_11char_traitsIcEENS1_IcEEEEbxydS1_NS3_14adl_serializerENS6_IhNS1_IhEEEEvEEEELi1ELb0EEC2B8ue170006ISH_vEEOT_, symObjAddr: 0xA260, symBinAddr: 0x10000BC5C, symSize: 0x20 }
  - { offsetInCU: 0x5457F, offset: 0x5457F, size: 0x8, addend: 0x0, symName: __ZNSt3__19allocatorIN8nlohmann16json_abi_v3_11_310basic_jsonINS_3mapENS_6vectorENS_12basic_stringIcNS_11char_traitsIcEENS0_IcEEEEbxydS0_NS2_14adl_serializerENS5_IhNS0_IhEEEEvEEE8allocateB8ue170006Em, symObjAddr: 0xA280, symBinAddr: 0x10000BC7C, symSize: 0x58 }
  - { offsetInCU: 0x545B3, offset: 0x545B3, size: 0x8, addend: 0x0, symName: __ZNSt3__117__compressed_pairIPN8nlohmann16json_abi_v3_11_310basic_jsonINS_3mapENS_6vectorENS_12basic_stringIcNS_11char_traitsIcEENS_9allocatorIcEEEEbxydS9_NS2_14adl_serializerENS5_IhNS9_IhEEEEvEERNS9_ISF_EEE6secondB8ue170006Ev, symObjAddr: 0xA3BC, symBinAddr: 0x10000BDB8, symSize: 0x28 }
  - { offsetInCU: 0x545D9, offset: 0x545D9, size: 0x8, addend: 0x0, symName: __ZNSt3__122__compressed_pair_elemIRNS_9allocatorIN8nlohmann16json_abi_v3_11_310basic_jsonINS_3mapENS_6vectorENS_12basic_stringIcNS_11char_traitsIcEENS1_IcEEEEbxydS1_NS3_14adl_serializerENS6_IhNS1_IhEEEEvEEEELi1ELb0EE5__getB8ue170006Ev, symObjAddr: 0xA3E4, symBinAddr: 0x10000BDE0, symSize: 0x18 }
  - { offsetInCU: 0x545FF, offset: 0x545FF, size: 0x8, addend: 0x0, symName: __ZNSt3__117__compressed_pairIPN8nlohmann16json_abi_v3_11_310basic_jsonINS_3mapENS_6vectorENS_12basic_stringIcNS_11char_traitsIcEENS_9allocatorIcEEEEbxydS9_NS2_14adl_serializerENS5_IhNS9_IhEEEEvEERNS9_ISF_EEE5firstB8ue170006Ev, symObjAddr: 0xA3FC, symBinAddr: 0x10000BDF8, symSize: 0x24 }
  - { offsetInCU: 0x54625, offset: 0x54625, size: 0x8, addend: 0x0, symName: __ZNSt3__122__compressed_pair_elemIPN8nlohmann16json_abi_v3_11_310basic_jsonINS_3mapENS_6vectorENS_12basic_stringIcNS_11char_traitsIcEENS_9allocatorIcEEEEbxydS9_NS2_14adl_serializerENS5_IhNS9_IhEEEEvEELi0ELb0EE5__getB8ue170006Ev, symObjAddr: 0xA420, symBinAddr: 0x10000BE1C, symSize: 0x14 }
  - { offsetInCU: 0x5464B, offset: 0x5464B, size: 0x8, addend: 0x0, symName: __ZNKSt3__16vectorIN8nlohmann16json_abi_v3_11_310basic_jsonINS_3mapES0_NS_12basic_stringIcNS_11char_traitsIcEENS_9allocatorIcEEEEbxydS8_NS2_14adl_serializerENS0_IhNS8_IhEEEEvEENS8_ISE_EEE17__annotate_deleteB8ue170006Ev, symObjAddr: 0xA434, symBinAddr: 0x10000BE30, symSize: 0xB8 }
  - { offsetInCU: 0x54671, offset: 0x54671, size: 0x8, addend: 0x0, symName: __ZNSt3__116reverse_iteratorIPN8nlohmann16json_abi_v3_11_310basic_jsonINS_3mapENS_6vectorENS_12basic_stringIcNS_11char_traitsIcEENS_9allocatorIcEEEEbxydS9_NS2_14adl_serializerENS5_IhNS9_IhEEEEvEEEC1B8ue170006ESG_, symObjAddr: 0xA618, symBinAddr: 0x10000C014, symSize: 0x34 }
  - { offsetInCU: 0x546A9, offset: 0x546A9, size: 0x8, addend: 0x0, symName: __ZNKSt3__116reverse_iteratorIPN8nlohmann16json_abi_v3_11_310basic_jsonINS_3mapENS_6vectorENS_12basic_stringIcNS_11char_traitsIcEENS_9allocatorIcEEEEbxydS9_NS2_14adl_serializerENS5_IhNS9_IhEEEEvEEE4baseB8ue170006Ev, symObjAddr: 0xA64C, symBinAddr: 0x10000C048, symSize: 0x18 }
  - { offsetInCU: 0x546CF, offset: 0x546CF, size: 0x8, addend: 0x0, symName: __ZNSt3__16vectorIN8nlohmann16json_abi_v3_11_310basic_jsonINS_3mapES0_NS_12basic_stringIcNS_11char_traitsIcEENS_9allocatorIcEEEEbxydS8_NS2_14adl_serializerENS0_IhNS8_IhEEEEvEENS8_ISE_EEE9__end_capB8ue170006Ev, symObjAddr: 0xA6A0, symBinAddr: 0x10000C09C, symSize: 0x28 }
  - { offsetInCU: 0x546F5, offset: 0x546F5, size: 0x8, addend: 0x0, symName: __ZNKSt3__16vectorIN8nlohmann16json_abi_v3_11_310basic_jsonINS_3mapES0_NS_12basic_stringIcNS_11char_traitsIcEENS_9allocatorIcEEEEbxydS8_NS2_14adl_serializerENS0_IhNS8_IhEEEEvEENS8_ISE_EEE14__annotate_newB8ue170006Em, symObjAddr: 0xA6C8, symBinAddr: 0x10000C0C4, symSize: 0xAC }
  - { offsetInCU: 0x5472A, offset: 0x5472A, size: 0x8, addend: 0x0, symName: __ZNKSt3__16vectorIN8nlohmann16json_abi_v3_11_310basic_jsonINS_3mapES0_NS_12basic_stringIcNS_11char_traitsIcEENS_9allocatorIcEEEEbxydS8_NS2_14adl_serializerENS0_IhNS8_IhEEEEvEENS8_ISE_EEE31__annotate_contiguous_containerB8ue170006EPKvSI_SI_SI_, symObjAddr: 0xA774, symBinAddr: 0x10000C170, symSize: 0x20 }
  - { offsetInCU: 0x54780, offset: 0x54780, size: 0x8, addend: 0x0, symName: __ZNKSt3__16vectorIN8nlohmann16json_abi_v3_11_310basic_jsonINS_3mapES0_NS_12basic_stringIcNS_11char_traitsIcEENS_9allocatorIcEEEEbxydS8_NS2_14adl_serializerENS0_IhNS8_IhEEEEvEENS8_ISE_EEE4dataB8ue170006Ev, symObjAddr: 0xA794, symBinAddr: 0x10000C190, symSize: 0x28 }
  - { offsetInCU: 0x547A6, offset: 0x547A6, size: 0x8, addend: 0x0, symName: __ZNSt3__129_AllocatorDestroyRangeReverseINS_9allocatorIN8nlohmann16json_abi_v3_11_310basic_jsonINS_3mapENS_6vectorENS_12basic_stringIcNS_11char_traitsIcEENS1_IcEEEEbxydS1_NS3_14adl_serializerENS6_IhNS1_IhEEEEvEEEENS_16reverse_iteratorIPSF_EEEC1B8ue170006ERSG_RSJ_SM_, symObjAddr: 0xA81C, symBinAddr: 0x10000C218, symSize: 0x44 }
  - { offsetInCU: 0x547FD, offset: 0x547FD, size: 0x8, addend: 0x0, symName: __ZNSt3__116allocator_traitsINS_9allocatorIN8nlohmann16json_abi_v3_11_310basic_jsonINS_3mapENS_6vectorENS_12basic_stringIcNS_11char_traitsIcEENS1_IcEEEEbxydS1_NS3_14adl_serializerENS6_IhNS1_IhEEEEvEEEEE9constructB8ue170006ISF_JSF_EvEEvRSG_PT_DpOT0_, symObjAddr: 0xA8A8, symBinAddr: 0x10000C2A4, symSize: 0x34 }
  - { offsetInCU: 0x54854, offset: 0x54854, size: 0x8, addend: 0x0, symName: __ZNKSt3__116reverse_iteratorIPN8nlohmann16json_abi_v3_11_310basic_jsonINS_3mapENS_6vectorENS_12basic_stringIcNS_11char_traitsIcEENS_9allocatorIcEEEEbxydS9_NS2_14adl_serializerENS5_IhNS9_IhEEEEvEEEdeB8ue170006Ev, symObjAddr: 0xA900, symBinAddr: 0x10000C2FC, symSize: 0x28 }
  - { offsetInCU: 0x54888, offset: 0x54888, size: 0x8, addend: 0x0, symName: __ZNSt3__116reverse_iteratorIPN8nlohmann16json_abi_v3_11_310basic_jsonINS_3mapENS_6vectorENS_12basic_stringIcNS_11char_traitsIcEENS_9allocatorIcEEEEbxydS9_NS2_14adl_serializerENS5_IhNS9_IhEEEEvEEEppB8ue170006Ev, symObjAddr: 0xA928, symBinAddr: 0x10000C324, symSize: 0x20 }
  - { offsetInCU: 0x548AE, offset: 0x548AE, size: 0x8, addend: 0x0, symName: __ZNSt3__128__exception_guard_exceptionsINS_29_AllocatorDestroyRangeReverseINS_9allocatorIN8nlohmann16json_abi_v3_11_310basic_jsonINS_3mapENS_6vectorENS_12basic_stringIcNS_11char_traitsIcEENS2_IcEEEEbxydS2_NS4_14adl_serializerENS7_IhNS2_IhEEEEvEEEENS_16reverse_iteratorIPSG_EEEEE10__completeB8ue170006Ev, symObjAddr: 0xA948, symBinAddr: 0x10000C344, symSize: 0x1C }
  - { offsetInCU: 0x548D4, offset: 0x548D4, size: 0x8, addend: 0x0, symName: __ZNSt3__128__exception_guard_exceptionsINS_29_AllocatorDestroyRangeReverseINS_9allocatorIN8nlohmann16json_abi_v3_11_310basic_jsonINS_3mapENS_6vectorENS_12basic_stringIcNS_11char_traitsIcEENS2_IcEEEEbxydS2_NS4_14adl_serializerENS7_IhNS2_IhEEEEvEEEENS_16reverse_iteratorIPSG_EEEEED1B8ue170006Ev, symObjAddr: 0xA964, symBinAddr: 0x10000C360, symSize: 0x2C }
  - { offsetInCU: 0x548FE, offset: 0x548FE, size: 0x8, addend: 0x0, symName: __ZNSt3__128__exception_guard_exceptionsINS_29_AllocatorDestroyRangeReverseINS_9allocatorIN8nlohmann16json_abi_v3_11_310basic_jsonINS_3mapENS_6vectorENS_12basic_stringIcNS_11char_traitsIcEENS2_IcEEEEbxydS2_NS4_14adl_serializerENS7_IhNS2_IhEEEEvEEEENS_16reverse_iteratorIPSG_EEEEEC1B8ue170006ESL_, symObjAddr: 0xA990, symBinAddr: 0x10000C38C, symSize: 0x34 }
  - { offsetInCU: 0x54937, offset: 0x54937, size: 0x8, addend: 0x0, symName: __ZNSt3__128__exception_guard_exceptionsINS_29_AllocatorDestroyRangeReverseINS_9allocatorIN8nlohmann16json_abi_v3_11_310basic_jsonINS_3mapENS_6vectorENS_12basic_stringIcNS_11char_traitsIcEENS2_IcEEEEbxydS2_NS4_14adl_serializerENS7_IhNS2_IhEEEEvEEEENS_16reverse_iteratorIPSG_EEEEEC2B8ue170006ESL_, symObjAddr: 0xA9C4, symBinAddr: 0x10000C3C0, symSize: 0x30 }
  - { offsetInCU: 0x54970, offset: 0x54970, size: 0x8, addend: 0x0, symName: __ZNSt3__129_AllocatorDestroyRangeReverseINS_9allocatorIN8nlohmann16json_abi_v3_11_310basic_jsonINS_3mapENS_6vectorENS_12basic_stringIcNS_11char_traitsIcEENS1_IcEEEEbxydS1_NS3_14adl_serializerENS6_IhNS1_IhEEEEvEEEENS_16reverse_iteratorIPSF_EEEC2B8ue170006ERSG_RSJ_SM_, symObjAddr: 0xA9F4, symBinAddr: 0x10000C3F0, symSize: 0x38 }
  - { offsetInCU: 0x549C7, offset: 0x549C7, size: 0x8, addend: 0x0, symName: __ZNSt3__19allocatorIN8nlohmann16json_abi_v3_11_310basic_jsonINS_3mapENS_6vectorENS_12basic_stringIcNS_11char_traitsIcEENS0_IcEEEEbxydS0_NS2_14adl_serializerENS5_IhNS0_IhEEEEvEEE9constructB8ue170006ISE_JSE_EEEvPT_DpOT0_, symObjAddr: 0xAA2C, symBinAddr: 0x10000C428, symSize: 0x30 }
  - { offsetInCU: 0x54A23, offset: 0x54A23, size: 0x8, addend: 0x0, symName: __ZNSt3__119__to_address_helperINS_16reverse_iteratorIPN8nlohmann16json_abi_v3_11_310basic_jsonINS_3mapENS_6vectorENS_12basic_stringIcNS_11char_traitsIcEENS_9allocatorIcEEEEbxydSA_NS3_14adl_serializerENS6_IhNSA_IhEEEEvEEEEvE6__callB8ue170006ERKSI_, symObjAddr: 0xAA5C, symBinAddr: 0x10000C458, symSize: 0x38 }
  - { offsetInCU: 0x54A46, offset: 0x54A46, size: 0x8, addend: 0x0, symName: __ZNKSt3__116reverse_iteratorIPN8nlohmann16json_abi_v3_11_310basic_jsonINS_3mapENS_6vectorENS_12basic_stringIcNS_11char_traitsIcEENS_9allocatorIcEEEEbxydS9_NS2_14adl_serializerENS5_IhNS9_IhEEEEvEEEptB8ue170006Ev, symObjAddr: 0xAA94, symBinAddr: 0x10000C490, symSize: 0x24 }
  - { offsetInCU: 0x54A6C, offset: 0x54A6C, size: 0x8, addend: 0x0, symName: __ZNSt3__128__exception_guard_exceptionsINS_29_AllocatorDestroyRangeReverseINS_9allocatorIN8nlohmann16json_abi_v3_11_310basic_jsonINS_3mapENS_6vectorENS_12basic_stringIcNS_11char_traitsIcEENS2_IcEEEEbxydS2_NS4_14adl_serializerENS7_IhNS2_IhEEEEvEEEENS_16reverse_iteratorIPSG_EEEEED2B8ue170006Ev, symObjAddr: 0xAAB8, symBinAddr: 0x10000C4B4, symSize: 0x50 }
  - { offsetInCU: 0x54A96, offset: 0x54A96, size: 0x8, addend: 0x0, symName: __ZNKSt3__129_AllocatorDestroyRangeReverseINS_9allocatorIN8nlohmann16json_abi_v3_11_310basic_jsonINS_3mapENS_6vectorENS_12basic_stringIcNS_11char_traitsIcEENS1_IcEEEEbxydS1_NS3_14adl_serializerENS6_IhNS1_IhEEEEvEEEENS_16reverse_iteratorIPSF_EEEclB8ue170006Ev, symObjAddr: 0xAB08, symBinAddr: 0x10000C504, symSize: 0xB4 }
  - { offsetInCU: 0x54ABD, offset: 0x54ABD, size: 0x8, addend: 0x0, symName: __ZNSt3__116reverse_iteratorINS0_IPN8nlohmann16json_abi_v3_11_310basic_jsonINS_3mapENS_6vectorENS_12basic_stringIcNS_11char_traitsIcEENS_9allocatorIcEEEEbxydS9_NS2_14adl_serializerENS5_IhNS9_IhEEEEvEEEEEC1B8ue170006ESH_, symObjAddr: 0xAC2C, symBinAddr: 0x10000C628, symSize: 0x3C }
  - { offsetInCU: 0x54AF5, offset: 0x54AF5, size: 0x8, addend: 0x0, symName: __ZNSt3__116allocator_traitsINS_9allocatorIN8nlohmann16json_abi_v3_11_310basic_jsonINS_3mapENS_6vectorENS_12basic_stringIcNS_11char_traitsIcEENS1_IcEEEEbxydS1_NS3_14adl_serializerENS6_IhNS1_IhEEEEvEEEEE7destroyB8ue170006ISF_vEEvRSG_PT_, symObjAddr: 0xACC8, symBinAddr: 0x10000C6C4, symSize: 0x2C }
  - { offsetInCU: 0x54B32, offset: 0x54B32, size: 0x8, addend: 0x0, symName: __ZNSt3__116reverse_iteratorINS0_IPN8nlohmann16json_abi_v3_11_310basic_jsonINS_3mapENS_6vectorENS_12basic_stringIcNS_11char_traitsIcEENS_9allocatorIcEEEEbxydS9_NS2_14adl_serializerENS5_IhNS9_IhEEEEvEEEEEppB8ue170006Ev, symObjAddr: 0xAD18, symBinAddr: 0x10000C714, symSize: 0x30 }
  - { offsetInCU: 0x54B58, offset: 0x54B58, size: 0x8, addend: 0x0, symName: __ZNKSt3__116reverse_iteratorINS0_IPN8nlohmann16json_abi_v3_11_310basic_jsonINS_3mapENS_6vectorENS_12basic_stringIcNS_11char_traitsIcEENS_9allocatorIcEEEEbxydS9_NS2_14adl_serializerENS5_IhNS9_IhEEEEvEEEEE4baseB8ue170006Ev, symObjAddr: 0xAD48, symBinAddr: 0x10000C744, symSize: 0x24 }
  - { offsetInCU: 0x54B7E, offset: 0x54B7E, size: 0x8, addend: 0x0, symName: __ZNSt3__19allocatorIN8nlohmann16json_abi_v3_11_310basic_jsonINS_3mapENS_6vectorENS_12basic_stringIcNS_11char_traitsIcEENS0_IcEEEEbxydS0_NS2_14adl_serializerENS5_IhNS0_IhEEEEvEEE7destroyB8ue170006EPSE_, symObjAddr: 0xAD6C, symBinAddr: 0x10000C768, symSize: 0x28 }
  - { offsetInCU: 0x54BB8, offset: 0x54BB8, size: 0x8, addend: 0x0, symName: __ZNSt3__119__to_address_helperINS_16reverse_iteratorINS1_IPN8nlohmann16json_abi_v3_11_310basic_jsonINS_3mapENS_6vectorENS_12basic_stringIcNS_11char_traitsIcEENS_9allocatorIcEEEEbxydSA_NS3_14adl_serializerENS6_IhNSA_IhEEEEvEEEEEEvE6__callB8ue170006ERKSJ_, symObjAddr: 0xAD94, symBinAddr: 0x10000C790, symSize: 0x38 }
  - { offsetInCU: 0x54BDB, offset: 0x54BDB, size: 0x8, addend: 0x0, symName: __ZNKSt3__116reverse_iteratorINS0_IPN8nlohmann16json_abi_v3_11_310basic_jsonINS_3mapENS_6vectorENS_12basic_stringIcNS_11char_traitsIcEENS_9allocatorIcEEEEbxydS9_NS2_14adl_serializerENS5_IhNS9_IhEEEEvEEEEEptB8ue170006Ev, symObjAddr: 0xADCC, symBinAddr: 0x10000C7C8, symSize: 0x24 }
  - { offsetInCU: 0x54C01, offset: 0x54C01, size: 0x8, addend: 0x0, symName: __ZNKSt3__116reverse_iteratorINS0_IPN8nlohmann16json_abi_v3_11_310basic_jsonINS_3mapENS_6vectorENS_12basic_stringIcNS_11char_traitsIcEENS_9allocatorIcEEEEbxydS9_NS2_14adl_serializerENS5_IhNS9_IhEEEEvEEEEEdeB8ue170006Ev, symObjAddr: 0xADF0, symBinAddr: 0x10000C7EC, symSize: 0x34 }
  - { offsetInCU: 0x54C35, offset: 0x54C35, size: 0x8, addend: 0x0, symName: __ZNSt3__116reverse_iteratorIPN8nlohmann16json_abi_v3_11_310basic_jsonINS_3mapENS_6vectorENS_12basic_stringIcNS_11char_traitsIcEENS_9allocatorIcEEEEbxydS9_NS2_14adl_serializerENS5_IhNS9_IhEEEEvEEEmmB8ue170006Ev, symObjAddr: 0xAE24, symBinAddr: 0x10000C820, symSize: 0x20 }
  - { offsetInCU: 0x54C5B, offset: 0x54C5B, size: 0x8, addend: 0x0, symName: __ZNSt3__116reverse_iteratorINS0_IPN8nlohmann16json_abi_v3_11_310basic_jsonINS_3mapENS_6vectorENS_12basic_stringIcNS_11char_traitsIcEENS_9allocatorIcEEEEbxydS9_NS2_14adl_serializerENS5_IhNS9_IhEEEEvEEEEEC2B8ue170006ESH_, symObjAddr: 0xAE44, symBinAddr: 0x10000C840, symSize: 0x2C }
  - { offsetInCU: 0x54C93, offset: 0x54C93, size: 0x8, addend: 0x0, symName: __ZNSt3__116reverse_iteratorIPN8nlohmann16json_abi_v3_11_310basic_jsonINS_3mapENS_6vectorENS_12basic_stringIcNS_11char_traitsIcEENS_9allocatorIcEEEEbxydS9_NS2_14adl_serializerENS5_IhNS9_IhEEEEvEEEC2B8ue170006ESG_, symObjAddr: 0xAE70, symBinAddr: 0x10000C86C, symSize: 0x28 }
  - { offsetInCU: 0x54CCB, offset: 0x54CCB, size: 0x8, addend: 0x0, symName: __ZNSt3__117__compressed_pairIPN8nlohmann16json_abi_v3_11_310basic_jsonINS_3mapENS_6vectorENS_12basic_stringIcNS_11char_traitsIcEENS_9allocatorIcEEEEbxydS9_NS2_14adl_serializerENS5_IhNS9_IhEEEEvEENS9_ISF_EEE5firstB8ue170006Ev, symObjAddr: 0xAE98, symBinAddr: 0x10000C894, symSize: 0x24 }
  - { offsetInCU: 0x54CF1, offset: 0x54CF1, size: 0x8, addend: 0x0, symName: __ZNSt3__114__split_bufferIN8nlohmann16json_abi_v3_11_310basic_jsonINS_3mapENS_6vectorENS_12basic_stringIcNS_11char_traitsIcEENS_9allocatorIcEEEEbxydS9_NS2_14adl_serializerENS5_IhNS9_IhEEEEvEERNS9_ISF_EEED2Ev, symObjAddr: 0xAEBC, symBinAddr: 0x10000C8B8, symSize: 0x8C }
  - { offsetInCU: 0x54D1D, offset: 0x54D1D, size: 0x8, addend: 0x0, symName: __ZNSt3__114__split_bufferIN8nlohmann16json_abi_v3_11_310basic_jsonINS_3mapENS_6vectorENS_12basic_stringIcNS_11char_traitsIcEENS_9allocatorIcEEEEbxydS9_NS2_14adl_serializerENS5_IhNS9_IhEEEEvEERNS9_ISF_EEE5clearB8ue170006Ev, symObjAddr: 0xAF48, symBinAddr: 0x10000C944, symSize: 0x28 }
  - { offsetInCU: 0x54D43, offset: 0x54D43, size: 0x8, addend: 0x0, symName: __ZNSt3__116allocator_traitsINS_9allocatorIN8nlohmann16json_abi_v3_11_310basic_jsonINS_3mapENS_6vectorENS_12basic_stringIcNS_11char_traitsIcEENS1_IcEEEEbxydS1_NS3_14adl_serializerENS6_IhNS1_IhEEEEvEEEEE10deallocateB8ue170006ERSG_PSF_m, symObjAddr: 0xAF70, symBinAddr: 0x10000C96C, symSize: 0x34 }
  - { offsetInCU: 0x54D85, offset: 0x54D85, size: 0x8, addend: 0x0, symName: __ZNKSt3__114__split_bufferIN8nlohmann16json_abi_v3_11_310basic_jsonINS_3mapENS_6vectorENS_12basic_stringIcNS_11char_traitsIcEENS_9allocatorIcEEEEbxydS9_NS2_14adl_serializerENS5_IhNS9_IhEEEEvEERNS9_ISF_EEE8capacityB8ue170006Ev, symObjAddr: 0xAFA4, symBinAddr: 0x10000C9A0, symSize: 0x40 }
  - { offsetInCU: 0x54DAB, offset: 0x54DAB, size: 0x8, addend: 0x0, symName: __ZNSt3__114__split_bufferIN8nlohmann16json_abi_v3_11_310basic_jsonINS_3mapENS_6vectorENS_12basic_stringIcNS_11char_traitsIcEENS_9allocatorIcEEEEbxydS9_NS2_14adl_serializerENS5_IhNS9_IhEEEEvEERNS9_ISF_EEE17__destruct_at_endB8ue170006EPSF_, symObjAddr: 0xAFE4, symBinAddr: 0x10000C9E0, symSize: 0x2C }
  - { offsetInCU: 0x54DDF, offset: 0x54DDF, size: 0x8, addend: 0x0, symName: __ZNSt3__114__split_bufferIN8nlohmann16json_abi_v3_11_310basic_jsonINS_3mapENS_6vectorENS_12basic_stringIcNS_11char_traitsIcEENS_9allocatorIcEEEEbxydS9_NS2_14adl_serializerENS5_IhNS9_IhEEEEvEERNS9_ISF_EEE17__destruct_at_endB8ue170006EPSF_NS_17integral_constantIbLb0EEE, symObjAddr: 0xB010, symBinAddr: 0x10000CA0C, symSize: 0x80 }
  - { offsetInCU: 0x54E20, offset: 0x54E20, size: 0x8, addend: 0x0, symName: __ZNSt3__19allocatorIN8nlohmann16json_abi_v3_11_310basic_jsonINS_3mapENS_6vectorENS_12basic_stringIcNS_11char_traitsIcEENS0_IcEEEEbxydS0_NS2_14adl_serializerENS5_IhNS0_IhEEEEvEEE10deallocateB8ue170006EPSE_m, symObjAddr: 0xB090, symBinAddr: 0x10000CA8C, symSize: 0x40 }
  - { offsetInCU: 0x54E62, offset: 0x54E62, size: 0x8, addend: 0x0, symName: __ZNKSt3__114__split_bufferIN8nlohmann16json_abi_v3_11_310basic_jsonINS_3mapENS_6vectorENS_12basic_stringIcNS_11char_traitsIcEENS_9allocatorIcEEEEbxydS9_NS2_14adl_serializerENS5_IhNS9_IhEEEEvEERNS9_ISF_EEE9__end_capB8ue170006Ev, symObjAddr: 0xB0D0, symBinAddr: 0x10000CACC, symSize: 0x28 }
  - { offsetInCU: 0x54E88, offset: 0x54E88, size: 0x8, addend: 0x0, symName: __ZNKSt3__117__compressed_pairIPN8nlohmann16json_abi_v3_11_310basic_jsonINS_3mapENS_6vectorENS_12basic_stringIcNS_11char_traitsIcEENS_9allocatorIcEEEEbxydS9_NS2_14adl_serializerENS5_IhNS9_IhEEEEvEERNS9_ISF_EEE5firstB8ue170006Ev, symObjAddr: 0xB0F8, symBinAddr: 0x10000CAF4, symSize: 0x24 }
  - { offsetInCU: 0x54ED6, offset: 0x54ED6, size: 0x8, addend: 0x0, symName: __ZNKSt3__111__move_loopINS_17_ClassicAlgPolicyEEclB8ue170006IPN8nlohmann16json_abi_v3_11_310basic_jsonINS_3mapENS_6vectorENS_12basic_stringIcNS_11char_traitsIcEENS_9allocatorIcEEEEbxydSC_NS5_14adl_serializerENS8_IhNSC_IhEEEEvEESJ_NS_20back_insert_iteratorINS8_ISI_NSC_ISI_EEEEEEEENS_4pairIT_T1_EESP_T0_SQ_, symObjAddr: 0xB32C, symBinAddr: 0x10000CD28, symSize: 0x98 }
  - { offsetInCU: 0x54F64, offset: 0x54F64, size: 0x8, addend: 0x0, symName: __ZNSt3__14pairIPN8nlohmann16json_abi_v3_11_310basic_jsonINS_3mapENS_6vectorENS_12basic_stringIcNS_11char_traitsIcEENS_9allocatorIcEEEEbxydS9_NS2_14adl_serializerENS5_IhNS9_IhEEEEvEESG_EC1B8ue170006ISG_SG_LPv0EEEOT_OT0_, symObjAddr: 0xB524, symBinAddr: 0x10000CF20, symSize: 0x3C }
  - { offsetInCU: 0x54FC2, offset: 0x54FC2, size: 0x8, addend: 0x0, symName: __ZNSt3__14pairIPN8nlohmann16json_abi_v3_11_310basic_jsonINS_3mapENS_6vectorENS_12basic_stringIcNS_11char_traitsIcEENS_9allocatorIcEEEEbxydS9_NS2_14adl_serializerENS5_IhNS9_IhEEEEvEESG_EC2B8ue170006ISG_SG_LPv0EEEOT_OT0_, symObjAddr: 0xB560, symBinAddr: 0x10000CF5C, symSize: 0x34 }
  - { offsetInCU: 0x55020, offset: 0x55020, size: 0x8, addend: 0x0, symName: __ZNSt3__118__unwrap_iter_implINS_11__wrap_iterIPN8nlohmann16json_abi_v3_11_310basic_jsonINS_3mapENS_6vectorENS_12basic_stringIcNS_11char_traitsIcEENS_9allocatorIcEEEEbxydSA_NS3_14adl_serializerENS6_IhNSA_IhEEEEvEEEELb1EE8__unwrapB8ue170006ESI_, symObjAddr: 0xB594, symBinAddr: 0x10000CF90, symSize: 0x28 }
  - { offsetInCU: 0x5504F, offset: 0x5504F, size: 0x8, addend: 0x0, symName: __ZNSt3__119__to_address_helperINS_11__wrap_iterIPN8nlohmann16json_abi_v3_11_310basic_jsonINS_3mapENS_6vectorENS_12basic_stringIcNS_11char_traitsIcEENS_9allocatorIcEEEEbxydSA_NS3_14adl_serializerENS6_IhNSA_IhEEEEvEEEEvE6__callB8ue170006ERKSI_, symObjAddr: 0xB5E0, symBinAddr: 0x10000CFDC, symSize: 0x30 }
  - { offsetInCU: 0x55072, offset: 0x55072, size: 0x8, addend: 0x0, symName: __ZNSt3__114pointer_traitsINS_11__wrap_iterIPN8nlohmann16json_abi_v3_11_310basic_jsonINS_3mapENS_6vectorENS_12basic_stringIcNS_11char_traitsIcEENS_9allocatorIcEEEEbxydSA_NS3_14adl_serializerENS6_IhNSA_IhEEEEvEEEEE10to_addressB8ue170006ESI_, symObjAddr: 0xB610, symBinAddr: 0x10000D00C, symSize: 0x2C }
  - { offsetInCU: 0x55095, offset: 0x55095, size: 0x8, addend: 0x0, symName: __ZNKSt3__111__wrap_iterIPN8nlohmann16json_abi_v3_11_310basic_jsonINS_3mapENS_6vectorENS_12basic_stringIcNS_11char_traitsIcEENS_9allocatorIcEEEEbxydS9_NS2_14adl_serializerENS5_IhNS9_IhEEEEvEEE4baseB8ue170006Ev, symObjAddr: 0xB63C, symBinAddr: 0x10000D038, symSize: 0x18 }
  - { offsetInCU: 0x550BB, offset: 0x550BB, size: 0x8, addend: 0x0, symName: __ZNSt3__18_IterOpsINS_17_ClassicAlgPolicyEE11__iter_moveB8ue170006IRPN8nlohmann16json_abi_v3_11_310basic_jsonINS_3mapENS_6vectorENS_12basic_stringIcNS_11char_traitsIcEENS_9allocatorIcEEEEbxydSC_NS5_14adl_serializerENS8_IhNSC_IhEEEEvEEEENS_9enable_ifIXsr12is_referenceIDTdeclsr3stdE7declvalIRT_EEEEE5valueEDTclsr3stdE4movedeclsr3stdE7declvalISN_EEEEE4typeEOSM_, symObjAddr: 0xB654, symBinAddr: 0x10000D050, symSize: 0x28 }
  - { offsetInCU: 0x550E7, offset: 0x550E7, size: 0x8, addend: 0x0, symName: __ZNSt3__120back_insert_iteratorINS_6vectorIN8nlohmann16json_abi_v3_11_310basic_jsonINS_3mapES1_NS_12basic_stringIcNS_11char_traitsIcEENS_9allocatorIcEEEEbxydS9_NS3_14adl_serializerENS1_IhNS9_IhEEEEvEENS9_ISF_EEEEEdeB8ue170006Ev, symObjAddr: 0xB67C, symBinAddr: 0x10000D078, symSize: 0x14 }
  - { offsetInCU: 0x5510D, offset: 0x5510D, size: 0x8, addend: 0x0, symName: __ZNSt3__120back_insert_iteratorINS_6vectorIN8nlohmann16json_abi_v3_11_310basic_jsonINS_3mapES1_NS_12basic_stringIcNS_11char_traitsIcEENS_9allocatorIcEEEEbxydS9_NS3_14adl_serializerENS1_IhNS9_IhEEEEvEENS9_ISF_EEEEEaSB8ue170006EOSF_, symObjAddr: 0xB690, symBinAddr: 0x10000D08C, symSize: 0x38 }
  - { offsetInCU: 0x55141, offset: 0x55141, size: 0x8, addend: 0x0, symName: __ZNSt3__120back_insert_iteratorINS_6vectorIN8nlohmann16json_abi_v3_11_310basic_jsonINS_3mapES1_NS_12basic_stringIcNS_11char_traitsIcEENS_9allocatorIcEEEEbxydS9_NS3_14adl_serializerENS1_IhNS9_IhEEEEvEENS9_ISF_EEEEEppB8ue170006Ev, symObjAddr: 0xB6C8, symBinAddr: 0x10000D0C4, symSize: 0x14 }
  - { offsetInCU: 0x55167, offset: 0x55167, size: 0x8, addend: 0x0, symName: __ZNSt3__18_IterOpsINS_17_ClassicAlgPolicyEE25__validate_iter_referenceB8ue170006IRPN8nlohmann16json_abi_v3_11_310basic_jsonINS_3mapENS_6vectorENS_12basic_stringIcNS_11char_traitsIcEENS_9allocatorIcEEEEbxydSC_NS5_14adl_serializerENS8_IhNSC_IhEEEEvEEEEvv, symObjAddr: 0xB714, symBinAddr: 0x10000D110, symSize: 0x4 }
  - { offsetInCU: 0x5518B, offset: 0x5518B, size: 0x8, addend: 0x0, symName: __ZNSt3__14pairIPN8nlohmann16json_abi_v3_11_310basic_jsonINS_3mapENS_6vectorENS_12basic_stringIcNS_11char_traitsIcEENS_9allocatorIcEEEEbxydS9_NS2_14adl_serializerENS5_IhNS9_IhEEEEvEENS_20back_insert_iteratorINS5_ISF_NS9_ISF_EEEEEEEC1B8ue170006ISG_SK_LPv0EEEOT_OT0_, symObjAddr: 0xB718, symBinAddr: 0x10000D114, symSize: 0x3C }
  - { offsetInCU: 0x551E9, offset: 0x551E9, size: 0x8, addend: 0x0, symName: __ZNSt3__14pairIPN8nlohmann16json_abi_v3_11_310basic_jsonINS_3mapENS_6vectorENS_12basic_stringIcNS_11char_traitsIcEENS_9allocatorIcEEEEbxydS9_NS2_14adl_serializerENS5_IhNS9_IhEEEEvEENS_20back_insert_iteratorINS5_ISF_NS9_ISF_EEEEEEEC2B8ue170006ISG_SK_LPv0EEEOT_OT0_, symObjAddr: 0xB754, symBinAddr: 0x10000D150, symSize: 0x34 }
  - { offsetInCU: 0x55247, offset: 0x55247, size: 0x8, addend: 0x0, symName: __ZNSt3__118__unwrap_iter_implINS_20back_insert_iteratorINS_6vectorIN8nlohmann16json_abi_v3_11_310basic_jsonINS_3mapES2_NS_12basic_stringIcNS_11char_traitsIcEENS_9allocatorIcEEEEbxydSA_NS4_14adl_serializerENS2_IhNSA_IhEEEEvEENSA_ISG_EEEEEELb0EE8__unwrapB8ue170006ESJ_, symObjAddr: 0xB788, symBinAddr: 0x10000D184, symSize: 0x1C }
  - { offsetInCU: 0x5528D, offset: 0x5528D, size: 0x8, addend: 0x0, symName: __ZNSt3__14pairINS_11__wrap_iterIPN8nlohmann16json_abi_v3_11_310basic_jsonINS_3mapENS_6vectorENS_12basic_stringIcNS_11char_traitsIcEENS_9allocatorIcEEEEbxydSA_NS3_14adl_serializerENS6_IhNSA_IhEEEEvEEEENS_20back_insert_iteratorINS6_ISG_NSA_ISG_EEEEEEEC1B8ue170006ISI_SM_LPv0EEEOT_OT0_, symObjAddr: 0xB7A4, symBinAddr: 0x10000D1A0, symSize: 0x3C }
  - { offsetInCU: 0x552EB, offset: 0x552EB, size: 0x8, addend: 0x0, symName: __ZNSt3__14pairINS_11__wrap_iterIPN8nlohmann16json_abi_v3_11_310basic_jsonINS_3mapENS_6vectorENS_12basic_stringIcNS_11char_traitsIcEENS_9allocatorIcEEEEbxydSA_NS3_14adl_serializerENS6_IhNSA_IhEEEEvEEEENS_20back_insert_iteratorINS6_ISG_NSA_ISG_EEEEEEEC2B8ue170006ISI_SM_LPv0EEEOT_OT0_, symObjAddr: 0xB7E0, symBinAddr: 0x10000D1DC, symSize: 0x34 }
  - { offsetInCU: 0x55349, offset: 0x55349, size: 0x8, addend: 0x0, symName: __ZNSt3__118__unwrap_iter_implINS_11__wrap_iterIPN8nlohmann16json_abi_v3_11_310basic_jsonINS_3mapENS_6vectorENS_12basic_stringIcNS_11char_traitsIcEENS_9allocatorIcEEEEbxydSA_NS3_14adl_serializerENS6_IhNSA_IhEEEEvEEEELb1EE8__rewrapB8ue170006ESI_SH_, symObjAddr: 0xB860, symBinAddr: 0x10000D25C, symSize: 0x5C }
  - { offsetInCU: 0x5537A, offset: 0x5537A, size: 0x8, addend: 0x0, symName: __ZNKSt3__111__wrap_iterIPN8nlohmann16json_abi_v3_11_310basic_jsonINS_3mapENS_6vectorENS_12basic_stringIcNS_11char_traitsIcEENS_9allocatorIcEEEEbxydS9_NS2_14adl_serializerENS5_IhNS9_IhEEEEvEEEplB8ue170006El, symObjAddr: 0xB8BC, symBinAddr: 0x10000D2B8, symSize: 0x3C }
  - { offsetInCU: 0x553BC, offset: 0x553BC, size: 0x8, addend: 0x0, symName: __ZNSt3__111__wrap_iterIPN8nlohmann16json_abi_v3_11_310basic_jsonINS_3mapENS_6vectorENS_12basic_stringIcNS_11char_traitsIcEENS_9allocatorIcEEEEbxydS9_NS2_14adl_serializerENS5_IhNS9_IhEEEEvEEEpLB8ue170006El, symObjAddr: 0xB8F8, symBinAddr: 0x10000D2F4, symSize: 0x28 }
  - { offsetInCU: 0x553F0, offset: 0x553F0, size: 0x8, addend: 0x0, symName: __ZNSt3__118__unwrap_iter_implINS_20back_insert_iteratorINS_6vectorIN8nlohmann16json_abi_v3_11_310basic_jsonINS_3mapES2_NS_12basic_stringIcNS_11char_traitsIcEENS_9allocatorIcEEEEbxydSA_NS4_14adl_serializerENS2_IhNSA_IhEEEEvEENSA_ISG_EEEEEELb0EE8__rewrapB8ue170006ESJ_SJ_, symObjAddr: 0xB920, symBinAddr: 0x10000D31C, symSize: 0x20 }
  - { offsetInCU: 0x5541E, offset: 0x5541E, size: 0x8, addend: 0x0, symName: __ZNSt3__16vectorIN8nlohmann16json_abi_v3_11_310basic_jsonINS_3mapES0_NS_12basic_stringIcNS_11char_traitsIcEENS_9allocatorIcEEEEbxydS8_NS2_14adl_serializerENS0_IhNS8_IhEEEEvEENS8_ISE_EEE11__make_iterB8ue170006EPSE_, symObjAddr: 0xB940, symBinAddr: 0x10000D33C, symSize: 0x30 }
  - { offsetInCU: 0x55453, offset: 0x55453, size: 0x8, addend: 0x0, symName: __ZNSt3__111__wrap_iterIPN8nlohmann16json_abi_v3_11_310basic_jsonINS_3mapENS_6vectorENS_12basic_stringIcNS_11char_traitsIcEENS_9allocatorIcEEEEbxydS9_NS2_14adl_serializerENS5_IhNS9_IhEEEEvEEEC1B8ue170006ESG_, symObjAddr: 0xB970, symBinAddr: 0x10000D36C, symSize: 0x34 }
  - { offsetInCU: 0x5548B, offset: 0x5548B, size: 0x8, addend: 0x0, symName: __ZNSt3__111__wrap_iterIPN8nlohmann16json_abi_v3_11_310basic_jsonINS_3mapENS_6vectorENS_12basic_stringIcNS_11char_traitsIcEENS_9allocatorIcEEEEbxydS9_NS2_14adl_serializerENS5_IhNS9_IhEEEEvEEEC2B8ue170006ESG_, symObjAddr: 0xB9A4, symBinAddr: 0x10000D3A0, symSize: 0x20 }
  - { offsetInCU: 0x554C3, offset: 0x554C3, size: 0x8, addend: 0x0, symName: __ZNSt3__120back_insert_iteratorINS_6vectorIN8nlohmann16json_abi_v3_11_310basic_jsonINS_3mapES1_NS_12basic_stringIcNS_11char_traitsIcEENS_9allocatorIcEEEEbxydS9_NS3_14adl_serializerENS1_IhNS9_IhEEEEvEENS9_ISF_EEEEEC1B8ue170006ERSH_, symObjAddr: 0xB9C4, symBinAddr: 0x10000D3C0, symSize: 0x34 }
  - { offsetInCU: 0x554FB, offset: 0x554FB, size: 0x8, addend: 0x0, symName: __ZNSt3__120back_insert_iteratorINS_6vectorIN8nlohmann16json_abi_v3_11_310basic_jsonINS_3mapES1_NS_12basic_stringIcNS_11char_traitsIcEENS_9allocatorIcEEEEbxydS9_NS3_14adl_serializerENS1_IhNS9_IhEEEEvEENS9_ISF_EEEEEC2B8ue170006ERSH_, symObjAddr: 0xB9F8, symBinAddr: 0x10000D3F4, symSize: 0x20 }
  - { offsetInCU: 0x55533, offset: 0x55533, size: 0x8, addend: 0x0, symName: __ZNKSt3__16__treeINS_12__value_typeINS_12basic_stringIcNS_11char_traitsIcEENS_9allocatorIcEEEEN8nlohmann16json_abi_v3_11_310basic_jsonINS_3mapENS_6vectorES7_bxydS5_NS9_14adl_serializerENSC_IhNS5_IhEEEEvEEEENS_19__map_value_compareIS7_SH_NS_4lessIvEELb1EEENS5_ISH_EEE4sizeB8ue170006Ev, symObjAddr: 0xBA18, symBinAddr: 0x10000D414, symSize: 0x28 }
  - { offsetInCU: 0x55559, offset: 0x55559, size: 0x8, addend: 0x0, symName: __ZNKSt3__117__compressed_pairImNS_19__map_value_compareINS_12basic_stringIcNS_11char_traitsIcEENS_9allocatorIcEEEENS_12__value_typeIS7_N8nlohmann16json_abi_v3_11_310basic_jsonINS_3mapENS_6vectorES7_bxydS5_NSA_14adl_serializerENSD_IhNS5_IhEEEEvEEEENS_4lessIvEELb1EEEE5firstB8ue170006Ev, symObjAddr: 0xBA40, symBinAddr: 0x10000D43C, symSize: 0x24 }
  - { offsetInCU: 0x5557F, offset: 0x5557F, size: 0x8, addend: 0x0, symName: __ZNKSt3__122__compressed_pair_elemImLi0ELb0EE5__getB8ue170006Ev, symObjAddr: 0xBA64, symBinAddr: 0x10000D460, symSize: 0x14 }
  - { offsetInCU: 0x555A5, offset: 0x555A5, size: 0x8, addend: 0x0, symName: __ZNSt3__16__treeINS_12__value_typeINS_12basic_stringIcNS_11char_traitsIcEENS_9allocatorIcEEEEN8nlohmann16json_abi_v3_11_310basic_jsonINS_3mapENS_6vectorES7_bxydS5_NS9_14adl_serializerENSC_IhNS5_IhEEEEvEEEENS_19__map_value_compareIS7_SH_NS_4lessIvEELb1EEENS5_ISH_EEE5beginB8ue170006Ev, symObjAddr: 0xBA78, symBinAddr: 0x10000D474, symSize: 0x34 }
  - { offsetInCU: 0x555CB, offset: 0x555CB, size: 0x8, addend: 0x0, symName: __ZNSt3__114__map_iteratorINS_15__tree_iteratorINS_12__value_typeINS_12basic_stringIcNS_11char_traitsIcEENS_9allocatorIcEEEEN8nlohmann16json_abi_v3_11_310basic_jsonINS_3mapENS_6vectorES8_bxydS6_NSA_14adl_serializerENSD_IhNS6_IhEEEEvEEEEPNS_11__tree_nodeISI_PvEElEEEC1B8ue170006ESN_, symObjAddr: 0xBAAC, symBinAddr: 0x10000D4A8, symSize: 0x34 }
  - { offsetInCU: 0x55604, offset: 0x55604, size: 0x8, addend: 0x0, symName: __ZNSt3__16__treeINS_12__value_typeINS_12basic_stringIcNS_11char_traitsIcEENS_9allocatorIcEEEEN8nlohmann16json_abi_v3_11_310basic_jsonINS_3mapENS_6vectorES7_bxydS5_NS9_14adl_serializerENSC_IhNS5_IhEEEEvEEEENS_19__map_value_compareIS7_SH_NS_4lessIvEELb1EEENS5_ISH_EEE12__begin_nodeB8ue170006Ev, symObjAddr: 0xBAE0, symBinAddr: 0x10000D4DC, symSize: 0x14 }
  - { offsetInCU: 0x5562A, offset: 0x5562A, size: 0x8, addend: 0x0, symName: __ZNSt3__115__tree_iteratorINS_12__value_typeINS_12basic_stringIcNS_11char_traitsIcEENS_9allocatorIcEEEEN8nlohmann16json_abi_v3_11_310basic_jsonINS_3mapENS_6vectorES7_bxydS5_NS9_14adl_serializerENSC_IhNS5_IhEEEEvEEEEPNS_11__tree_nodeISH_PvEElEC1B8ue170006EPNS_15__tree_end_nodeIPNS_16__tree_node_baseISJ_EEEE, symObjAddr: 0xBAF4, symBinAddr: 0x10000D4F0, symSize: 0x34 }
  - { offsetInCU: 0x55663, offset: 0x55663, size: 0x8, addend: 0x0, symName: __ZNSt3__115__tree_iteratorINS_12__value_typeINS_12basic_stringIcNS_11char_traitsIcEENS_9allocatorIcEEEEN8nlohmann16json_abi_v3_11_310basic_jsonINS_3mapENS_6vectorES7_bxydS5_NS9_14adl_serializerENSC_IhNS5_IhEEEEvEEEEPNS_11__tree_nodeISH_PvEElEC2B8ue170006EPNS_15__tree_end_nodeIPNS_16__tree_node_baseISJ_EEEE, symObjAddr: 0xBB28, symBinAddr: 0x10000D524, symSize: 0x20 }
  - { offsetInCU: 0x5569C, offset: 0x5569C, size: 0x8, addend: 0x0, symName: __ZNSt3__114__map_iteratorINS_15__tree_iteratorINS_12__value_typeINS_12basic_stringIcNS_11char_traitsIcEENS_9allocatorIcEEEEN8nlohmann16json_abi_v3_11_310basic_jsonINS_3mapENS_6vectorES8_bxydS6_NSA_14adl_serializerENSD_IhNS6_IhEEEEvEEEEPNS_11__tree_nodeISI_PvEElEEEC2B8ue170006ESN_, symObjAddr: 0xBB48, symBinAddr: 0x10000D544, symSize: 0x20 }
  - { offsetInCU: 0x556D5, offset: 0x556D5, size: 0x8, addend: 0x0, symName: __ZNSt3__16__treeINS_12__value_typeINS_12basic_stringIcNS_11char_traitsIcEENS_9allocatorIcEEEEN8nlohmann16json_abi_v3_11_310basic_jsonINS_3mapENS_6vectorES7_bxydS5_NS9_14adl_serializerENSC_IhNS5_IhEEEEvEEEENS_19__map_value_compareIS7_SH_NS_4lessIvEELb1EEENS5_ISH_EEE3endB8ue170006Ev, symObjAddr: 0xBB68, symBinAddr: 0x10000D564, symSize: 0x34 }
  - { offsetInCU: 0x556FB, offset: 0x556FB, size: 0x8, addend: 0x0, symName: __ZNSt3__16__treeINS_12__value_typeINS_12basic_stringIcNS_11char_traitsIcEENS_9allocatorIcEEEEN8nlohmann16json_abi_v3_11_310basic_jsonINS_3mapENS_6vectorES7_bxydS5_NS9_14adl_serializerENSC_IhNS5_IhEEEEvEEEENS_19__map_value_compareIS7_SH_NS_4lessIvEELb1EEENS5_ISH_EEE10__end_nodeB8ue170006Ev, symObjAddr: 0xBB9C, symBinAddr: 0x10000D598, symSize: 0x2C }
  - { offsetInCU: 0x55721, offset: 0x55721, size: 0x8, addend: 0x0, symName: __ZNSt3__114pointer_traitsIPNS_15__tree_end_nodeIPNS_16__tree_node_baseIPvEEEEE10pointer_toB8ue170006ERS6_, symObjAddr: 0xBBC8, symBinAddr: 0x10000D5C4, symSize: 0x14 }
  - { offsetInCU: 0x55744, offset: 0x55744, size: 0x8, addend: 0x0, symName: __ZNSt3__117__compressed_pairINS_15__tree_end_nodeIPNS_16__tree_node_baseIPvEEEENS_9allocatorINS_11__tree_nodeINS_12__value_typeINS_12basic_stringIcNS_11char_traitsIcEENS7_IcEEEEN8nlohmann16json_abi_v3_11_310basic_jsonINS_3mapENS_6vectorESE_bxydS7_NSG_14adl_serializerENSJ_IhNS7_IhEEEEvEEEES3_EEEEE5firstB8ue170006Ev, symObjAddr: 0xBBDC, symBinAddr: 0x10000D5D8, symSize: 0x24 }
  - { offsetInCU: 0x5576A, offset: 0x5576A, size: 0x8, addend: 0x0, symName: __ZNSt3__122__compressed_pair_elemINS_15__tree_end_nodeIPNS_16__tree_node_baseIPvEEEELi0ELb0EE5__getB8ue170006Ev, symObjAddr: 0xBC00, symBinAddr: 0x10000D5FC, symSize: 0x14 }
  - { offsetInCU: 0x55790, offset: 0x55790, size: 0x8, addend: 0x0, symName: __ZNKSt3__115__tree_iteratorINS_12__value_typeINS_12basic_stringIcNS_11char_traitsIcEENS_9allocatorIcEEEEN8nlohmann16json_abi_v3_11_310basic_jsonINS_3mapENS_6vectorES7_bxydS5_NS9_14adl_serializerENSC_IhNS5_IhEEEEvEEEEPNS_11__tree_nodeISH_PvEElEptB8ue170006Ev, symObjAddr: 0xBC78, symBinAddr: 0x10000D674, symSize: 0x2C }
  - { offsetInCU: 0x557B6, offset: 0x557B6, size: 0x8, addend: 0x0, symName: __ZNSt3__112__value_typeINS_12basic_stringIcNS_11char_traitsIcEENS_9allocatorIcEEEEN8nlohmann16json_abi_v3_11_310basic_jsonINS_3mapENS_6vectorES6_bxydS4_NS8_14adl_serializerENSB_IhNS4_IhEEEEvEEE11__get_valueB8ue170006Ev, symObjAddr: 0xBCA4, symBinAddr: 0x10000D6A0, symSize: 0x24 }
  - { offsetInCU: 0x557DC, offset: 0x557DC, size: 0x8, addend: 0x0, symName: __ZNSt3__114pointer_traitsIPNS_12__value_typeINS_12basic_stringIcNS_11char_traitsIcEENS_9allocatorIcEEEEN8nlohmann16json_abi_v3_11_310basic_jsonINS_3mapENS_6vectorES7_bxydS5_NS9_14adl_serializerENSC_IhNS5_IhEEEEvEEEEE10pointer_toB8ue170006ERSH_, symObjAddr: 0xBCC8, symBinAddr: 0x10000D6C4, symSize: 0x14 }
  - { offsetInCU: 0x557FF, offset: 0x557FF, size: 0x8, addend: 0x0, symName: __ZNKSt3__115__tree_iteratorINS_12__value_typeINS_12basic_stringIcNS_11char_traitsIcEENS_9allocatorIcEEEEN8nlohmann16json_abi_v3_11_310basic_jsonINS_3mapENS_6vectorES7_bxydS5_NS9_14adl_serializerENSC_IhNS5_IhEEEEvEEEEPNS_11__tree_nodeISH_PvEElE8__get_npB8ue170006Ev, symObjAddr: 0xBCDC, symBinAddr: 0x10000D6D8, symSize: 0x18 }
  - { offsetInCU: 0x55825, offset: 0x55825, size: 0x8, addend: 0x0, symName: __ZNSt3__16vectorIN8nlohmann16json_abi_v3_11_310basic_jsonINS_3mapES0_NS_12basic_stringIcNS_11char_traitsIcEENS_9allocatorIcEEEEbxydS8_NS2_14adl_serializerENS0_IhNS8_IhEEEEvEENS8_ISE_EEE22__construct_one_at_endB8ue170006IJSE_EEEvDpOT_, symObjAddr: 0xBD2C, symBinAddr: 0x10000D728, symSize: 0x90 }
  - { offsetInCU: 0x55874, offset: 0x55874, size: 0x8, addend: 0x0, symName: __ZNSt3__16vectorIN8nlohmann16json_abi_v3_11_310basic_jsonINS_3mapES0_NS_12basic_stringIcNS_11char_traitsIcEENS_9allocatorIcEEEEbxydS8_NS2_14adl_serializerENS0_IhNS8_IhEEEEvEENS8_ISE_EEE21__push_back_slow_pathISE_EEvOT_, symObjAddr: 0xBDBC, symBinAddr: 0x10000D7B8, symSize: 0xD8 }
  - { offsetInCU: 0x558EE, offset: 0x558EE, size: 0x8, addend: 0x0, symName: __ZNSt3__16vectorIN8nlohmann16json_abi_v3_11_310basic_jsonINS_3mapES0_NS_12basic_stringIcNS_11char_traitsIcEENS_9allocatorIcEEEEbxydS8_NS2_14adl_serializerENS0_IhNS8_IhEEEEvEENS8_ISE_EEE21_ConstructTransactionC1B8ue170006ERSG_m, symObjAddr: 0xBE94, symBinAddr: 0x10000D890, symSize: 0x3C }
  - { offsetInCU: 0x55936, offset: 0x55936, size: 0x8, addend: 0x0, symName: __ZNSt3__16vectorIN8nlohmann16json_abi_v3_11_310basic_jsonINS_3mapES0_NS_12basic_stringIcNS_11char_traitsIcEENS_9allocatorIcEEEEbxydS8_NS2_14adl_serializerENS0_IhNS8_IhEEEEvEENS8_ISE_EEE21_ConstructTransactionD1B8ue170006Ev, symObjAddr: 0xBED0, symBinAddr: 0x10000D8CC, symSize: 0x2C }
  - { offsetInCU: 0x55960, offset: 0x55960, size: 0x8, addend: 0x0, symName: __ZNSt3__16vectorIN8nlohmann16json_abi_v3_11_310basic_jsonINS_3mapES0_NS_12basic_stringIcNS_11char_traitsIcEENS_9allocatorIcEEEEbxydS8_NS2_14adl_serializerENS0_IhNS8_IhEEEEvEENS8_ISE_EEE21_ConstructTransactionC2B8ue170006ERSG_m, symObjAddr: 0xBEFC, symBinAddr: 0x10000D8F8, symSize: 0x44 }
  - { offsetInCU: 0x559A8, offset: 0x559A8, size: 0x8, addend: 0x0, symName: __ZNSt3__16vectorIN8nlohmann16json_abi_v3_11_310basic_jsonINS_3mapES0_NS_12basic_stringIcNS_11char_traitsIcEENS_9allocatorIcEEEEbxydS8_NS2_14adl_serializerENS0_IhNS8_IhEEEEvEENS8_ISE_EEE21_ConstructTransactionD2B8ue170006Ev, symObjAddr: 0xBF40, symBinAddr: 0x10000D93C, symSize: 0x20 }
  - { offsetInCU: 0x559D2, offset: 0x559D2, size: 0x8, addend: 0x0, symName: __ZNKSt3__16vectorIN8nlohmann16json_abi_v3_11_310basic_jsonINS_3mapES0_NS_12basic_stringIcNS_11char_traitsIcEENS_9allocatorIcEEEEbxydS8_NS2_14adl_serializerENS0_IhNS8_IhEEEEvEENS8_ISE_EEE11__recommendB8ue170006Em, symObjAddr: 0xBF60, symBinAddr: 0x10000D95C, symSize: 0xB4 }
  - { offsetInCU: 0x55A27, offset: 0x55A27, size: 0x8, addend: 0x0, symName: __ZNSt3__115__tree_iteratorINS_12__value_typeINS_12basic_stringIcNS_11char_traitsIcEENS_9allocatorIcEEEEN8nlohmann16json_abi_v3_11_310basic_jsonINS_3mapENS_6vectorES7_bxydS5_NS9_14adl_serializerENSC_IhNS5_IhEEEEvEEEEPNS_11__tree_nodeISH_PvEElEppB8ue170006Ev, symObjAddr: 0xC094, symBinAddr: 0x10000DA90, symSize: 0x38 }
  - { offsetInCU: 0x55A4D, offset: 0x55A4D, size: 0x8, addend: 0x0, symName: __ZNKSt3__116__tree_node_baseIPvE15__parent_unsafeB8ue170006Ev, symObjAddr: 0xC1C8, symBinAddr: 0x10000DBC4, symSize: 0x18 }
  - { offsetInCU: 0x55A73, offset: 0x55A73, size: 0x8, addend: 0x0, symName: __ZN8nlohmann16json_abi_v3_11_310basic_jsonINSt3__13mapENS2_6vectorENS2_12basic_stringIcNS2_11char_traitsIcEENS2_9allocatorIcEEEEbxydS8_NS0_14adl_serializerENS4_IhNS8_IhEEEEvEC2EOSE_, symObjAddr: 0xC1E0, symBinAddr: 0x10000DBDC, symSize: 0x80 }
  - { offsetInCU: 0x55AAC, offset: 0x55AAC, size: 0x8, addend: 0x0, symName: __ZN8nlohmann16json_abi_v3_11_310basic_jsonINSt3__13mapENS2_6vectorENS2_12basic_stringIcNS2_11char_traitsIcEENS2_9allocatorIcEEEEbxydS8_NS0_14adl_serializerENS4_IhNS8_IhEEEEvE11set_parentsEv, symObjAddr: 0xC260, symBinAddr: 0x10000DC5C, symSize: 0x10 }
  - { offsetInCU: 0x55AD2, offset: 0x55AD2, size: 0x8, addend: 0x0, symName: __ZNSt3__16vectorIN8nlohmann16json_abi_v3_11_310basic_jsonINS_3mapES0_NS_12basic_stringIcNS_11char_traitsIcEENS_9allocatorIcEEEEbxydS8_NS2_14adl_serializerENS0_IhNS8_IhEEEEvEENS8_ISE_EEE17__destruct_at_endB8ue170006EPSE_, symObjAddr: 0xC270, symBinAddr: 0x10000DC6C, symSize: 0x4C }
  - { offsetInCU: 0x55B16, offset: 0x55B16, size: 0x8, addend: 0x0, symName: __ZNSt3__16vectorIN8nlohmann16json_abi_v3_11_310basic_jsonINS_3mapES0_NS_12basic_stringIcNS_11char_traitsIcEENS_9allocatorIcEEEEbxydS8_NS2_14adl_serializerENS0_IhNS8_IhEEEEvEENS8_ISE_EEE22__base_destruct_at_endB8ue170006EPSE_, symObjAddr: 0xC2BC, symBinAddr: 0x10000DCB8, symSize: 0x8C }
  - { offsetInCU: 0x55B5A, offset: 0x55B5A, size: 0x8, addend: 0x0, symName: __ZNKSt3__16vectorIN8nlohmann16json_abi_v3_11_310basic_jsonINS_3mapES0_NS_12basic_stringIcNS_11char_traitsIcEENS_9allocatorIcEEEEbxydS8_NS2_14adl_serializerENS0_IhNS8_IhEEEEvEENS8_ISE_EEE17__annotate_shrinkB8ue170006Em, symObjAddr: 0xC348, symBinAddr: 0x10000DD44, symSize: 0xB4 }
  - { offsetInCU: 0x55B8F, offset: 0x55B8F, size: 0x8, addend: 0x0, symName: __ZNSt3__16vectorIN8nlohmann16json_abi_v3_11_310basic_jsonINS_3mapES0_NS_12basic_stringIcNS_11char_traitsIcEENS_9allocatorIcEEEEbxydS8_NS2_14adl_serializerENS0_IhNS8_IhEEEEvEENS8_ISE_EEE7__clearB8ue170006Ev, symObjAddr: 0xC3FC, symBinAddr: 0x10000DDF8, symSize: 0x28 }
  - { offsetInCU: 0x55BB5, offset: 0x55BB5, size: 0x8, addend: 0x0, symName: __ZNSt3__16__treeINS_12__value_typeINS_12basic_stringIcNS_11char_traitsIcEENS_9allocatorIcEEEEN8nlohmann16json_abi_v3_11_310basic_jsonINS_3mapENS_6vectorES7_bxydS5_NS9_14adl_serializerENSC_IhNS5_IhEEEEvEEEENS_19__map_value_compareIS7_SH_NS_4lessIvEELb1EEENS5_ISH_EEE5clearEv, symObjAddr: 0xC424, symBinAddr: 0x10000DE20, symSize: 0x74 }
  - { offsetInCU: 0x55BDD, offset: 0x55BDD, size: 0x8, addend: 0x0, symName: __ZNSt3__16__treeINS_12__value_typeINS_12basic_stringIcNS_11char_traitsIcEENS_9allocatorIcEEEEN8nlohmann16json_abi_v3_11_310basic_jsonINS_3mapENS_6vectorES7_bxydS5_NS9_14adl_serializerENSC_IhNS5_IhEEEEvEEEENS_19__map_value_compareIS7_SH_NS_4lessIvEELb1EEENS5_ISH_EEE7destroyEPNS_11__tree_nodeISH_PvEE, symObjAddr: 0xC498, symBinAddr: 0x10000DE94, symSize: 0xAC }
  - { offsetInCU: 0x55C29, offset: 0x55C29, size: 0x8, addend: 0x0, symName: __ZNKSt3__16__treeINS_12__value_typeINS_12basic_stringIcNS_11char_traitsIcEENS_9allocatorIcEEEEN8nlohmann16json_abi_v3_11_310basic_jsonINS_3mapENS_6vectorES7_bxydS5_NS9_14adl_serializerENSC_IhNS5_IhEEEEvEEEENS_19__map_value_compareIS7_SH_NS_4lessIvEELb1EEENS5_ISH_EEE6__rootB8ue170006Ev, symObjAddr: 0xC544, symBinAddr: 0x10000DF40, symSize: 0x28 }
  - { offsetInCU: 0x55C4F, offset: 0x55C4F, size: 0x8, addend: 0x0, symName: __ZNSt3__16__treeINS_12__value_typeINS_12basic_stringIcNS_11char_traitsIcEENS_9allocatorIcEEEEN8nlohmann16json_abi_v3_11_310basic_jsonINS_3mapENS_6vectorES7_bxydS5_NS9_14adl_serializerENSC_IhNS5_IhEEEEvEEEENS_19__map_value_compareIS7_SH_NS_4lessIvEELb1EEENS5_ISH_EEE4sizeB8ue170006Ev, symObjAddr: 0xC56C, symBinAddr: 0x10000DF68, symSize: 0x28 }
  - { offsetInCU: 0x55C75, offset: 0x55C75, size: 0x8, addend: 0x0, symName: __ZNSt3__16__treeINS_12__value_typeINS_12basic_stringIcNS_11char_traitsIcEENS_9allocatorIcEEEEN8nlohmann16json_abi_v3_11_310basic_jsonINS_3mapENS_6vectorES7_bxydS5_NS9_14adl_serializerENSC_IhNS5_IhEEEEvEEEENS_19__map_value_compareIS7_SH_NS_4lessIvEELb1EEENS5_ISH_EEE12__node_allocB8ue170006Ev, symObjAddr: 0xC594, symBinAddr: 0x10000DF90, symSize: 0x28 }
  - { offsetInCU: 0x55C9B, offset: 0x55C9B, size: 0x8, addend: 0x0, symName: __ZNSt3__116allocator_traitsINS_9allocatorINS_11__tree_nodeINS_12__value_typeINS_12basic_stringIcNS_11char_traitsIcEENS1_IcEEEEN8nlohmann16json_abi_v3_11_310basic_jsonINS_3mapENS_6vectorES8_bxydS1_NSA_14adl_serializerENSD_IhNS1_IhEEEEvEEEEPvEEEEE7destroyB8ue170006INS_4pairIKS8_SH_EEvvEEvRSL_PT_, symObjAddr: 0xC5BC, symBinAddr: 0x10000DFB8, symSize: 0x28 }
  - { offsetInCU: 0x55CD6, offset: 0x55CD6, size: 0x8, addend: 0x0, symName: __ZNSt3__122__tree_key_value_typesINS_12__value_typeINS_12basic_stringIcNS_11char_traitsIcEENS_9allocatorIcEEEEN8nlohmann16json_abi_v3_11_310basic_jsonINS_3mapENS_6vectorES7_bxydS5_NS9_14adl_serializerENSC_IhNS5_IhEEEEvEEEEE9__get_ptrB8ue170006ERSH_, symObjAddr: 0xC5E4, symBinAddr: 0x10000DFE0, symSize: 0x24 }
  - { offsetInCU: 0x55CFA, offset: 0x55CFA, size: 0x8, addend: 0x0, symName: __ZNSt3__116allocator_traitsINS_9allocatorINS_11__tree_nodeINS_12__value_typeINS_12basic_stringIcNS_11char_traitsIcEENS1_IcEEEEN8nlohmann16json_abi_v3_11_310basic_jsonINS_3mapENS_6vectorES8_bxydS1_NSA_14adl_serializerENSD_IhNS1_IhEEEEvEEEEPvEEEEE10deallocateB8ue170006ERSL_PSK_m, symObjAddr: 0xC608, symBinAddr: 0x10000E004, symSize: 0x34 }
  - { offsetInCU: 0x55D3C, offset: 0x55D3C, size: 0x8, addend: 0x0, symName: __ZNSt3__117__compressed_pairINS_15__tree_end_nodeIPNS_16__tree_node_baseIPvEEEENS_9allocatorINS_11__tree_nodeINS_12__value_typeINS_12basic_stringIcNS_11char_traitsIcEENS7_IcEEEEN8nlohmann16json_abi_v3_11_310basic_jsonINS_3mapENS_6vectorESE_bxydS7_NSG_14adl_serializerENSJ_IhNS7_IhEEEEvEEEES3_EEEEE6secondB8ue170006Ev, symObjAddr: 0xC63C, symBinAddr: 0x10000E038, symSize: 0x24 }
  - { offsetInCU: 0x55D62, offset: 0x55D62, size: 0x8, addend: 0x0, symName: __ZNSt3__122__compressed_pair_elemINS_9allocatorINS_11__tree_nodeINS_12__value_typeINS_12basic_stringIcNS_11char_traitsIcEENS1_IcEEEEN8nlohmann16json_abi_v3_11_310basic_jsonINS_3mapENS_6vectorES8_bxydS1_NSA_14adl_serializerENSD_IhNS1_IhEEEEvEEEEPvEEEELi1ELb1EE5__getB8ue170006Ev, symObjAddr: 0xC660, symBinAddr: 0x10000E05C, symSize: 0x14 }
  - { offsetInCU: 0x55D88, offset: 0x55D88, size: 0x8, addend: 0x0, symName: __ZNSt3__14pairIKNS_12basic_stringIcNS_11char_traitsIcEENS_9allocatorIcEEEEN8nlohmann16json_abi_v3_11_310basic_jsonINS_3mapENS_6vectorES6_bxydS4_NS9_14adl_serializerENSC_IhNS4_IhEEEEvEEED1Ev, symObjAddr: 0xC674, symBinAddr: 0x10000E070, symSize: 0x2C }
  - { offsetInCU: 0x55DB4, offset: 0x55DB4, size: 0x8, addend: 0x0, symName: __ZNSt3__14pairIKNS_12basic_stringIcNS_11char_traitsIcEENS_9allocatorIcEEEEN8nlohmann16json_abi_v3_11_310basic_jsonINS_3mapENS_6vectorES6_bxydS4_NS9_14adl_serializerENSC_IhNS4_IhEEEEvEEED2Ev, symObjAddr: 0xC6A0, symBinAddr: 0x10000E09C, symSize: 0x38 }
  - { offsetInCU: 0x55DE0, offset: 0x55DE0, size: 0x8, addend: 0x0, symName: __ZNSt3__19allocatorINS_11__tree_nodeINS_12__value_typeINS_12basic_stringIcNS_11char_traitsIcEENS0_IcEEEEN8nlohmann16json_abi_v3_11_310basic_jsonINS_3mapENS_6vectorES7_bxydS0_NS9_14adl_serializerENSC_IhNS0_IhEEEEvEEEEPvEEE10deallocateB8ue170006EPSJ_m, symObjAddr: 0xC6D8, symBinAddr: 0x10000E0D4, symSize: 0x44 }
  - { offsetInCU: 0x55E22, offset: 0x55E22, size: 0x8, addend: 0x0, symName: __ZNKSt3__16__treeINS_12__value_typeINS_12basic_stringIcNS_11char_traitsIcEENS_9allocatorIcEEEEN8nlohmann16json_abi_v3_11_310basic_jsonINS_3mapENS_6vectorES7_bxydS5_NS9_14adl_serializerENSC_IhNS5_IhEEEEvEEEENS_19__map_value_compareIS7_SH_NS_4lessIvEELb1EEENS5_ISH_EEE10__end_nodeB8ue170006Ev, symObjAddr: 0xC71C, symBinAddr: 0x10000E118, symSize: 0x2C }
  - { offsetInCU: 0x55E48, offset: 0x55E48, size: 0x8, addend: 0x0, symName: __ZNKSt3__117__compressed_pairINS_15__tree_end_nodeIPNS_16__tree_node_baseIPvEEEENS_9allocatorINS_11__tree_nodeINS_12__value_typeINS_12basic_stringIcNS_11char_traitsIcEENS7_IcEEEEN8nlohmann16json_abi_v3_11_310basic_jsonINS_3mapENS_6vectorESE_bxydS7_NSG_14adl_serializerENSJ_IhNS7_IhEEEEvEEEES3_EEEEE5firstB8ue170006Ev, symObjAddr: 0xC748, symBinAddr: 0x10000E144, symSize: 0x24 }
  - { offsetInCU: 0x55E6E, offset: 0x55E6E, size: 0x8, addend: 0x0, symName: __ZNKSt3__122__compressed_pair_elemINS_15__tree_end_nodeIPNS_16__tree_node_baseIPvEEEELi0ELb0EE5__getB8ue170006Ev, symObjAddr: 0xC76C, symBinAddr: 0x10000E168, symSize: 0x14 }
  - { offsetInCU: 0x55E94, offset: 0x55E94, size: 0x8, addend: 0x0, symName: __ZNSt3__117__compressed_pairImNS_19__map_value_compareINS_12basic_stringIcNS_11char_traitsIcEENS_9allocatorIcEEEENS_12__value_typeIS7_N8nlohmann16json_abi_v3_11_310basic_jsonINS_3mapENS_6vectorES7_bxydS5_NSA_14adl_serializerENSD_IhNS5_IhEEEEvEEEENS_4lessIvEELb1EEEE5firstB8ue170006Ev, symObjAddr: 0xC780, symBinAddr: 0x10000E17C, symSize: 0x24 }
  - { offsetInCU: 0x55EBA, offset: 0x55EBA, size: 0x8, addend: 0x0, symName: __ZNSt3__122__compressed_pair_elemImLi0ELb0EE5__getB8ue170006Ev, symObjAddr: 0xC7A4, symBinAddr: 0x10000E1A0, symSize: 0x14 }
  - { offsetInCU: 0x55EE0, offset: 0x55EE0, size: 0x8, addend: 0x0, symName: __ZNSt3__16vectorIN8nlohmann16json_abi_v3_11_310basic_jsonINS_3mapES0_NS_12basic_stringIcNS_11char_traitsIcEENS_9allocatorIcEEEEbxydS8_NS2_14adl_serializerENS0_IhNS8_IhEEEEvEENS8_ISE_EEED2B8ue170006Ev, symObjAddr: 0xC7B8, symBinAddr: 0x10000E1B4, symSize: 0x44 }
  - { offsetInCU: 0x55F0A, offset: 0x55F0A, size: 0x8, addend: 0x0, symName: __ZNSt3__16vectorIN8nlohmann16json_abi_v3_11_310basic_jsonINS_3mapES0_NS_12basic_stringIcNS_11char_traitsIcEENS_9allocatorIcEEEEbxydS8_NS2_14adl_serializerENS0_IhNS8_IhEEEEvEENS8_ISE_EEE16__destroy_vectorC1B8ue170006ERSG_, symObjAddr: 0xC7FC, symBinAddr: 0x10000E1F8, symSize: 0x34 }
  - { offsetInCU: 0x55F43, offset: 0x55F43, size: 0x8, addend: 0x0, symName: __ZNSt3__16vectorIN8nlohmann16json_abi_v3_11_310basic_jsonINS_3mapES0_NS_12basic_stringIcNS_11char_traitsIcEENS_9allocatorIcEEEEbxydS8_NS2_14adl_serializerENS0_IhNS8_IhEEEEvEENS8_ISE_EEE16__destroy_vectorclB8ue170006Ev, symObjAddr: 0xC830, symBinAddr: 0x10000E22C, symSize: 0x90 }
  - { offsetInCU: 0x55F69, offset: 0x55F69, size: 0x8, addend: 0x0, symName: __ZNSt3__16vectorIN8nlohmann16json_abi_v3_11_310basic_jsonINS_3mapES0_NS_12basic_stringIcNS_11char_traitsIcEENS_9allocatorIcEEEEbxydS8_NS2_14adl_serializerENS0_IhNS8_IhEEEEvEENS8_ISE_EEE16__destroy_vectorC2B8ue170006ERSG_, symObjAddr: 0xC8C0, symBinAddr: 0x10000E2BC, symSize: 0x20 }
  - { offsetInCU: 0x55FA2, offset: 0x55FA2, size: 0x8, addend: 0x0, symName: __ZNSt3__19allocatorINS_3mapINS_12basic_stringIcNS_11char_traitsIcEENS0_IcEEEEN8nlohmann16json_abi_v3_11_310basic_jsonIS1_NS_6vectorES6_bxydS0_NS8_14adl_serializerENSA_IhNS0_IhEEEEvEENS_4lessIvEENS0_INS_4pairIKS6_SE_EEEEEEEC2B8ue170006Ev, symObjAddr: 0xC8E0, symBinAddr: 0x10000E2DC, symSize: 0x2C }
  - { offsetInCU: 0x55FCC, offset: 0x55FCC, size: 0x8, addend: 0x0, symName: __ZNSt3__116__non_trivial_ifILb1ENS_9allocatorINS_3mapINS_12basic_stringIcNS_11char_traitsIcEENS1_IcEEEEN8nlohmann16json_abi_v3_11_310basic_jsonIS2_NS_6vectorES7_bxydS1_NS9_14adl_serializerENSB_IhNS1_IhEEEEvEENS_4lessIvEENS1_INS_4pairIKS7_SF_EEEEEEEEEC2B8ue170006Ev, symObjAddr: 0xC90C, symBinAddr: 0x10000E308, symSize: 0x14 }
  - { offsetInCU: 0x55FF6, offset: 0x55FF6, size: 0x8, addend: 0x0, symName: __ZNSt3__19allocatorINS_3mapINS_12basic_stringIcNS_11char_traitsIcEENS0_IcEEEEN8nlohmann16json_abi_v3_11_310basic_jsonIS1_NS_6vectorES6_bxydS0_NS8_14adl_serializerENSA_IhNS0_IhEEEEvEENS_4lessIvEENS0_INS_4pairIKS6_SE_EEEEEEE7destroyB8ue170006EPSL_, symObjAddr: 0xC920, symBinAddr: 0x10000E31C, symSize: 0x28 }
  - { offsetInCU: 0x5602A, offset: 0x5602A, size: 0x8, addend: 0x0, symName: __ZNSt3__13mapINS_12basic_stringIcNS_11char_traitsIcEENS_9allocatorIcEEEEN8nlohmann16json_abi_v3_11_310basic_jsonIS0_NS_6vectorES6_bxydS4_NS8_14adl_serializerENSA_IhNS4_IhEEEEvEENS_4lessIvEENS4_INS_4pairIKS6_SE_EEEEED1B8ue170006Ev, symObjAddr: 0xC948, symBinAddr: 0x10000E344, symSize: 0x2C }
  - { offsetInCU: 0x56054, offset: 0x56054, size: 0x8, addend: 0x0, symName: __ZNSt3__13mapINS_12basic_stringIcNS_11char_traitsIcEENS_9allocatorIcEEEEN8nlohmann16json_abi_v3_11_310basic_jsonIS0_NS_6vectorES6_bxydS4_NS8_14adl_serializerENSA_IhNS4_IhEEEEvEENS_4lessIvEENS4_INS_4pairIKS6_SE_EEEEED2B8ue170006Ev, symObjAddr: 0xC974, symBinAddr: 0x10000E370, symSize: 0x2C }
  - { offsetInCU: 0x5607E, offset: 0x5607E, size: 0x8, addend: 0x0, symName: __ZNSt3__16__treeINS_12__value_typeINS_12basic_stringIcNS_11char_traitsIcEENS_9allocatorIcEEEEN8nlohmann16json_abi_v3_11_310basic_jsonINS_3mapENS_6vectorES7_bxydS5_NS9_14adl_serializerENSC_IhNS5_IhEEEEvEEEENS_19__map_value_compareIS7_SH_NS_4lessIvEELb1EEENS5_ISH_EEED1Ev, symObjAddr: 0xC9A0, symBinAddr: 0x10000E39C, symSize: 0x2C }
  - { offsetInCU: 0x560AA, offset: 0x560AA, size: 0x8, addend: 0x0, symName: __ZNSt3__16__treeINS_12__value_typeINS_12basic_stringIcNS_11char_traitsIcEENS_9allocatorIcEEEEN8nlohmann16json_abi_v3_11_310basic_jsonINS_3mapENS_6vectorES7_bxydS5_NS9_14adl_serializerENSC_IhNS5_IhEEEEvEEEENS_19__map_value_compareIS7_SH_NS_4lessIvEELb1EEENS5_ISH_EEED2Ev, symObjAddr: 0xC9CC, symBinAddr: 0x10000E3C8, symSize: 0x38 }
  - { offsetInCU: 0x560D6, offset: 0x560D6, size: 0x8, addend: 0x0, symName: __ZNSt3__19allocatorINS_3mapINS_12basic_stringIcNS_11char_traitsIcEENS0_IcEEEEN8nlohmann16json_abi_v3_11_310basic_jsonIS1_NS_6vectorES6_bxydS0_NS8_14adl_serializerENSA_IhNS0_IhEEEEvEENS_4lessIvEENS0_INS_4pairIKS6_SE_EEEEEEE10deallocateB8ue170006EPSL_m, symObjAddr: 0xCA04, symBinAddr: 0x10000E400, symSize: 0x44 }
  - { offsetInCU: 0x56118, offset: 0x56118, size: 0x8, addend: 0x0, symName: __ZNSt3__19allocatorINS_6vectorIN8nlohmann16json_abi_v3_11_310basic_jsonINS_3mapES1_NS_12basic_stringIcNS_11char_traitsIcEENS0_IcEEEEbxydS0_NS3_14adl_serializerENS1_IhNS0_IhEEEEvEENS0_ISE_EEEEEC2B8ue170006Ev, symObjAddr: 0xCA48, symBinAddr: 0x10000E444, symSize: 0x2C }
  - { offsetInCU: 0x56142, offset: 0x56142, size: 0x8, addend: 0x0, symName: __ZNSt3__116__non_trivial_ifILb1ENS_9allocatorINS_6vectorIN8nlohmann16json_abi_v3_11_310basic_jsonINS_3mapES2_NS_12basic_stringIcNS_11char_traitsIcEENS1_IcEEEEbxydS1_NS4_14adl_serializerENS2_IhNS1_IhEEEEvEENS1_ISF_EEEEEEEC2B8ue170006Ev, symObjAddr: 0xCA74, symBinAddr: 0x10000E470, symSize: 0x14 }
  - { offsetInCU: 0x5616C, offset: 0x5616C, size: 0x8, addend: 0x0, symName: __ZNSt3__19allocatorINS_6vectorIN8nlohmann16json_abi_v3_11_310basic_jsonINS_3mapES1_NS_12basic_stringIcNS_11char_traitsIcEENS0_IcEEEEbxydS0_NS3_14adl_serializerENS1_IhNS0_IhEEEEvEENS0_ISE_EEEEE7destroyB8ue170006EPSG_, symObjAddr: 0xCA88, symBinAddr: 0x10000E484, symSize: 0x28 }
  - { offsetInCU: 0x561A0, offset: 0x561A0, size: 0x8, addend: 0x0, symName: __ZNSt3__19allocatorINS_6vectorIN8nlohmann16json_abi_v3_11_310basic_jsonINS_3mapES1_NS_12basic_stringIcNS_11char_traitsIcEENS0_IcEEEEbxydS0_NS3_14adl_serializerENS1_IhNS0_IhEEEEvEENS0_ISE_EEEEE10deallocateB8ue170006EPSG_m, symObjAddr: 0xCAB0, symBinAddr: 0x10000E4AC, symSize: 0x44 }
  - { offsetInCU: 0x561E2, offset: 0x561E2, size: 0x8, addend: 0x0, symName: __ZNSt3__19allocatorINS_12basic_stringIcNS_11char_traitsIcEENS0_IcEEEEEC2B8ue170006Ev, symObjAddr: 0xCAF4, symBinAddr: 0x10000E4F0, symSize: 0x2C }
  - { offsetInCU: 0x5620C, offset: 0x5620C, size: 0x8, addend: 0x0, symName: __ZNSt3__116__non_trivial_ifILb1ENS_9allocatorINS_12basic_stringIcNS_11char_traitsIcEENS1_IcEEEEEEEC2B8ue170006Ev, symObjAddr: 0xCB20, symBinAddr: 0x10000E51C, symSize: 0x14 }
  - { offsetInCU: 0x56236, offset: 0x56236, size: 0x8, addend: 0x0, symName: __ZNSt3__19allocatorINS_12basic_stringIcNS_11char_traitsIcEENS0_IcEEEEE7destroyB8ue170006EPS5_, symObjAddr: 0xCB34, symBinAddr: 0x10000E530, symSize: 0x28 }
  - { offsetInCU: 0x5626A, offset: 0x5626A, size: 0x8, addend: 0x0, symName: __ZNSt3__19allocatorINS_12basic_stringIcNS_11char_traitsIcEENS0_IcEEEEE10deallocateB8ue170006EPS5_m, symObjAddr: 0xCB5C, symBinAddr: 0x10000E558, symSize: 0x44 }
  - { offsetInCU: 0x562AC, offset: 0x562AC, size: 0x8, addend: 0x0, symName: __ZNSt3__19allocatorIN8nlohmann16json_abi_v3_11_327byte_container_with_subtypeINS_6vectorIhNS0_IhEEEEEEEC2B8ue170006Ev, symObjAddr: 0xCBA0, symBinAddr: 0x10000E59C, symSize: 0x2C }
  - { offsetInCU: 0x562D6, offset: 0x562D6, size: 0x8, addend: 0x0, symName: __ZNSt3__116__non_trivial_ifILb1ENS_9allocatorIN8nlohmann16json_abi_v3_11_327byte_container_with_subtypeINS_6vectorIhNS1_IhEEEEEEEEEC2B8ue170006Ev, symObjAddr: 0xCBCC, symBinAddr: 0x10000E5C8, symSize: 0x14 }
  - { offsetInCU: 0x56300, offset: 0x56300, size: 0x8, addend: 0x0, symName: __ZNSt3__19allocatorIN8nlohmann16json_abi_v3_11_327byte_container_with_subtypeINS_6vectorIhNS0_IhEEEEEEE7destroyB8ue170006EPS7_, symObjAddr: 0xCBE0, symBinAddr: 0x10000E5DC, symSize: 0x28 }
  - { offsetInCU: 0x56334, offset: 0x56334, size: 0x8, addend: 0x0, symName: __ZN8nlohmann16json_abi_v3_11_327byte_container_with_subtypeINSt3__16vectorIhNS2_9allocatorIhEEEEED1Ev, symObjAddr: 0xCC08, symBinAddr: 0x10000E604, symSize: 0x2C }
  - { offsetInCU: 0x56361, offset: 0x56361, size: 0x8, addend: 0x0, symName: __ZN8nlohmann16json_abi_v3_11_327byte_container_with_subtypeINSt3__16vectorIhNS2_9allocatorIhEEEEED2Ev, symObjAddr: 0xCC34, symBinAddr: 0x10000E630, symSize: 0x2C }
  - { offsetInCU: 0x5638E, offset: 0x5638E, size: 0x8, addend: 0x0, symName: __ZNSt3__16vectorIhNS_9allocatorIhEEED2B8ue170006Ev, symObjAddr: 0xCC60, symBinAddr: 0x10000E65C, symSize: 0x44 }
  - { offsetInCU: 0x563B8, offset: 0x563B8, size: 0x8, addend: 0x0, symName: __ZNSt3__16vectorIhNS_9allocatorIhEEE16__destroy_vectorC1B8ue170006ERS3_, symObjAddr: 0xCCA4, symBinAddr: 0x10000E6A0, symSize: 0x34 }
  - { offsetInCU: 0x563F1, offset: 0x563F1, size: 0x8, addend: 0x0, symName: __ZNSt3__16vectorIhNS_9allocatorIhEEE16__destroy_vectorclB8ue170006Ev, symObjAddr: 0xCCD8, symBinAddr: 0x10000E6D4, symSize: 0x90 }
  - { offsetInCU: 0x56417, offset: 0x56417, size: 0x8, addend: 0x0, symName: __ZNSt3__16vectorIhNS_9allocatorIhEEE16__destroy_vectorC2B8ue170006ERS3_, symObjAddr: 0xCD68, symBinAddr: 0x10000E764, symSize: 0x20 }
  - { offsetInCU: 0x56450, offset: 0x56450, size: 0x8, addend: 0x0, symName: __ZNSt3__16vectorIhNS_9allocatorIhEEE7__clearB8ue170006Ev, symObjAddr: 0xCD88, symBinAddr: 0x10000E784, symSize: 0x28 }
  - { offsetInCU: 0x56476, offset: 0x56476, size: 0x8, addend: 0x0, symName: __ZNKSt3__16vectorIhNS_9allocatorIhEEE17__annotate_deleteB8ue170006Ev, symObjAddr: 0xCDB0, symBinAddr: 0x10000E7AC, symSize: 0xB8 }
  - { offsetInCU: 0x5649C, offset: 0x5649C, size: 0x8, addend: 0x0, symName: __ZNSt3__116allocator_traitsINS_9allocatorIhEEE10deallocateB8ue170006ERS2_Phm, symObjAddr: 0xCE68, symBinAddr: 0x10000E864, symSize: 0x34 }
  - { offsetInCU: 0x564DE, offset: 0x564DE, size: 0x8, addend: 0x0, symName: __ZNSt3__16vectorIhNS_9allocatorIhEEE7__allocB8ue170006Ev, symObjAddr: 0xCE9C, symBinAddr: 0x10000E898, symSize: 0x28 }
  - { offsetInCU: 0x56504, offset: 0x56504, size: 0x8, addend: 0x0, symName: __ZNKSt3__16vectorIhNS_9allocatorIhEEE8capacityB8ue170006Ev, symObjAddr: 0xCEC4, symBinAddr: 0x10000E8C0, symSize: 0x38 }
  - { offsetInCU: 0x5652A, offset: 0x5652A, size: 0x8, addend: 0x0, symName: __ZNSt3__16vectorIhNS_9allocatorIhEEE22__base_destruct_at_endB8ue170006EPh, symObjAddr: 0xCEFC, symBinAddr: 0x10000E8F8, symSize: 0x8C }
  - { offsetInCU: 0x5656E, offset: 0x5656E, size: 0x8, addend: 0x0, symName: __ZNSt3__116allocator_traitsINS_9allocatorIhEEE7destroyB8ue170006IhvEEvRS2_PT_, symObjAddr: 0xCF88, symBinAddr: 0x10000E984, symSize: 0x2C }
  - { offsetInCU: 0x565AB, offset: 0x565AB, size: 0x8, addend: 0x0, symName: __ZNSt3__19allocatorIhE7destroyB8ue170006EPh, symObjAddr: 0xCFC8, symBinAddr: 0x10000E9C4, symSize: 0x14 }
  - { offsetInCU: 0x565DF, offset: 0x565DF, size: 0x8, addend: 0x0, symName: __ZNKSt3__16vectorIhNS_9allocatorIhEEE31__annotate_contiguous_containerB8ue170006EPKvS5_S5_S5_, symObjAddr: 0xCFDC, symBinAddr: 0x10000E9D8, symSize: 0x20 }
  - { offsetInCU: 0x56635, offset: 0x56635, size: 0x8, addend: 0x0, symName: __ZNKSt3__16vectorIhNS_9allocatorIhEEE4dataB8ue170006Ev, symObjAddr: 0xCFFC, symBinAddr: 0x10000E9F8, symSize: 0x28 }
  - { offsetInCU: 0x5665B, offset: 0x5665B, size: 0x8, addend: 0x0, symName: __ZNKSt3__16vectorIhNS_9allocatorIhEEE4sizeB8ue170006Ev, symObjAddr: 0xD024, symBinAddr: 0x10000EA20, symSize: 0x20 }
  - { offsetInCU: 0x56681, offset: 0x56681, size: 0x8, addend: 0x0, symName: __ZNSt3__19allocatorIhE10deallocateB8ue170006EPhm, symObjAddr: 0xD044, symBinAddr: 0x10000EA40, symSize: 0x40 }
  - { offsetInCU: 0x566C3, offset: 0x566C3, size: 0x8, addend: 0x0, symName: __ZNSt3__117__compressed_pairIPhNS_9allocatorIhEEE6secondB8ue170006Ev, symObjAddr: 0xD084, symBinAddr: 0x10000EA80, symSize: 0x24 }
  - { offsetInCU: 0x566E9, offset: 0x566E9, size: 0x8, addend: 0x0, symName: __ZNSt3__122__compressed_pair_elemINS_9allocatorIhEELi1ELb1EE5__getB8ue170006Ev, symObjAddr: 0xD0A8, symBinAddr: 0x10000EAA4, symSize: 0x14 }
  - { offsetInCU: 0x5670F, offset: 0x5670F, size: 0x8, addend: 0x0, symName: __ZNKSt3__16vectorIhNS_9allocatorIhEEE9__end_capB8ue170006Ev, symObjAddr: 0xD0BC, symBinAddr: 0x10000EAB8, symSize: 0x28 }
  - { offsetInCU: 0x56735, offset: 0x56735, size: 0x8, addend: 0x0, symName: __ZNKSt3__117__compressed_pairIPhNS_9allocatorIhEEE5firstB8ue170006Ev, symObjAddr: 0xD0E4, symBinAddr: 0x10000EAE0, symSize: 0x24 }
  - { offsetInCU: 0x5675B, offset: 0x5675B, size: 0x8, addend: 0x0, symName: __ZNKSt3__122__compressed_pair_elemIPhLi0ELb0EE5__getB8ue170006Ev, symObjAddr: 0xD108, symBinAddr: 0x10000EB04, symSize: 0x14 }
  - { offsetInCU: 0x56781, offset: 0x56781, size: 0x8, addend: 0x0, symName: __ZNSt3__19allocatorIN8nlohmann16json_abi_v3_11_327byte_container_with_subtypeINS_6vectorIhNS0_IhEEEEEEE10deallocateB8ue170006EPS7_m, symObjAddr: 0xD11C, symBinAddr: 0x10000EB18, symSize: 0x44 }
  - { offsetInCU: 0x567C3, offset: 0x567C3, size: 0x8, addend: 0x0, symName: __ZNSt3__16vectorINS_12basic_stringIcNS_11char_traitsIcEENS_9allocatorIcEEEENS4_IS6_EEED2B8ue170006Ev, symObjAddr: 0xD160, symBinAddr: 0x10000EB5C, symSize: 0x44 }
  - { offsetInCU: 0x567ED, offset: 0x567ED, size: 0x8, addend: 0x0, symName: __ZNSt3__16vectorINS_12basic_stringIcNS_11char_traitsIcEENS_9allocatorIcEEEENS4_IS6_EEE16__destroy_vectorC1B8ue170006ERS8_, symObjAddr: 0xD1A4, symBinAddr: 0x10000EBA0, symSize: 0x34 }
  - { offsetInCU: 0x56826, offset: 0x56826, size: 0x8, addend: 0x0, symName: __ZNSt3__16vectorINS_12basic_stringIcNS_11char_traitsIcEENS_9allocatorIcEEEENS4_IS6_EEE16__destroy_vectorclB8ue170006Ev, symObjAddr: 0xD1D8, symBinAddr: 0x10000EBD4, symSize: 0x90 }
  - { offsetInCU: 0x5684C, offset: 0x5684C, size: 0x8, addend: 0x0, symName: __ZNSt3__16vectorINS_12basic_stringIcNS_11char_traitsIcEENS_9allocatorIcEEEENS4_IS6_EEE16__destroy_vectorC2B8ue170006ERS8_, symObjAddr: 0xD268, symBinAddr: 0x10000EC64, symSize: 0x20 }
  - { offsetInCU: 0x56885, offset: 0x56885, size: 0x8, addend: 0x0, symName: __ZNSt3__16vectorINS_12basic_stringIcNS_11char_traitsIcEENS_9allocatorIcEEEENS4_IS6_EEE7__clearB8ue170006Ev, symObjAddr: 0xD288, symBinAddr: 0x10000EC84, symSize: 0x28 }
  - { offsetInCU: 0x568AB, offset: 0x568AB, size: 0x8, addend: 0x0, symName: __ZNKSt3__16vectorINS_12basic_stringIcNS_11char_traitsIcEENS_9allocatorIcEEEENS4_IS6_EEE17__annotate_deleteB8ue170006Ev, symObjAddr: 0xD2B0, symBinAddr: 0x10000ECAC, symSize: 0xD4 }
  - { offsetInCU: 0x568D1, offset: 0x568D1, size: 0x8, addend: 0x0, symName: __ZNSt3__16vectorINS_12basic_stringIcNS_11char_traitsIcEENS_9allocatorIcEEEENS4_IS6_EEE7__allocB8ue170006Ev, symObjAddr: 0xD384, symBinAddr: 0x10000ED80, symSize: 0x28 }
  - { offsetInCU: 0x568F7, offset: 0x568F7, size: 0x8, addend: 0x0, symName: __ZNKSt3__16vectorINS_12basic_stringIcNS_11char_traitsIcEENS_9allocatorIcEEEENS4_IS6_EEE8capacityB8ue170006Ev, symObjAddr: 0xD3AC, symBinAddr: 0x10000EDA8, symSize: 0x40 }
  - { offsetInCU: 0x5691D, offset: 0x5691D, size: 0x8, addend: 0x0, symName: __ZNSt3__16vectorINS_12basic_stringIcNS_11char_traitsIcEENS_9allocatorIcEEEENS4_IS6_EEE22__base_destruct_at_endB8ue170006EPS6_, symObjAddr: 0xD3EC, symBinAddr: 0x10000EDE8, symSize: 0x8C }
  - { offsetInCU: 0x56961, offset: 0x56961, size: 0x8, addend: 0x0, symName: __ZNKSt3__16vectorINS_12basic_stringIcNS_11char_traitsIcEENS_9allocatorIcEEEENS4_IS6_EEE31__annotate_contiguous_containerB8ue170006EPKvSA_SA_SA_, symObjAddr: 0xD48C, symBinAddr: 0x10000EE88, symSize: 0x20 }
  - { offsetInCU: 0x569B7, offset: 0x569B7, size: 0x8, addend: 0x0, symName: __ZNKSt3__16vectorINS_12basic_stringIcNS_11char_traitsIcEENS_9allocatorIcEEEENS4_IS6_EEE4dataB8ue170006Ev, symObjAddr: 0xD4AC, symBinAddr: 0x10000EEA8, symSize: 0x28 }
  - { offsetInCU: 0x569DD, offset: 0x569DD, size: 0x8, addend: 0x0, symName: __ZNSt3__117__compressed_pairIPNS_12basic_stringIcNS_11char_traitsIcEENS_9allocatorIcEEEENS4_IS6_EEE6secondB8ue170006Ev, symObjAddr: 0xD4D4, symBinAddr: 0x10000EED0, symSize: 0x24 }
  - { offsetInCU: 0x56A03, offset: 0x56A03, size: 0x8, addend: 0x0, symName: __ZNSt3__122__compressed_pair_elemINS_9allocatorINS_12basic_stringIcNS_11char_traitsIcEENS1_IcEEEEEELi1ELb1EE5__getB8ue170006Ev, symObjAddr: 0xD4F8, symBinAddr: 0x10000EEF4, symSize: 0x14 }
  - { offsetInCU: 0x56A29, offset: 0x56A29, size: 0x8, addend: 0x0, symName: __ZNKSt3__16vectorINS_12basic_stringIcNS_11char_traitsIcEENS_9allocatorIcEEEENS4_IS6_EEE9__end_capB8ue170006Ev, symObjAddr: 0xD50C, symBinAddr: 0x10000EF08, symSize: 0x28 }
  - { offsetInCU: 0x56A4F, offset: 0x56A4F, size: 0x8, addend: 0x0, symName: __ZNKSt3__117__compressed_pairIPNS_12basic_stringIcNS_11char_traitsIcEENS_9allocatorIcEEEENS4_IS6_EEE5firstB8ue170006Ev, symObjAddr: 0xD534, symBinAddr: 0x10000EF30, symSize: 0x24 }
  - { offsetInCU: 0x56A75, offset: 0x56A75, size: 0x8, addend: 0x0, symName: __ZNKSt3__122__compressed_pair_elemIPNS_12basic_stringIcNS_11char_traitsIcEENS_9allocatorIcEEEELi0ELb0EE5__getB8ue170006Ev, symObjAddr: 0xD558, symBinAddr: 0x10000EF54, symSize: 0x14 }
  - { offsetInCU: 0x56A9B, offset: 0x56A9B, size: 0x8, addend: 0x0, symName: __ZNSt3__16vectorINS_12basic_stringIcNS_11char_traitsIcEENS_9allocatorIcEEEENS4_IS6_EEEC2B8ue170006Ev, symObjAddr: 0xD56C, symBinAddr: 0x10000EF68, symSize: 0x4C }
  - { offsetInCU: 0x56AC5, offset: 0x56AC5, size: 0x8, addend: 0x0, symName: __ZNSt3__117__compressed_pairIPNS_12basic_stringIcNS_11char_traitsIcEENS_9allocatorIcEEEENS4_IS6_EEEC1B8ue170006IDnNS_18__default_init_tagEEEOT_OT0_, symObjAddr: 0xD5B8, symBinAddr: 0x10000EFB4, symSize: 0x3C }
  - { offsetInCU: 0x56B1D, offset: 0x56B1D, size: 0x8, addend: 0x0, symName: __ZNSt3__117__compressed_pairIPNS_12basic_stringIcNS_11char_traitsIcEENS_9allocatorIcEEEENS4_IS6_EEEC2B8ue170006IDnNS_18__default_init_tagEEEOT_OT0_, symObjAddr: 0xD5F4, symBinAddr: 0x10000EFF0, symSize: 0x40 }
  - { offsetInCU: 0x56B75, offset: 0x56B75, size: 0x8, addend: 0x0, symName: __ZNSt3__122__compressed_pair_elemIPNS_12basic_stringIcNS_11char_traitsIcEENS_9allocatorIcEEEELi0ELb0EEC2B8ue170006IDnvEEOT_, symObjAddr: 0xD634, symBinAddr: 0x10000F030, symSize: 0x1C }
  - { offsetInCU: 0x56BB7, offset: 0x56BB7, size: 0x8, addend: 0x0, symName: __ZNSt3__122__compressed_pair_elemINS_9allocatorINS_12basic_stringIcNS_11char_traitsIcEENS1_IcEEEEEELi1ELb1EEC2B8ue170006ENS_18__default_init_tagE, symObjAddr: 0xD650, symBinAddr: 0x10000F04C, symSize: 0x2C }
  - { offsetInCU: 0x56BEC, offset: 0x56BEC, size: 0x8, addend: 0x0, symName: __ZNSt3__13mapINS_12basic_stringIcNS_11char_traitsIcEENS_9allocatorIcEEEEN8nlohmann16json_abi_v3_11_310basic_jsonIS0_NS_6vectorES6_bxydS4_NS8_14adl_serializerENSA_IhNS4_IhEEEEvEENS_4lessIvEENS4_INS_4pairIKS6_SE_EEEEE4findB8ue170006IA19_cEENS_9enable_ifIXsr16__is_transparentISG_T_EE5valueENS_14__map_iteratorINS_15__tree_iteratorINS_12__value_typeIS6_SE_EEPNS_11__tree_nodeIST_PvEElEEEEE4typeERKSP_, symObjAddr: 0xD748, symBinAddr: 0x10000F144, symSize: 0x40 }
  - { offsetInCU: 0x56C30, offset: 0x56C30, size: 0x8, addend: 0x0, symName: __ZN8nlohmann16json_abi_v3_11_36detail12out_of_range6createIPKNS0_10basic_jsonINSt3__13mapENS5_6vectorENS5_12basic_stringIcNS5_11char_traitsIcEENS5_9allocatorIcEEEEbxydSB_NS0_14adl_serializerENS7_IhNSB_IhEEEEvEELi0EEES2_iRKSD_T_, symObjAddr: 0xD7B8, symBinAddr: 0x10000F1B4, symSize: 0x130 }
  - { offsetInCU: 0x56C90, offset: 0x56C90, size: 0x8, addend: 0x0, symName: __ZN8nlohmann16json_abi_v3_11_36detail12out_of_rangeD1Ev, symObjAddr: 0xD9C0, symBinAddr: 0x10000F3BC, symSize: 0x2C }
  - { offsetInCU: 0x56CBD, offset: 0x56CBD, size: 0x8, addend: 0x0, symName: __ZNKSt3__114__map_iteratorINS_15__tree_iteratorINS_12__value_typeINS_12basic_stringIcNS_11char_traitsIcEENS_9allocatorIcEEEEN8nlohmann16json_abi_v3_11_310basic_jsonINS_3mapENS_6vectorES8_bxydS6_NSA_14adl_serializerENSD_IhNS6_IhEEEEvEEEEPNS_11__tree_nodeISI_PvEElEEEptB8ue170006Ev, symObjAddr: 0xD9EC, symBinAddr: 0x10000F3E8, symSize: 0x2C }
  - { offsetInCU: 0x56CE3, offset: 0x56CE3, size: 0x8, addend: 0x0, symName: __ZNSt3__16__treeINS_12__value_typeINS_12basic_stringIcNS_11char_traitsIcEENS_9allocatorIcEEEEN8nlohmann16json_abi_v3_11_310basic_jsonINS_3mapENS_6vectorES7_bxydS5_NS9_14adl_serializerENSC_IhNS5_IhEEEEvEEEENS_19__map_value_compareIS7_SH_NS_4lessIvEELb1EEENS5_ISH_EEE4findIA19_cEENS_15__tree_iteratorISH_PNS_11__tree_nodeISH_PvEElEERKT_, symObjAddr: 0xDA54, symBinAddr: 0x10000F450, symSize: 0xF8 }
  - { offsetInCU: 0x56D32, offset: 0x56D32, size: 0x8, addend: 0x0, symName: __ZNSt3__16__treeINS_12__value_typeINS_12basic_stringIcNS_11char_traitsIcEENS_9allocatorIcEEEEN8nlohmann16json_abi_v3_11_310basic_jsonINS_3mapENS_6vectorES7_bxydS5_NS9_14adl_serializerENSC_IhNS5_IhEEEEvEEEENS_19__map_value_compareIS7_SH_NS_4lessIvEELb1EEENS5_ISH_EEE13__lower_boundIA19_cEENS_15__tree_iteratorISH_PNS_11__tree_nodeISH_PvEElEERKT_SU_PNS_15__tree_end_nodeIPNS_16__tree_node_baseISS_EEEE, symObjAddr: 0xDB4C, symBinAddr: 0x10000F548, symSize: 0xA4 }
  - { offsetInCU: 0x56D90, offset: 0x56D90, size: 0x8, addend: 0x0, symName: __ZNSt3__16__treeINS_12__value_typeINS_12basic_stringIcNS_11char_traitsIcEENS_9allocatorIcEEEEN8nlohmann16json_abi_v3_11_310basic_jsonINS_3mapENS_6vectorES7_bxydS5_NS9_14adl_serializerENSC_IhNS5_IhEEEEvEEEENS_19__map_value_compareIS7_SH_NS_4lessIvEELb1EEENS5_ISH_EEE10value_compB8ue170006Ev, symObjAddr: 0xDBF0, symBinAddr: 0x10000F5EC, symSize: 0x28 }
  - { offsetInCU: 0x56DB6, offset: 0x56DB6, size: 0x8, addend: 0x0, symName: __ZNKSt3__119__map_value_compareINS_12basic_stringIcNS_11char_traitsIcEENS_9allocatorIcEEEENS_12__value_typeIS6_N8nlohmann16json_abi_v3_11_310basic_jsonINS_3mapENS_6vectorES6_bxydS4_NS9_14adl_serializerENSC_IhNS4_IhEEEEvEEEENS_4lessIvEELb1EEclB8ue170006IA19_cEEbRKT_RKSH_, symObjAddr: 0xDC18, symBinAddr: 0x10000F614, symSize: 0x50 }
  - { offsetInCU: 0x56E03, offset: 0x56E03, size: 0x8, addend: 0x0, symName: __ZNKSt3__115__tree_iteratorINS_12__value_typeINS_12basic_stringIcNS_11char_traitsIcEENS_9allocatorIcEEEEN8nlohmann16json_abi_v3_11_310basic_jsonINS_3mapENS_6vectorES7_bxydS5_NS9_14adl_serializerENSC_IhNS5_IhEEEEvEEEEPNS_11__tree_nodeISH_PvEElEdeB8ue170006Ev, symObjAddr: 0xDC68, symBinAddr: 0x10000F664, symSize: 0x28 }
  - { offsetInCU: 0x56E29, offset: 0x56E29, size: 0x8, addend: 0x0, symName: __ZNKSt3__119__map_value_compareINS_12basic_stringIcNS_11char_traitsIcEENS_9allocatorIcEEEENS_12__value_typeIS6_N8nlohmann16json_abi_v3_11_310basic_jsonINS_3mapENS_6vectorES6_bxydS4_NS9_14adl_serializerENSC_IhNS4_IhEEEEvEEEENS_4lessIvEELb1EEclB8ue170006IA19_cEEbRKSH_RKT_, symObjAddr: 0xDC90, symBinAddr: 0x10000F68C, symSize: 0x48 }
  - { offsetInCU: 0x56E7C, offset: 0x56E7C, size: 0x8, addend: 0x0, symName: __ZNKSt3__14lessIvEclB8ue170006IRKNS_12basic_stringIcNS_11char_traitsIcEENS_9allocatorIcEEEERA19_KcEEDTltclsr3stdE7forwardIT_Efp_Eclsr3stdE7forwardIT0_Efp0_EEOSE_OSF_, symObjAddr: 0xDCD8, symBinAddr: 0x10000F6D4, symSize: 0x34 }
  - { offsetInCU: 0x56ED2, offset: 0x56ED2, size: 0x8, addend: 0x0, symName: __ZNKSt3__112__value_typeINS_12basic_stringIcNS_11char_traitsIcEENS_9allocatorIcEEEEN8nlohmann16json_abi_v3_11_310basic_jsonINS_3mapENS_6vectorES6_bxydS4_NS8_14adl_serializerENSB_IhNS4_IhEEEEvEEE11__get_valueB8ue170006Ev, symObjAddr: 0xDD0C, symBinAddr: 0x10000F708, symSize: 0x24 }
  - { offsetInCU: 0x56EF8, offset: 0x56EF8, size: 0x8, addend: 0x0, symName: __ZNSt3__117__compressed_pairImNS_19__map_value_compareINS_12basic_stringIcNS_11char_traitsIcEENS_9allocatorIcEEEENS_12__value_typeIS7_N8nlohmann16json_abi_v3_11_310basic_jsonINS_3mapENS_6vectorES7_bxydS5_NSA_14adl_serializerENSD_IhNS5_IhEEEEvEEEENS_4lessIvEELb1EEEE6secondB8ue170006Ev, symObjAddr: 0xDDA0, symBinAddr: 0x10000F79C, symSize: 0x24 }
  - { offsetInCU: 0x56F1E, offset: 0x56F1E, size: 0x8, addend: 0x0, symName: __ZNSt3__122__compressed_pair_elemINS_19__map_value_compareINS_12basic_stringIcNS_11char_traitsIcEENS_9allocatorIcEEEENS_12__value_typeIS7_N8nlohmann16json_abi_v3_11_310basic_jsonINS_3mapENS_6vectorES7_bxydS5_NSA_14adl_serializerENSD_IhNS5_IhEEEEvEEEENS_4lessIvEELb1EEELi1ELb1EE5__getB8ue170006Ev, symObjAddr: 0xDDC4, symBinAddr: 0x10000F7C0, symSize: 0x14 }
  - { offsetInCU: 0x56F44, offset: 0x56F44, size: 0x8, addend: 0x0, symName: __ZNKSt3__14lessIvEclB8ue170006IRA19_KcRKNS_12basic_stringIcNS_11char_traitsIcEENS_9allocatorIcEEEEEEDTltclsr3stdE7forwardIT_Efp_Eclsr3stdE7forwardIT0_Efp0_EEOSE_OSF_, symObjAddr: 0xDDD8, symBinAddr: 0x10000F7D4, symSize: 0x34 }
  - { offsetInCU: 0x56F9A, offset: 0x56F9A, size: 0x8, addend: 0x0, symName: __ZN8nlohmann16json_abi_v3_11_36detail12out_of_rangeC1EiPKc, symObjAddr: 0xDE44, symBinAddr: 0x10000F840, symSize: 0x3C }
  - { offsetInCU: 0x56FE2, offset: 0x56FE2, size: 0x8, addend: 0x0, symName: __ZN8nlohmann16json_abi_v3_11_36detail12out_of_rangeC2EiPKc, symObjAddr: 0xDE80, symBinAddr: 0x10000F87C, symSize: 0x54 }
  - { offsetInCU: 0x5702A, offset: 0x5702A, size: 0x8, addend: 0x0, symName: __ZN8nlohmann16json_abi_v3_11_36detail12out_of_rangeD0Ev, symObjAddr: 0xDED4, symBinAddr: 0x10000F8D0, symSize: 0x30 }
  - { offsetInCU: 0x57057, offset: 0x57057, size: 0x8, addend: 0x0, symName: __ZN8nlohmann16json_abi_v3_11_36detail12out_of_rangeD2Ev, symObjAddr: 0xE040, symBinAddr: 0x10000FA3C, symSize: 0x2C }
  - { offsetInCU: 0x57084, offset: 0x57084, size: 0x8, addend: 0x0, symName: __ZNSt3__114pointer_traitsIPNS_4pairIKNS_12basic_stringIcNS_11char_traitsIcEENS_9allocatorIcEEEEN8nlohmann16json_abi_v3_11_310basic_jsonINS_3mapENS_6vectorES7_bxydS5_NSA_14adl_serializerENSD_IhNS5_IhEEEEvEEEEE10pointer_toB8ue170006ERSI_, symObjAddr: 0xE06C, symBinAddr: 0x10000FA68, symSize: 0x14 }
  - { offsetInCU: 0x570A7, offset: 0x570A7, size: 0x8, addend: 0x0, symName: __ZNK8nlohmann16json_abi_v3_11_310basic_jsonINSt3__13mapENS2_6vectorENS2_12basic_stringIcNS2_11char_traitsIcEENS2_9allocatorIcEEEEbxydS8_NS0_14adl_serializerENS4_IhNS8_IhEEEEvE6cbeginEv, symObjAddr: 0xE080, symBinAddr: 0x10000FA7C, symSize: 0x40 }
  - { offsetInCU: 0x570DD, offset: 0x570DD, size: 0x8, addend: 0x0, symName: __ZN8nlohmann16json_abi_v3_11_36detail9iter_implIKNS0_10basic_jsonINSt3__13mapENS4_6vectorENS4_12basic_stringIcNS4_11char_traitsIcEENS4_9allocatorIcEEEEbxydSA_NS0_14adl_serializerENS6_IhNSA_IhEEEEvEEEC1EPSH_, symObjAddr: 0xE0C0, symBinAddr: 0x10000FABC, symSize: 0x34 }
  - { offsetInCU: 0x57116, offset: 0x57116, size: 0x8, addend: 0x0, symName: __ZN8nlohmann16json_abi_v3_11_36detail9iter_implIKNS0_10basic_jsonINSt3__13mapENS4_6vectorENS4_12basic_stringIcNS4_11char_traitsIcEENS4_9allocatorIcEEEEbxydSA_NS0_14adl_serializerENS6_IhNSA_IhEEEEvEEE9set_beginEv, symObjAddr: 0xE0F4, symBinAddr: 0x10000FAF0, symSize: 0x118 }
  - { offsetInCU: 0x5713C, offset: 0x5713C, size: 0x8, addend: 0x0, symName: __ZN8nlohmann16json_abi_v3_11_36detail9iter_implIKNS0_10basic_jsonINSt3__13mapENS4_6vectorENS4_12basic_stringIcNS4_11char_traitsIcEENS4_9allocatorIcEEEEbxydSA_NS0_14adl_serializerENS6_IhNSA_IhEEEEvEEEC2EPSH_, symObjAddr: 0xE234, symBinAddr: 0x10000FC30, symSize: 0x13C }
  - { offsetInCU: 0x57175, offset: 0x57175, size: 0x8, addend: 0x0, symName: __ZNSt3__114__map_iteratorINS_15__tree_iteratorINS_12__value_typeINS_12basic_stringIcNS_11char_traitsIcEENS_9allocatorIcEEEEN8nlohmann16json_abi_v3_11_310basic_jsonINS_3mapENS_6vectorES8_bxydS6_NSA_14adl_serializerENSD_IhNS6_IhEEEEvEEEEPNS_11__tree_nodeISI_PvEElEEEC1B8ue170006Ev, symObjAddr: 0xE398, symBinAddr: 0x10000FD94, symSize: 0x2C }
  - { offsetInCU: 0x5719F, offset: 0x5719F, size: 0x8, addend: 0x0, symName: __ZNSt3__111__wrap_iterIPN8nlohmann16json_abi_v3_11_310basic_jsonINS_3mapENS_6vectorENS_12basic_stringIcNS_11char_traitsIcEENS_9allocatorIcEEEEbxydS9_NS2_14adl_serializerENS5_IhNS9_IhEEEEvEEEC1B8ue170006Ev, symObjAddr: 0xE3C4, symBinAddr: 0x10000FDC0, symSize: 0x2C }
  - { offsetInCU: 0x571C9, offset: 0x571C9, size: 0x8, addend: 0x0, symName: __ZN8nlohmann16json_abi_v3_11_36detail20primitive_iterator_tC1Ev, symObjAddr: 0xE3F0, symBinAddr: 0x10000FDEC, symSize: 0x2C }
  - { offsetInCU: 0x571F6, offset: 0x571F6, size: 0x8, addend: 0x0, symName: __ZNSt3__114__map_iteratorINS_15__tree_iteratorINS_12__value_typeINS_12basic_stringIcNS_11char_traitsIcEENS_9allocatorIcEEEEN8nlohmann16json_abi_v3_11_310basic_jsonINS_3mapENS_6vectorES8_bxydS6_NSA_14adl_serializerENSD_IhNS6_IhEEEEvEEEEPNS_11__tree_nodeISI_PvEElEEEC2B8ue170006Ev, symObjAddr: 0xE41C, symBinAddr: 0x10000FE18, symSize: 0x2C }
  - { offsetInCU: 0x57220, offset: 0x57220, size: 0x8, addend: 0x0, symName: __ZNSt3__115__tree_iteratorINS_12__value_typeINS_12basic_stringIcNS_11char_traitsIcEENS_9allocatorIcEEEEN8nlohmann16json_abi_v3_11_310basic_jsonINS_3mapENS_6vectorES7_bxydS5_NS9_14adl_serializerENSC_IhNS5_IhEEEEvEEEEPNS_11__tree_nodeISH_PvEElEC1B8ue170006Ev, symObjAddr: 0xE448, symBinAddr: 0x10000FE44, symSize: 0x2C }
  - { offsetInCU: 0x5724A, offset: 0x5724A, size: 0x8, addend: 0x0, symName: __ZNSt3__115__tree_iteratorINS_12__value_typeINS_12basic_stringIcNS_11char_traitsIcEENS_9allocatorIcEEEEN8nlohmann16json_abi_v3_11_310basic_jsonINS_3mapENS_6vectorES7_bxydS5_NS9_14adl_serializerENSC_IhNS5_IhEEEEvEEEEPNS_11__tree_nodeISH_PvEElEC2B8ue170006Ev, symObjAddr: 0xE474, symBinAddr: 0x10000FE70, symSize: 0x18 }
  - { offsetInCU: 0x57274, offset: 0x57274, size: 0x8, addend: 0x0, symName: __ZNSt3__111__wrap_iterIPN8nlohmann16json_abi_v3_11_310basic_jsonINS_3mapENS_6vectorENS_12basic_stringIcNS_11char_traitsIcEENS_9allocatorIcEEEEbxydS9_NS2_14adl_serializerENS5_IhNS9_IhEEEEvEEEC2B8ue170006Ev, symObjAddr: 0xE48C, symBinAddr: 0x10000FE88, symSize: 0x18 }
  - { offsetInCU: 0x5729E, offset: 0x5729E, size: 0x8, addend: 0x0, symName: __ZN8nlohmann16json_abi_v3_11_36detail20primitive_iterator_tC2Ev, symObjAddr: 0xE4A4, symBinAddr: 0x10000FEA0, symSize: 0x34 }
  - { offsetInCU: 0x572CB, offset: 0x572CB, size: 0x8, addend: 0x0, symName: __ZNSt3__114numeric_limitsIlE3minB8ue170006Ev, symObjAddr: 0xE4D8, symBinAddr: 0x10000FED4, symSize: 0x14 }
  - { offsetInCU: 0x572DF, offset: 0x572DF, size: 0x8, addend: 0x0, symName: __ZNSt3__123__libcpp_numeric_limitsIlLb1EE3minB8ue170006Ev, symObjAddr: 0xE4EC, symBinAddr: 0x10000FEE8, symSize: 0x8 }
  - { offsetInCU: 0x572F3, offset: 0x572F3, size: 0x8, addend: 0x0, symName: __ZN8nlohmann16json_abi_v3_11_36detail20primitive_iterator_t7set_endEv, symObjAddr: 0xE4F4, symBinAddr: 0x10000FEF0, symSize: 0x1C }
  - { offsetInCU: 0x57319, offset: 0x57319, size: 0x8, addend: 0x0, symName: __ZN8nlohmann16json_abi_v3_11_36detail20primitive_iterator_t9set_beginEv, symObjAddr: 0xE510, symBinAddr: 0x10000FF0C, symSize: 0x18 }
  - { offsetInCU: 0x5733F, offset: 0x5733F, size: 0x8, addend: 0x0, symName: __ZNK8nlohmann16json_abi_v3_11_310basic_jsonINSt3__13mapENS2_6vectorENS2_12basic_stringIcNS2_11char_traitsIcEENS2_9allocatorIcEEEEbxydS8_NS0_14adl_serializerENS4_IhNS8_IhEEEEvE4cendEv, symObjAddr: 0xE528, symBinAddr: 0x10000FF24, symSize: 0x40 }
  - { offsetInCU: 0x57375, offset: 0x57375, size: 0x8, addend: 0x0, symName: __ZN8nlohmann16json_abi_v3_11_36detail9iter_implIKNS0_10basic_jsonINSt3__13mapENS4_6vectorENS4_12basic_stringIcNS4_11char_traitsIcEENS4_9allocatorIcEEEEbxydSA_NS0_14adl_serializerENS6_IhNSA_IhEEEEvEEE7set_endEv, symObjAddr: 0xE568, symBinAddr: 0x10000FF64, symSize: 0x108 }
  - { offsetInCU: 0x5739B, offset: 0x5739B, size: 0x8, addend: 0x0, symName: __ZNK8nlohmann16json_abi_v3_11_36detail9iter_implIKNS0_10basic_jsonINSt3__13mapENS4_6vectorENS4_12basic_stringIcNS4_11char_traitsIcEENS4_9allocatorIcEEEEbxydSA_NS0_14adl_serializerENS6_IhNSA_IhEEEEvEEEeqISI_LDn0EEEbRKT_, symObjAddr: 0xE698, symBinAddr: 0x100010094, symSize: 0x204 }
  - { offsetInCU: 0x573E5, offset: 0x573E5, size: 0x8, addend: 0x0, symName: __ZN8nlohmann16json_abi_v3_11_36detail16invalid_iterator6createIPKNS0_10basic_jsonINSt3__13mapENS5_6vectorENS5_12basic_stringIcNS5_11char_traitsIcEENS5_9allocatorIcEEEEbxydSB_NS0_14adl_serializerENS7_IhNSB_IhEEEEvEELi0EEES2_iRKSD_T_, symObjAddr: 0xE8C4, symBinAddr: 0x1000102C0, symSize: 0x130 }
  - { offsetInCU: 0x57445, offset: 0x57445, size: 0x8, addend: 0x0, symName: __ZN8nlohmann16json_abi_v3_11_36detail16invalid_iteratorD1Ev, symObjAddr: 0xE9F4, symBinAddr: 0x1000103F0, symSize: 0x2C }
  - { offsetInCU: 0x57472, offset: 0x57472, size: 0x8, addend: 0x0, symName: __ZN8nlohmann16json_abi_v3_11_36detail16invalid_iteratorC1EiPKc, symObjAddr: 0xEA90, symBinAddr: 0x10001048C, symSize: 0x3C }
  - { offsetInCU: 0x574BA, offset: 0x574BA, size: 0x8, addend: 0x0, symName: __ZN8nlohmann16json_abi_v3_11_36detail16invalid_iteratorC2EiPKc, symObjAddr: 0xEACC, symBinAddr: 0x1000104C8, symSize: 0x54 }
  - { offsetInCU: 0x57502, offset: 0x57502, size: 0x8, addend: 0x0, symName: __ZN8nlohmann16json_abi_v3_11_36detail16invalid_iteratorD0Ev, symObjAddr: 0xEB20, symBinAddr: 0x10001051C, symSize: 0x30 }
  - { offsetInCU: 0x5752F, offset: 0x5752F, size: 0x8, addend: 0x0, symName: __ZN8nlohmann16json_abi_v3_11_36detail16invalid_iteratorD2Ev, symObjAddr: 0xEB50, symBinAddr: 0x10001054C, symSize: 0x2C }
  - { offsetInCU: 0x5755C, offset: 0x5755C, size: 0x8, addend: 0x0, symName: __ZN8nlohmann16json_abi_v3_11_36detail20primitive_iterator_tppEv, symObjAddr: 0xEBFC, symBinAddr: 0x1000105F8, symSize: 0x20 }
  - { offsetInCU: 0x57582, offset: 0x57582, size: 0x8, addend: 0x0, symName: __ZNSt3__114__map_iteratorINS_15__tree_iteratorINS_12__value_typeINS_12basic_stringIcNS_11char_traitsIcEENS_9allocatorIcEEEEN8nlohmann16json_abi_v3_11_310basic_jsonINS_3mapENS_6vectorES8_bxydS6_NSA_14adl_serializerENSD_IhNS6_IhEEEEvEEEEPNS_11__tree_nodeISI_PvEElEEEmmB8ue170006Ev, symObjAddr: 0xECD4, symBinAddr: 0x1000106D0, symSize: 0x2C }
  - { offsetInCU: 0x575A8, offset: 0x575A8, size: 0x8, addend: 0x0, symName: __ZNSt3__115__tree_iteratorINS_12__value_typeINS_12basic_stringIcNS_11char_traitsIcEENS_9allocatorIcEEEEN8nlohmann16json_abi_v3_11_310basic_jsonINS_3mapENS_6vectorES7_bxydS5_NS9_14adl_serializerENSC_IhNS5_IhEEEEvEEEEPNS_11__tree_nodeISH_PvEElEmmB8ue170006Ev, symObjAddr: 0xED00, symBinAddr: 0x1000106FC, symSize: 0x38 }
  - { offsetInCU: 0x575CE, offset: 0x575CE, size: 0x8, addend: 0x0, symName: __ZNKSt3__111__wrap_iterIPN8nlohmann16json_abi_v3_11_310basic_jsonINS_3mapENS_6vectorENS_12basic_stringIcNS_11char_traitsIcEENS_9allocatorIcEEEEbxydS9_NS2_14adl_serializerENS5_IhNS9_IhEEEEvEEEdeB8ue170006Ev, symObjAddr: 0xEE60, symBinAddr: 0x10001085C, symSize: 0x18 }
  - { offsetInCU: 0x575F4, offset: 0x575F4, size: 0x8, addend: 0x0, symName: __ZNK8nlohmann16json_abi_v3_11_36detail20primitive_iterator_t8is_beginEv, symObjAddr: 0xEE78, symBinAddr: 0x100010874, symSize: 0x24 }
  - { offsetInCU: 0x5761A, offset: 0x5761A, size: 0x8, addend: 0x0, symName: __ZNK8nlohmann16json_abi_v3_11_310basic_jsonINSt3__13mapENS2_6vectorENS2_12basic_stringIcNS2_11char_traitsIcEENS2_9allocatorIcEEEEbxydS8_NS0_14adl_serializerENS4_IhNS8_IhEEEEvE9is_stringEv, symObjAddr: 0xEE9C, symBinAddr: 0x100010898, symSize: 0x24 }
  - { offsetInCU: 0x57640, offset: 0x57640, size: 0x8, addend: 0x0, symName: __ZNK8nlohmann16json_abi_v3_11_310basic_jsonINSt3__13mapENS2_6vectorENS2_12basic_stringIcNS2_11char_traitsIcEENS2_9allocatorIcEEEEbxydS8_NS0_14adl_serializerENS4_IhNS8_IhEEEEvE7get_ptrIPKSA_Li0EEEDTcldtclL_ZNS2_7declvalIRKSE_EEDTclsr3stdE9__declvalIT_ELi0EEEvEE12get_impl_ptrclsr3stdE7declvalISL_EEEEv, symObjAddr: 0xEF8C, symBinAddr: 0x100010988, symSize: 0x28 }
  - { offsetInCU: 0x57675, offset: 0x57675, size: 0x8, addend: 0x0, symName: __ZNK8nlohmann16json_abi_v3_11_310basic_jsonINSt3__13mapENS2_6vectorENS2_12basic_stringIcNS2_11char_traitsIcEENS2_9allocatorIcEEEEbxydS8_NS0_14adl_serializerENS4_IhNS8_IhEEEEvE12get_impl_ptrEPKSA_, symObjAddr: 0xEFF0, symBinAddr: 0x1000109EC, symSize: 0x54 }
  - { offsetInCU: 0x576A7, offset: 0x576A7, size: 0x8, addend: 0x0, symName: __ZNSt3__16vectorINS_12basic_stringIcNS_11char_traitsIcEENS_9allocatorIcEEEENS4_IS6_EEE9__end_capB8ue170006Ev, symObjAddr: 0xF044, symBinAddr: 0x100010A40, symSize: 0x28 }
  - { offsetInCU: 0x576CD, offset: 0x576CD, size: 0x8, addend: 0x0, symName: __ZNSt3__16vectorINS_12basic_stringIcNS_11char_traitsIcEENS_9allocatorIcEEEENS4_IS6_EEE22__construct_one_at_endB8ue170006IJRKS6_EEEvDpOT_, symObjAddr: 0xF06C, symBinAddr: 0x100010A68, symSize: 0x90 }
  - { offsetInCU: 0x5771C, offset: 0x5771C, size: 0x8, addend: 0x0, symName: __ZNSt3__16vectorINS_12basic_stringIcNS_11char_traitsIcEENS_9allocatorIcEEEENS4_IS6_EEE21__push_back_slow_pathIRKS6_EEvOT_, symObjAddr: 0xF0FC, symBinAddr: 0x100010AF8, symSize: 0xD8 }
  - { offsetInCU: 0x5777A, offset: 0x5777A, size: 0x8, addend: 0x0, symName: __ZNSt3__117__compressed_pairIPNS_12basic_stringIcNS_11char_traitsIcEENS_9allocatorIcEEEENS4_IS6_EEE5firstB8ue170006Ev, symObjAddr: 0xF1D4, symBinAddr: 0x100010BD0, symSize: 0x24 }
  - { offsetInCU: 0x577A0, offset: 0x577A0, size: 0x8, addend: 0x0, symName: __ZNSt3__122__compressed_pair_elemIPNS_12basic_stringIcNS_11char_traitsIcEENS_9allocatorIcEEEELi0ELb0EE5__getB8ue170006Ev, symObjAddr: 0xF1F8, symBinAddr: 0x100010BF4, symSize: 0x14 }
  - { offsetInCU: 0x577E2, offset: 0x577E2, size: 0x8, addend: 0x0, symName: __ZNSt3__16vectorINS_12basic_stringIcNS_11char_traitsIcEENS_9allocatorIcEEEENS4_IS6_EEE21_ConstructTransactionC1B8ue170006ERS8_m, symObjAddr: 0xF20C, symBinAddr: 0x100010C08, symSize: 0x3C }
  - { offsetInCU: 0x5782A, offset: 0x5782A, size: 0x8, addend: 0x0, symName: __ZNSt3__116allocator_traitsINS_9allocatorINS_12basic_stringIcNS_11char_traitsIcEENS1_IcEEEEEEE9constructB8ue170006IS6_JRKS6_EvEEvRS7_PT_DpOT0_, symObjAddr: 0xF248, symBinAddr: 0x100010C44, symSize: 0x34 }
  - { offsetInCU: 0x57881, offset: 0x57881, size: 0x8, addend: 0x0, symName: __ZNSt3__16vectorINS_12basic_stringIcNS_11char_traitsIcEENS_9allocatorIcEEEENS4_IS6_EEE21_ConstructTransactionD1B8ue170006Ev, symObjAddr: 0xF27C, symBinAddr: 0x100010C78, symSize: 0x2C }
  - { offsetInCU: 0x578AB, offset: 0x578AB, size: 0x8, addend: 0x0, symName: __ZNSt3__16vectorINS_12basic_stringIcNS_11char_traitsIcEENS_9allocatorIcEEEENS4_IS6_EEE21_ConstructTransactionC2B8ue170006ERS8_m, symObjAddr: 0xF2A8, symBinAddr: 0x100010CA4, symSize: 0x4C }
  - { offsetInCU: 0x578F3, offset: 0x578F3, size: 0x8, addend: 0x0, symName: __ZNSt3__19allocatorINS_12basic_stringIcNS_11char_traitsIcEENS0_IcEEEEE9constructB8ue170006IS5_JRKS5_EEEvPT_DpOT0_, symObjAddr: 0xF2F4, symBinAddr: 0x100010CF0, symSize: 0x30 }
  - { offsetInCU: 0x57949, offset: 0x57949, size: 0x8, addend: 0x0, symName: __ZNSt3__16vectorINS_12basic_stringIcNS_11char_traitsIcEENS_9allocatorIcEEEENS4_IS6_EEE21_ConstructTransactionD2B8ue170006Ev, symObjAddr: 0xF324, symBinAddr: 0x100010D20, symSize: 0x20 }
  - { offsetInCU: 0x57973, offset: 0x57973, size: 0x8, addend: 0x0, symName: __ZNKSt3__16vectorINS_12basic_stringIcNS_11char_traitsIcEENS_9allocatorIcEEEENS4_IS6_EEE11__recommendB8ue170006Em, symObjAddr: 0xF344, symBinAddr: 0x100010D40, symSize: 0xB4 }
  - { offsetInCU: 0x579C8, offset: 0x579C8, size: 0x8, addend: 0x0, symName: __ZNSt3__114__split_bufferINS_12basic_stringIcNS_11char_traitsIcEENS_9allocatorIcEEEERNS4_IS6_EEEC1EmmS8_, symObjAddr: 0xF3F8, symBinAddr: 0x100010DF4, symSize: 0x44 }
  - { offsetInCU: 0x57A1E, offset: 0x57A1E, size: 0x8, addend: 0x0, symName: __ZNSt3__114__split_bufferINS_12basic_stringIcNS_11char_traitsIcEENS_9allocatorIcEEEERNS4_IS6_EEED1Ev, symObjAddr: 0xF54C, symBinAddr: 0x100010F48, symSize: 0x2C }
  - { offsetInCU: 0x57A4A, offset: 0x57A4A, size: 0x8, addend: 0x0, symName: __ZNKSt3__16vectorINS_12basic_stringIcNS_11char_traitsIcEENS_9allocatorIcEEEENS4_IS6_EEE8max_sizeEv, symObjAddr: 0xF578, symBinAddr: 0x100010F74, symSize: 0x60 }
  - { offsetInCU: 0x57A72, offset: 0x57A72, size: 0x8, addend: 0x0, symName: __ZNKSt3__16vectorINS_12basic_stringIcNS_11char_traitsIcEENS_9allocatorIcEEEENS4_IS6_EEE20__throw_length_errorB8ue170006Ev, symObjAddr: 0xF5D8, symBinAddr: 0x100010FD4, symSize: 0x1C }
  - { offsetInCU: 0x57AA3, offset: 0x57AA3, size: 0x8, addend: 0x0, symName: __ZNSt3__116allocator_traitsINS_9allocatorINS_12basic_stringIcNS_11char_traitsIcEENS1_IcEEEEEEE8max_sizeB8ue170006IS7_vEEmRKS7_, symObjAddr: 0xF5F4, symBinAddr: 0x100010FF0, symSize: 0x24 }
  - { offsetInCU: 0x57AD1, offset: 0x57AD1, size: 0x8, addend: 0x0, symName: __ZNKSt3__16vectorINS_12basic_stringIcNS_11char_traitsIcEENS_9allocatorIcEEEENS4_IS6_EEE7__allocB8ue170006Ev, symObjAddr: 0xF618, symBinAddr: 0x100011014, symSize: 0x28 }
  - { offsetInCU: 0x57AF7, offset: 0x57AF7, size: 0x8, addend: 0x0, symName: __ZNKSt3__19allocatorINS_12basic_stringIcNS_11char_traitsIcEENS0_IcEEEEE8max_sizeB8ue170006Ev, symObjAddr: 0xF640, symBinAddr: 0x10001103C, symSize: 0x18 }
  - { offsetInCU: 0x57B1D, offset: 0x57B1D, size: 0x8, addend: 0x0, symName: __ZNKSt3__117__compressed_pairIPNS_12basic_stringIcNS_11char_traitsIcEENS_9allocatorIcEEEENS4_IS6_EEE6secondB8ue170006Ev, symObjAddr: 0xF658, symBinAddr: 0x100011054, symSize: 0x24 }
  - { offsetInCU: 0x57B43, offset: 0x57B43, size: 0x8, addend: 0x0, symName: __ZNKSt3__122__compressed_pair_elemINS_9allocatorINS_12basic_stringIcNS_11char_traitsIcEENS1_IcEEEEEELi1ELb1EE5__getB8ue170006Ev, symObjAddr: 0xF67C, symBinAddr: 0x100011078, symSize: 0x14 }
  - { offsetInCU: 0x57B69, offset: 0x57B69, size: 0x8, addend: 0x0, symName: __ZNSt3__114__split_bufferINS_12basic_stringIcNS_11char_traitsIcEENS_9allocatorIcEEEERNS4_IS6_EEEC2EmmS8_, symObjAddr: 0xF690, symBinAddr: 0x10001108C, symSize: 0xE0 }
  - { offsetInCU: 0x57BDD, offset: 0x57BDD, size: 0x8, addend: 0x0, symName: __ZNSt3__117__compressed_pairIPNS_12basic_stringIcNS_11char_traitsIcEENS_9allocatorIcEEEERNS4_IS6_EEEC1B8ue170006IDnS9_EEOT_OT0_, symObjAddr: 0xF770, symBinAddr: 0x10001116C, symSize: 0x3C }
  - { offsetInCU: 0x57C35, offset: 0x57C35, size: 0x8, addend: 0x0, symName: __ZNSt3__114__split_bufferINS_12basic_stringIcNS_11char_traitsIcEENS_9allocatorIcEEEERNS4_IS6_EEE7__allocB8ue170006Ev, symObjAddr: 0xF7EC, symBinAddr: 0x1000111E8, symSize: 0x28 }
  - { offsetInCU: 0x57C5B, offset: 0x57C5B, size: 0x8, addend: 0x0, symName: __ZNSt3__114__split_bufferINS_12basic_stringIcNS_11char_traitsIcEENS_9allocatorIcEEEERNS4_IS6_EEE9__end_capB8ue170006Ev, symObjAddr: 0xF814, symBinAddr: 0x100011210, symSize: 0x28 }
  - { offsetInCU: 0x57C81, offset: 0x57C81, size: 0x8, addend: 0x0, symName: __ZNSt3__117__compressed_pairIPNS_12basic_stringIcNS_11char_traitsIcEENS_9allocatorIcEEEERNS4_IS6_EEEC2B8ue170006IDnS9_EEOT_OT0_, symObjAddr: 0xF83C, symBinAddr: 0x100011238, symSize: 0x48 }
  - { offsetInCU: 0x57CD9, offset: 0x57CD9, size: 0x8, addend: 0x0, symName: __ZNSt3__122__compressed_pair_elemIRNS_9allocatorINS_12basic_stringIcNS_11char_traitsIcEENS1_IcEEEEEELi1ELb0EEC2B8ue170006IS8_vEEOT_, symObjAddr: 0xF884, symBinAddr: 0x100011280, symSize: 0x20 }
  - { offsetInCU: 0x57D1B, offset: 0x57D1B, size: 0x8, addend: 0x0, symName: __ZNSt3__19allocatorINS_12basic_stringIcNS_11char_traitsIcEENS0_IcEEEEE8allocateB8ue170006Em, symObjAddr: 0xF8A4, symBinAddr: 0x1000112A0, symSize: 0x5C }
  - { offsetInCU: 0x57D4F, offset: 0x57D4F, size: 0x8, addend: 0x0, symName: __ZNSt3__117__compressed_pairIPNS_12basic_stringIcNS_11char_traitsIcEENS_9allocatorIcEEEERNS4_IS6_EEE6secondB8ue170006Ev, symObjAddr: 0xF900, symBinAddr: 0x1000112FC, symSize: 0x28 }
  - { offsetInCU: 0x57D75, offset: 0x57D75, size: 0x8, addend: 0x0, symName: __ZNSt3__122__compressed_pair_elemIRNS_9allocatorINS_12basic_stringIcNS_11char_traitsIcEENS1_IcEEEEEELi1ELb0EE5__getB8ue170006Ev, symObjAddr: 0xF928, symBinAddr: 0x100011324, symSize: 0x18 }
  - { offsetInCU: 0x57D9B, offset: 0x57D9B, size: 0x8, addend: 0x0, symName: __ZNSt3__117__compressed_pairIPNS_12basic_stringIcNS_11char_traitsIcEENS_9allocatorIcEEEERNS4_IS6_EEE5firstB8ue170006Ev, symObjAddr: 0xF940, symBinAddr: 0x10001133C, symSize: 0x24 }
  - { offsetInCU: 0x57DC1, offset: 0x57DC1, size: 0x8, addend: 0x0, symName: __ZNSt3__116reverse_iteratorIPNS_12basic_stringIcNS_11char_traitsIcEENS_9allocatorIcEEEEEC1B8ue170006ES7_, symObjAddr: 0xFA90, symBinAddr: 0x10001148C, symSize: 0x34 }
  - { offsetInCU: 0x57DF9, offset: 0x57DF9, size: 0x8, addend: 0x0, symName: __ZNKSt3__116reverse_iteratorIPNS_12basic_stringIcNS_11char_traitsIcEENS_9allocatorIcEEEEE4baseB8ue170006Ev, symObjAddr: 0xFAC4, symBinAddr: 0x1000114C0, symSize: 0x18 }
  - { offsetInCU: 0x57E1F, offset: 0x57E1F, size: 0x8, addend: 0x0, symName: __ZNKSt3__16vectorINS_12basic_stringIcNS_11char_traitsIcEENS_9allocatorIcEEEENS4_IS6_EEE14__annotate_newB8ue170006Em, symObjAddr: 0xFB18, symBinAddr: 0x100011514, symSize: 0xC8 }
  - { offsetInCU: 0x57E54, offset: 0x57E54, size: 0x8, addend: 0x0, symName: __ZNSt3__129_AllocatorDestroyRangeReverseINS_9allocatorINS_12basic_stringIcNS_11char_traitsIcEENS1_IcEEEEEENS_16reverse_iteratorIPS6_EEEC1B8ue170006ERS7_RSA_SD_, symObjAddr: 0xFC2C, symBinAddr: 0x100011628, symSize: 0x44 }
  - { offsetInCU: 0x57EAB, offset: 0x57EAB, size: 0x8, addend: 0x0, symName: __ZNSt3__116allocator_traitsINS_9allocatorINS_12basic_stringIcNS_11char_traitsIcEENS1_IcEEEEEEE9constructB8ue170006IS6_JS6_EvEEvRS7_PT_DpOT0_, symObjAddr: 0xFCB8, symBinAddr: 0x1000116B4, symSize: 0x34 }
  - { offsetInCU: 0x57F02, offset: 0x57F02, size: 0x8, addend: 0x0, symName: __ZNKSt3__116reverse_iteratorIPNS_12basic_stringIcNS_11char_traitsIcEENS_9allocatorIcEEEEEdeB8ue170006Ev, symObjAddr: 0xFD10, symBinAddr: 0x10001170C, symSize: 0x28 }
  - { offsetInCU: 0x57F36, offset: 0x57F36, size: 0x8, addend: 0x0, symName: __ZNSt3__116reverse_iteratorIPNS_12basic_stringIcNS_11char_traitsIcEENS_9allocatorIcEEEEEppB8ue170006Ev, symObjAddr: 0xFD38, symBinAddr: 0x100011734, symSize: 0x20 }
  - { offsetInCU: 0x57F5C, offset: 0x57F5C, size: 0x8, addend: 0x0, symName: __ZNSt3__128__exception_guard_exceptionsINS_29_AllocatorDestroyRangeReverseINS_9allocatorINS_12basic_stringIcNS_11char_traitsIcEENS2_IcEEEEEENS_16reverse_iteratorIPS7_EEEEE10__completeB8ue170006Ev, symObjAddr: 0xFD58, symBinAddr: 0x100011754, symSize: 0x1C }
  - { offsetInCU: 0x57F82, offset: 0x57F82, size: 0x8, addend: 0x0, symName: __ZNSt3__128__exception_guard_exceptionsINS_29_AllocatorDestroyRangeReverseINS_9allocatorINS_12basic_stringIcNS_11char_traitsIcEENS2_IcEEEEEENS_16reverse_iteratorIPS7_EEEEED1B8ue170006Ev, symObjAddr: 0xFD74, symBinAddr: 0x100011770, symSize: 0x2C }
  - { offsetInCU: 0x57FAC, offset: 0x57FAC, size: 0x8, addend: 0x0, symName: __ZNSt3__128__exception_guard_exceptionsINS_29_AllocatorDestroyRangeReverseINS_9allocatorINS_12basic_stringIcNS_11char_traitsIcEENS2_IcEEEEEENS_16reverse_iteratorIPS7_EEEEEC1B8ue170006ESC_, symObjAddr: 0xFDA0, symBinAddr: 0x10001179C, symSize: 0x34 }
  - { offsetInCU: 0x57FE5, offset: 0x57FE5, size: 0x8, addend: 0x0, symName: __ZNSt3__128__exception_guard_exceptionsINS_29_AllocatorDestroyRangeReverseINS_9allocatorINS_12basic_stringIcNS_11char_traitsIcEENS2_IcEEEEEENS_16reverse_iteratorIPS7_EEEEEC2B8ue170006ESC_, symObjAddr: 0xFDD4, symBinAddr: 0x1000117D0, symSize: 0x30 }
  - { offsetInCU: 0x5801E, offset: 0x5801E, size: 0x8, addend: 0x0, symName: __ZNSt3__129_AllocatorDestroyRangeReverseINS_9allocatorINS_12basic_stringIcNS_11char_traitsIcEENS1_IcEEEEEENS_16reverse_iteratorIPS6_EEEC2B8ue170006ERS7_RSA_SD_, symObjAddr: 0xFE04, symBinAddr: 0x100011800, symSize: 0x38 }
  - { offsetInCU: 0x58075, offset: 0x58075, size: 0x8, addend: 0x0, symName: __ZNSt3__19allocatorINS_12basic_stringIcNS_11char_traitsIcEENS0_IcEEEEE9constructB8ue170006IS5_JS5_EEEvPT_DpOT0_, symObjAddr: 0xFE3C, symBinAddr: 0x100011838, symSize: 0x30 }
  - { offsetInCU: 0x580CB, offset: 0x580CB, size: 0x8, addend: 0x0, symName: __ZNSt3__112basic_stringIcNS_11char_traitsIcEENS_9allocatorIcEEEC1B8ue170006EOS5_, symObjAddr: 0xFE6C, symBinAddr: 0x100011868, symSize: 0x34 }
  - { offsetInCU: 0x58104, offset: 0x58104, size: 0x8, addend: 0x0, symName: __ZNSt3__112basic_stringIcNS_11char_traitsIcEENS_9allocatorIcEEEC2B8ue170006EOS5_, symObjAddr: 0xFEA0, symBinAddr: 0x10001189C, symSize: 0x48 }
  - { offsetInCU: 0x58143, offset: 0x58143, size: 0x8, addend: 0x0, symName: __ZNSt3__119__to_address_helperINS_16reverse_iteratorIPNS_12basic_stringIcNS_11char_traitsIcEENS_9allocatorIcEEEEEEvE6__callB8ue170006ERKS9_, symObjAddr: 0xFEE8, symBinAddr: 0x1000118E4, symSize: 0x38 }
  - { offsetInCU: 0x58166, offset: 0x58166, size: 0x8, addend: 0x0, symName: __ZNKSt3__116reverse_iteratorIPNS_12basic_stringIcNS_11char_traitsIcEENS_9allocatorIcEEEEEptB8ue170006Ev, symObjAddr: 0xFF20, symBinAddr: 0x10001191C, symSize: 0x24 }
  - { offsetInCU: 0x5818C, offset: 0x5818C, size: 0x8, addend: 0x0, symName: __ZNSt3__128__exception_guard_exceptionsINS_29_AllocatorDestroyRangeReverseINS_9allocatorINS_12basic_stringIcNS_11char_traitsIcEENS2_IcEEEEEENS_16reverse_iteratorIPS7_EEEEED2B8ue170006Ev, symObjAddr: 0xFF44, symBinAddr: 0x100011940, symSize: 0x50 }
  - { offsetInCU: 0x581B6, offset: 0x581B6, size: 0x8, addend: 0x0, symName: __ZNKSt3__129_AllocatorDestroyRangeReverseINS_9allocatorINS_12basic_stringIcNS_11char_traitsIcEENS1_IcEEEEEENS_16reverse_iteratorIPS6_EEEclB8ue170006Ev, symObjAddr: 0xFF94, symBinAddr: 0x100011990, symSize: 0xB4 }
  - { offsetInCU: 0x581DD, offset: 0x581DD, size: 0x8, addend: 0x0, symName: __ZNSt3__116reverse_iteratorINS0_IPNS_12basic_stringIcNS_11char_traitsIcEENS_9allocatorIcEEEEEEEC1B8ue170006ES8_, symObjAddr: 0x100B8, symBinAddr: 0x100011AB4, symSize: 0x3C }
  - { offsetInCU: 0x58215, offset: 0x58215, size: 0x8, addend: 0x0, symName: __ZNSt3__116reverse_iteratorINS0_IPNS_12basic_stringIcNS_11char_traitsIcEENS_9allocatorIcEEEEEEEppB8ue170006Ev, symObjAddr: 0x10178, symBinAddr: 0x100011B74, symSize: 0x30 }
  - { offsetInCU: 0x5823B, offset: 0x5823B, size: 0x8, addend: 0x0, symName: __ZNKSt3__116reverse_iteratorINS0_IPNS_12basic_stringIcNS_11char_traitsIcEENS_9allocatorIcEEEEEEE4baseB8ue170006Ev, symObjAddr: 0x101A8, symBinAddr: 0x100011BA4, symSize: 0x24 }
  - { offsetInCU: 0x58267, offset: 0x58267, size: 0x8, addend: 0x0, symName: __ZNSt3__119__to_address_helperINS_16reverse_iteratorINS1_IPNS_12basic_stringIcNS_11char_traitsIcEENS_9allocatorIcEEEEEEEEvE6__callB8ue170006ERKSA_, symObjAddr: 0x101CC, symBinAddr: 0x100011BC8, symSize: 0x38 }
  - { offsetInCU: 0x5828A, offset: 0x5828A, size: 0x8, addend: 0x0, symName: __ZNKSt3__116reverse_iteratorINS0_IPNS_12basic_stringIcNS_11char_traitsIcEENS_9allocatorIcEEEEEEEptB8ue170006Ev, symObjAddr: 0x10204, symBinAddr: 0x100011C00, symSize: 0x24 }
  - { offsetInCU: 0x582B0, offset: 0x582B0, size: 0x8, addend: 0x0, symName: __ZNKSt3__116reverse_iteratorINS0_IPNS_12basic_stringIcNS_11char_traitsIcEENS_9allocatorIcEEEEEEEdeB8ue170006Ev, symObjAddr: 0x10228, symBinAddr: 0x100011C24, symSize: 0x34 }
  - { offsetInCU: 0x582E4, offset: 0x582E4, size: 0x8, addend: 0x0, symName: __ZNSt3__116reverse_iteratorIPNS_12basic_stringIcNS_11char_traitsIcEENS_9allocatorIcEEEEEmmB8ue170006Ev, symObjAddr: 0x1025C, symBinAddr: 0x100011C58, symSize: 0x20 }
  - { offsetInCU: 0x5830A, offset: 0x5830A, size: 0x8, addend: 0x0, symName: __ZNSt3__116reverse_iteratorINS0_IPNS_12basic_stringIcNS_11char_traitsIcEENS_9allocatorIcEEEEEEEC2B8ue170006ES8_, symObjAddr: 0x1027C, symBinAddr: 0x100011C78, symSize: 0x2C }
  - { offsetInCU: 0x58342, offset: 0x58342, size: 0x8, addend: 0x0, symName: __ZNSt3__116reverse_iteratorIPNS_12basic_stringIcNS_11char_traitsIcEENS_9allocatorIcEEEEEC2B8ue170006ES7_, symObjAddr: 0x102A8, symBinAddr: 0x100011CA4, symSize: 0x28 }
  - { offsetInCU: 0x5837A, offset: 0x5837A, size: 0x8, addend: 0x0, symName: __ZNSt3__114__split_bufferINS_12basic_stringIcNS_11char_traitsIcEENS_9allocatorIcEEEERNS4_IS6_EEED2Ev, symObjAddr: 0x102D0, symBinAddr: 0x100011CCC, symSize: 0x8C }
  - { offsetInCU: 0x583A6, offset: 0x583A6, size: 0x8, addend: 0x0, symName: __ZNSt3__114__split_bufferINS_12basic_stringIcNS_11char_traitsIcEENS_9allocatorIcEEEERNS4_IS6_EEE5clearB8ue170006Ev, symObjAddr: 0x1035C, symBinAddr: 0x100011D58, symSize: 0x28 }
  - { offsetInCU: 0x583CC, offset: 0x583CC, size: 0x8, addend: 0x0, symName: __ZNKSt3__114__split_bufferINS_12basic_stringIcNS_11char_traitsIcEENS_9allocatorIcEEEERNS4_IS6_EEE8capacityB8ue170006Ev, symObjAddr: 0x10384, symBinAddr: 0x100011D80, symSize: 0x40 }
  - { offsetInCU: 0x583F2, offset: 0x583F2, size: 0x8, addend: 0x0, symName: __ZNSt3__114__split_bufferINS_12basic_stringIcNS_11char_traitsIcEENS_9allocatorIcEEEERNS4_IS6_EEE17__destruct_at_endB8ue170006EPS6_, symObjAddr: 0x103C4, symBinAddr: 0x100011DC0, symSize: 0x2C }
  - { offsetInCU: 0x58426, offset: 0x58426, size: 0x8, addend: 0x0, symName: __ZNSt3__114__split_bufferINS_12basic_stringIcNS_11char_traitsIcEENS_9allocatorIcEEEERNS4_IS6_EEE17__destruct_at_endB8ue170006EPS6_NS_17integral_constantIbLb0EEE, symObjAddr: 0x103F0, symBinAddr: 0x100011DEC, symSize: 0x80 }
  - { offsetInCU: 0x58467, offset: 0x58467, size: 0x8, addend: 0x0, symName: __ZNKSt3__114__split_bufferINS_12basic_stringIcNS_11char_traitsIcEENS_9allocatorIcEEEERNS4_IS6_EEE9__end_capB8ue170006Ev, symObjAddr: 0x10470, symBinAddr: 0x100011E6C, symSize: 0x28 }
  - { offsetInCU: 0x5848D, offset: 0x5848D, size: 0x8, addend: 0x0, symName: __ZNKSt3__117__compressed_pairIPNS_12basic_stringIcNS_11char_traitsIcEENS_9allocatorIcEEEERNS4_IS6_EEE5firstB8ue170006Ev, symObjAddr: 0x10498, symBinAddr: 0x100011E94, symSize: 0x24 }
  - { offsetInCU: 0x584B3, offset: 0x584B3, size: 0x8, addend: 0x0, symName: __ZNSt3__13mapINS_12basic_stringIcNS_11char_traitsIcEENS_9allocatorIcEEEEN8nlohmann16json_abi_v3_11_310basic_jsonIS0_NS_6vectorES6_bxydS4_NS8_14adl_serializerENSA_IhNS4_IhEEEEvEENS_4lessIvEENS4_INS_4pairIKS6_SE_EEEEE4findB8ue170006IA20_cEENS_9enable_ifIXsr16__is_transparentISG_T_EE5valueENS_14__map_iteratorINS_15__tree_iteratorINS_12__value_typeIS6_SE_EEPNS_11__tree_nodeIST_PvEElEEEEE4typeERKSP_, symObjAddr: 0x104BC, symBinAddr: 0x100011EB8, symSize: 0x40 }
  - { offsetInCU: 0x584F1, offset: 0x584F1, size: 0x8, addend: 0x0, symName: __ZNSt3__16__treeINS_12__value_typeINS_12basic_stringIcNS_11char_traitsIcEENS_9allocatorIcEEEEN8nlohmann16json_abi_v3_11_310basic_jsonINS_3mapENS_6vectorES7_bxydS5_NS9_14adl_serializerENSC_IhNS5_IhEEEEvEEEENS_19__map_value_compareIS7_SH_NS_4lessIvEELb1EEENS5_ISH_EEE4findIA20_cEENS_15__tree_iteratorISH_PNS_11__tree_nodeISH_PvEElEERKT_, symObjAddr: 0x104FC, symBinAddr: 0x100011EF8, symSize: 0xF8 }
  - { offsetInCU: 0x58540, offset: 0x58540, size: 0x8, addend: 0x0, symName: __ZNSt3__16__treeINS_12__value_typeINS_12basic_stringIcNS_11char_traitsIcEENS_9allocatorIcEEEEN8nlohmann16json_abi_v3_11_310basic_jsonINS_3mapENS_6vectorES7_bxydS5_NS9_14adl_serializerENSC_IhNS5_IhEEEEvEEEENS_19__map_value_compareIS7_SH_NS_4lessIvEELb1EEENS5_ISH_EEE13__lower_boundIA20_cEENS_15__tree_iteratorISH_PNS_11__tree_nodeISH_PvEElEERKT_SU_PNS_15__tree_end_nodeIPNS_16__tree_node_baseISS_EEEE, symObjAddr: 0x105F4, symBinAddr: 0x100011FF0, symSize: 0xA4 }
  - { offsetInCU: 0x5859E, offset: 0x5859E, size: 0x8, addend: 0x0, symName: __ZNKSt3__119__map_value_compareINS_12basic_stringIcNS_11char_traitsIcEENS_9allocatorIcEEEENS_12__value_typeIS6_N8nlohmann16json_abi_v3_11_310basic_jsonINS_3mapENS_6vectorES6_bxydS4_NS9_14adl_serializerENSC_IhNS4_IhEEEEvEEEENS_4lessIvEELb1EEclB8ue170006IA20_cEEbRKT_RKSH_, symObjAddr: 0x10698, symBinAddr: 0x100012094, symSize: 0x50 }
  - { offsetInCU: 0x585EB, offset: 0x585EB, size: 0x8, addend: 0x0, symName: __ZNKSt3__119__map_value_compareINS_12basic_stringIcNS_11char_traitsIcEENS_9allocatorIcEEEENS_12__value_typeIS6_N8nlohmann16json_abi_v3_11_310basic_jsonINS_3mapENS_6vectorES6_bxydS4_NS9_14adl_serializerENSC_IhNS4_IhEEEEvEEEENS_4lessIvEELb1EEclB8ue170006IA20_cEEbRKSH_RKT_, symObjAddr: 0x106E8, symBinAddr: 0x1000120E4, symSize: 0x48 }
  - { offsetInCU: 0x58638, offset: 0x58638, size: 0x8, addend: 0x0, symName: __ZNKSt3__14lessIvEclB8ue170006IRKNS_12basic_stringIcNS_11char_traitsIcEENS_9allocatorIcEEEERA20_KcEEDTltclsr3stdE7forwardIT_Efp_Eclsr3stdE7forwardIT0_Efp0_EEOSE_OSF_, symObjAddr: 0x10730, symBinAddr: 0x10001212C, symSize: 0x34 }
  - { offsetInCU: 0x5868E, offset: 0x5868E, size: 0x8, addend: 0x0, symName: __ZNKSt3__14lessIvEclB8ue170006IRA20_KcRKNS_12basic_stringIcNS_11char_traitsIcEENS_9allocatorIcEEEEEEDTltclsr3stdE7forwardIT_Efp_Eclsr3stdE7forwardIT0_Efp0_EEOSE_OSF_, symObjAddr: 0x10764, symBinAddr: 0x100012160, symSize: 0x34 }
  - { offsetInCU: 0x586E4, offset: 0x586E4, size: 0x8, addend: 0x0, symName: __ZNSt3__13mapINS_12basic_stringIcNS_11char_traitsIcEENS_9allocatorIcEEEEN8nlohmann16json_abi_v3_11_310basic_jsonIS0_NS_6vectorES6_bxydS4_NS8_14adl_serializerENSA_IhNS4_IhEEEEvEENS_4lessIvEENS4_INS_4pairIKS6_SE_EEEEE4findB8ue170006IA18_cEENS_9enable_ifIXsr16__is_transparentISG_T_EE5valueENS_14__map_iteratorINS_15__tree_iteratorINS_12__value_typeIS6_SE_EEPNS_11__tree_nodeIST_PvEElEEEEE4typeERKSP_, symObjAddr: 0x10798, symBinAddr: 0x100012194, symSize: 0x40 }
  - { offsetInCU: 0x58722, offset: 0x58722, size: 0x8, addend: 0x0, symName: __ZNSt3__16__treeINS_12__value_typeINS_12basic_stringIcNS_11char_traitsIcEENS_9allocatorIcEEEEN8nlohmann16json_abi_v3_11_310basic_jsonINS_3mapENS_6vectorES7_bxydS5_NS9_14adl_serializerENSC_IhNS5_IhEEEEvEEEENS_19__map_value_compareIS7_SH_NS_4lessIvEELb1EEENS5_ISH_EEE4findIA18_cEENS_15__tree_iteratorISH_PNS_11__tree_nodeISH_PvEElEERKT_, symObjAddr: 0x107D8, symBinAddr: 0x1000121D4, symSize: 0xF8 }
  - { offsetInCU: 0x58771, offset: 0x58771, size: 0x8, addend: 0x0, symName: __ZNSt3__16__treeINS_12__value_typeINS_12basic_stringIcNS_11char_traitsIcEENS_9allocatorIcEEEEN8nlohmann16json_abi_v3_11_310basic_jsonINS_3mapENS_6vectorES7_bxydS5_NS9_14adl_serializerENSC_IhNS5_IhEEEEvEEEENS_19__map_value_compareIS7_SH_NS_4lessIvEELb1EEENS5_ISH_EEE13__lower_boundIA18_cEENS_15__tree_iteratorISH_PNS_11__tree_nodeISH_PvEElEERKT_SU_PNS_15__tree_end_nodeIPNS_16__tree_node_baseISS_EEEE, symObjAddr: 0x108D0, symBinAddr: 0x1000122CC, symSize: 0xA4 }
  - { offsetInCU: 0x587CF, offset: 0x587CF, size: 0x8, addend: 0x0, symName: __ZNKSt3__119__map_value_compareINS_12basic_stringIcNS_11char_traitsIcEENS_9allocatorIcEEEENS_12__value_typeIS6_N8nlohmann16json_abi_v3_11_310basic_jsonINS_3mapENS_6vectorES6_bxydS4_NS9_14adl_serializerENSC_IhNS4_IhEEEEvEEEENS_4lessIvEELb1EEclB8ue170006IA18_cEEbRKT_RKSH_, symObjAddr: 0x10974, symBinAddr: 0x100012370, symSize: 0x50 }
  - { offsetInCU: 0x5881C, offset: 0x5881C, size: 0x8, addend: 0x0, symName: __ZNKSt3__119__map_value_compareINS_12basic_stringIcNS_11char_traitsIcEENS_9allocatorIcEEEENS_12__value_typeIS6_N8nlohmann16json_abi_v3_11_310basic_jsonINS_3mapENS_6vectorES6_bxydS4_NS9_14adl_serializerENSC_IhNS4_IhEEEEvEEEENS_4lessIvEELb1EEclB8ue170006IA18_cEEbRKSH_RKT_, symObjAddr: 0x109C4, symBinAddr: 0x1000123C0, symSize: 0x48 }
  - { offsetInCU: 0x58869, offset: 0x58869, size: 0x8, addend: 0x0, symName: __ZNKSt3__14lessIvEclB8ue170006IRKNS_12basic_stringIcNS_11char_traitsIcEENS_9allocatorIcEEEERA18_KcEEDTltclsr3stdE7forwardIT_Efp_Eclsr3stdE7forwardIT0_Efp0_EEOSE_OSF_, symObjAddr: 0x10A0C, symBinAddr: 0x100012408, symSize: 0x34 }
  - { offsetInCU: 0x588BF, offset: 0x588BF, size: 0x8, addend: 0x0, symName: __ZNKSt3__14lessIvEclB8ue170006IRA18_KcRKNS_12basic_stringIcNS_11char_traitsIcEENS_9allocatorIcEEEEEEDTltclsr3stdE7forwardIT_Efp_Eclsr3stdE7forwardIT0_Efp0_EEOSE_OSF_, symObjAddr: 0x10A40, symBinAddr: 0x10001243C, symSize: 0x34 }
  - { offsetInCU: 0x58915, offset: 0x58915, size: 0x8, addend: 0x0, symName: __ZNSt3__13mapINS_12basic_stringIcNS_11char_traitsIcEENS_9allocatorIcEEEEN8nlohmann16json_abi_v3_11_310basic_jsonIS0_NS_6vectorES6_bxydS4_NS8_14adl_serializerENSA_IhNS4_IhEEEEvEENS_4lessIvEENS4_INS_4pairIKS6_SE_EEEEE4findB8ue170006IA16_cEENS_9enable_ifIXsr16__is_transparentISG_T_EE5valueENS_14__map_iteratorINS_15__tree_iteratorINS_12__value_typeIS6_SE_EEPNS_11__tree_nodeIST_PvEElEEEEE4typeERKSP_, symObjAddr: 0x10A74, symBinAddr: 0x100012470, symSize: 0x40 }
  - { offsetInCU: 0x58953, offset: 0x58953, size: 0x8, addend: 0x0, symName: __ZNSt3__16__treeINS_12__value_typeINS_12basic_stringIcNS_11char_traitsIcEENS_9allocatorIcEEEEN8nlohmann16json_abi_v3_11_310basic_jsonINS_3mapENS_6vectorES7_bxydS5_NS9_14adl_serializerENSC_IhNS5_IhEEEEvEEEENS_19__map_value_compareIS7_SH_NS_4lessIvEELb1EEENS5_ISH_EEE4findIA16_cEENS_15__tree_iteratorISH_PNS_11__tree_nodeISH_PvEElEERKT_, symObjAddr: 0x10AB4, symBinAddr: 0x1000124B0, symSize: 0xF8 }
  - { offsetInCU: 0x589A2, offset: 0x589A2, size: 0x8, addend: 0x0, symName: __ZNSt3__16__treeINS_12__value_typeINS_12basic_stringIcNS_11char_traitsIcEENS_9allocatorIcEEEEN8nlohmann16json_abi_v3_11_310basic_jsonINS_3mapENS_6vectorES7_bxydS5_NS9_14adl_serializerENSC_IhNS5_IhEEEEvEEEENS_19__map_value_compareIS7_SH_NS_4lessIvEELb1EEENS5_ISH_EEE13__lower_boundIA16_cEENS_15__tree_iteratorISH_PNS_11__tree_nodeISH_PvEElEERKT_SU_PNS_15__tree_end_nodeIPNS_16__tree_node_baseISS_EEEE, symObjAddr: 0x10BAC, symBinAddr: 0x1000125A8, symSize: 0xA4 }
  - { offsetInCU: 0x58A00, offset: 0x58A00, size: 0x8, addend: 0x0, symName: __ZNKSt3__119__map_value_compareINS_12basic_stringIcNS_11char_traitsIcEENS_9allocatorIcEEEENS_12__value_typeIS6_N8nlohmann16json_abi_v3_11_310basic_jsonINS_3mapENS_6vectorES6_bxydS4_NS9_14adl_serializerENSC_IhNS4_IhEEEEvEEEENS_4lessIvEELb1EEclB8ue170006IA16_cEEbRKT_RKSH_, symObjAddr: 0x10C50, symBinAddr: 0x10001264C, symSize: 0x50 }
  - { offsetInCU: 0x58A4D, offset: 0x58A4D, size: 0x8, addend: 0x0, symName: __ZNKSt3__119__map_value_compareINS_12basic_stringIcNS_11char_traitsIcEENS_9allocatorIcEEEENS_12__value_typeIS6_N8nlohmann16json_abi_v3_11_310basic_jsonINS_3mapENS_6vectorES6_bxydS4_NS9_14adl_serializerENSC_IhNS4_IhEEEEvEEEENS_4lessIvEELb1EEclB8ue170006IA16_cEEbRKSH_RKT_, symObjAddr: 0x10CA0, symBinAddr: 0x10001269C, symSize: 0x48 }
  - { offsetInCU: 0x58A9A, offset: 0x58A9A, size: 0x8, addend: 0x0, symName: __ZNKSt3__14lessIvEclB8ue170006IRKNS_12basic_stringIcNS_11char_traitsIcEENS_9allocatorIcEEEERA16_KcEEDTltclsr3stdE7forwardIT_Efp_Eclsr3stdE7forwardIT0_Efp0_EEOSE_OSF_, symObjAddr: 0x10CE8, symBinAddr: 0x1000126E4, symSize: 0x34 }
  - { offsetInCU: 0x58AF0, offset: 0x58AF0, size: 0x8, addend: 0x0, symName: __ZNKSt3__14lessIvEclB8ue170006IRA16_KcRKNS_12basic_stringIcNS_11char_traitsIcEENS_9allocatorIcEEEEEEDTltclsr3stdE7forwardIT_Efp_Eclsr3stdE7forwardIT0_Efp0_EEOSE_OSF_, symObjAddr: 0x10D1C, symBinAddr: 0x100012718, symSize: 0x34 }
  - { offsetInCU: 0x58B46, offset: 0x58B46, size: 0x8, addend: 0x0, symName: __ZNSt3__13mapINS_12basic_stringIcNS_11char_traitsIcEENS_9allocatorIcEEEEN8nlohmann16json_abi_v3_11_310basic_jsonIS0_NS_6vectorES6_bxydS4_NS8_14adl_serializerENSA_IhNS4_IhEEEEvEENS_4lessIvEENS4_INS_4pairIKS6_SE_EEEEE4findB8ue170006IA23_cEENS_9enable_ifIXsr16__is_transparentISG_T_EE5valueENS_14__map_iteratorINS_15__tree_iteratorINS_12__value_typeIS6_SE_EEPNS_11__tree_nodeIST_PvEElEEEEE4typeERKSP_, symObjAddr: 0x10D50, symBinAddr: 0x10001274C, symSize: 0x40 }
  - { offsetInCU: 0x58B84, offset: 0x58B84, size: 0x8, addend: 0x0, symName: __ZNSt3__16__treeINS_12__value_typeINS_12basic_stringIcNS_11char_traitsIcEENS_9allocatorIcEEEEN8nlohmann16json_abi_v3_11_310basic_jsonINS_3mapENS_6vectorES7_bxydS5_NS9_14adl_serializerENSC_IhNS5_IhEEEEvEEEENS_19__map_value_compareIS7_SH_NS_4lessIvEELb1EEENS5_ISH_EEE4findIA23_cEENS_15__tree_iteratorISH_PNS_11__tree_nodeISH_PvEElEERKT_, symObjAddr: 0x10D90, symBinAddr: 0x10001278C, symSize: 0xF8 }
  - { offsetInCU: 0x58BD3, offset: 0x58BD3, size: 0x8, addend: 0x0, symName: __ZNSt3__16__treeINS_12__value_typeINS_12basic_stringIcNS_11char_traitsIcEENS_9allocatorIcEEEEN8nlohmann16json_abi_v3_11_310basic_jsonINS_3mapENS_6vectorES7_bxydS5_NS9_14adl_serializerENSC_IhNS5_IhEEEEvEEEENS_19__map_value_compareIS7_SH_NS_4lessIvEELb1EEENS5_ISH_EEE13__lower_boundIA23_cEENS_15__tree_iteratorISH_PNS_11__tree_nodeISH_PvEElEERKT_SU_PNS_15__tree_end_nodeIPNS_16__tree_node_baseISS_EEEE, symObjAddr: 0x10E88, symBinAddr: 0x100012884, symSize: 0xA4 }
  - { offsetInCU: 0x58C31, offset: 0x58C31, size: 0x8, addend: 0x0, symName: __ZNKSt3__119__map_value_compareINS_12basic_stringIcNS_11char_traitsIcEENS_9allocatorIcEEEENS_12__value_typeIS6_N8nlohmann16json_abi_v3_11_310basic_jsonINS_3mapENS_6vectorES6_bxydS4_NS9_14adl_serializerENSC_IhNS4_IhEEEEvEEEENS_4lessIvEELb1EEclB8ue170006IA23_cEEbRKT_RKSH_, symObjAddr: 0x10F2C, symBinAddr: 0x100012928, symSize: 0x50 }
  - { offsetInCU: 0x58C7E, offset: 0x58C7E, size: 0x8, addend: 0x0, symName: __ZNKSt3__119__map_value_compareINS_12basic_stringIcNS_11char_traitsIcEENS_9allocatorIcEEEENS_12__value_typeIS6_N8nlohmann16json_abi_v3_11_310basic_jsonINS_3mapENS_6vectorES6_bxydS4_NS9_14adl_serializerENSC_IhNS4_IhEEEEvEEEENS_4lessIvEELb1EEclB8ue170006IA23_cEEbRKSH_RKT_, symObjAddr: 0x10F7C, symBinAddr: 0x100012978, symSize: 0x48 }
  - { offsetInCU: 0x58CCB, offset: 0x58CCB, size: 0x8, addend: 0x0, symName: __ZNKSt3__14lessIvEclB8ue170006IRKNS_12basic_stringIcNS_11char_traitsIcEENS_9allocatorIcEEEERA23_KcEEDTltclsr3stdE7forwardIT_Efp_Eclsr3stdE7forwardIT0_Efp0_EEOSE_OSF_, symObjAddr: 0x10FC4, symBinAddr: 0x1000129C0, symSize: 0x34 }
  - { offsetInCU: 0x58D21, offset: 0x58D21, size: 0x8, addend: 0x0, symName: __ZNKSt3__14lessIvEclB8ue170006IRA23_KcRKNS_12basic_stringIcNS_11char_traitsIcEENS_9allocatorIcEEEEEEDTltclsr3stdE7forwardIT_Efp_Eclsr3stdE7forwardIT0_Efp0_EEOSE_OSF_, symObjAddr: 0x10FF8, symBinAddr: 0x1000129F4, symSize: 0x34 }
  - { offsetInCU: 0x58D77, offset: 0x58D77, size: 0x8, addend: 0x0, symName: __ZNSt3__13mapINS_12basic_stringIcNS_11char_traitsIcEENS_9allocatorIcEEEEN8nlohmann16json_abi_v3_11_310basic_jsonIS0_NS_6vectorES6_bxydS4_NS8_14adl_serializerENSA_IhNS4_IhEEEEvEENS_4lessIvEENS4_INS_4pairIKS6_SE_EEEEE4findB8ue170006IA10_cEENS_9enable_ifIXsr16__is_transparentISG_T_EE5valueENS_14__map_iteratorINS_15__tree_iteratorINS_12__value_typeIS6_SE_EEPNS_11__tree_nodeIST_PvEElEEEEE4typeERKSP_, symObjAddr: 0x1102C, symBinAddr: 0x100012A28, symSize: 0x40 }
  - { offsetInCU: 0x58DB5, offset: 0x58DB5, size: 0x8, addend: 0x0, symName: __ZNSt3__16__treeINS_12__value_typeINS_12basic_stringIcNS_11char_traitsIcEENS_9allocatorIcEEEEN8nlohmann16json_abi_v3_11_310basic_jsonINS_3mapENS_6vectorES7_bxydS5_NS9_14adl_serializerENSC_IhNS5_IhEEEEvEEEENS_19__map_value_compareIS7_SH_NS_4lessIvEELb1EEENS5_ISH_EEE4findIA10_cEENS_15__tree_iteratorISH_PNS_11__tree_nodeISH_PvEElEERKT_, symObjAddr: 0x1106C, symBinAddr: 0x100012A68, symSize: 0xF8 }
  - { offsetInCU: 0x58E04, offset: 0x58E04, size: 0x8, addend: 0x0, symName: __ZNSt3__16__treeINS_12__value_typeINS_12basic_stringIcNS_11char_traitsIcEENS_9allocatorIcEEEEN8nlohmann16json_abi_v3_11_310basic_jsonINS_3mapENS_6vectorES7_bxydS5_NS9_14adl_serializerENSC_IhNS5_IhEEEEvEEEENS_19__map_value_compareIS7_SH_NS_4lessIvEELb1EEENS5_ISH_EEE13__lower_boundIA10_cEENS_15__tree_iteratorISH_PNS_11__tree_nodeISH_PvEElEERKT_SU_PNS_15__tree_end_nodeIPNS_16__tree_node_baseISS_EEEE, symObjAddr: 0x11164, symBinAddr: 0x100012B60, symSize: 0xA4 }
  - { offsetInCU: 0x58E62, offset: 0x58E62, size: 0x8, addend: 0x0, symName: __ZNKSt3__119__map_value_compareINS_12basic_stringIcNS_11char_traitsIcEENS_9allocatorIcEEEENS_12__value_typeIS6_N8nlohmann16json_abi_v3_11_310basic_jsonINS_3mapENS_6vectorES6_bxydS4_NS9_14adl_serializerENSC_IhNS4_IhEEEEvEEEENS_4lessIvEELb1EEclB8ue170006IA10_cEEbRKT_RKSH_, symObjAddr: 0x11208, symBinAddr: 0x100012C04, symSize: 0x50 }
  - { offsetInCU: 0x58EAF, offset: 0x58EAF, size: 0x8, addend: 0x0, symName: __ZNKSt3__119__map_value_compareINS_12basic_stringIcNS_11char_traitsIcEENS_9allocatorIcEEEENS_12__value_typeIS6_N8nlohmann16json_abi_v3_11_310basic_jsonINS_3mapENS_6vectorES6_bxydS4_NS9_14adl_serializerENSC_IhNS4_IhEEEEvEEEENS_4lessIvEELb1EEclB8ue170006IA10_cEEbRKSH_RKT_, symObjAddr: 0x11258, symBinAddr: 0x100012C54, symSize: 0x48 }
  - { offsetInCU: 0x58EFC, offset: 0x58EFC, size: 0x8, addend: 0x0, symName: __ZNKSt3__14lessIvEclB8ue170006IRKNS_12basic_stringIcNS_11char_traitsIcEENS_9allocatorIcEEEERA10_KcEEDTltclsr3stdE7forwardIT_Efp_Eclsr3stdE7forwardIT0_Efp0_EEOSE_OSF_, symObjAddr: 0x112A0, symBinAddr: 0x100012C9C, symSize: 0x34 }
  - { offsetInCU: 0x58F52, offset: 0x58F52, size: 0x8, addend: 0x0, symName: __ZNKSt3__14lessIvEclB8ue170006IRA10_KcRKNS_12basic_stringIcNS_11char_traitsIcEENS_9allocatorIcEEEEEEDTltclsr3stdE7forwardIT_Efp_Eclsr3stdE7forwardIT0_Efp0_EEOSE_OSF_, symObjAddr: 0x112D4, symBinAddr: 0x100012CD0, symSize: 0x34 }
  - { offsetInCU: 0x58FA8, offset: 0x58FA8, size: 0x8, addend: 0x0, symName: __ZNSt3__111char_traitsIcE4findB8ue170006EPKcmRS2_, symObjAddr: 0x11540, symBinAddr: 0x100012F3C, symSize: 0x70 }
  - { offsetInCU: 0x58FE7, offset: 0x58FE7, size: 0x8, addend: 0x0, symName: __ZNSt3__111char_traitsIcE7compareB8ue170006EPKcS3_m, symObjAddr: 0x115B0, symBinAddr: 0x100012FAC, symSize: 0x34 }
  - { offsetInCU: 0x59026, offset: 0x59026, size: 0x8, addend: 0x0, symName: __ZNSt3__19allocatorIcEC1B8ue170006Ev, symObjAddr: 0x11624, symBinAddr: 0x100013020, symSize: 0x2C }
  - { offsetInCU: 0x59050, offset: 0x59050, size: 0x8, addend: 0x0, symName: __ZNSt3__16vectorINS_12basic_stringIcNS_11char_traitsIcEENS_9allocatorIcEEEENS4_IS6_EEE22__construct_one_at_endB8ue170006IJS6_EEEvDpOT_, symObjAddr: 0x11650, symBinAddr: 0x10001304C, symSize: 0x90 }
  - { offsetInCU: 0x5909F, offset: 0x5909F, size: 0x8, addend: 0x0, symName: __ZNSt3__16vectorINS_12basic_stringIcNS_11char_traitsIcEENS_9allocatorIcEEEENS4_IS6_EEE21__push_back_slow_pathIS6_EEvOT_, symObjAddr: 0x116E0, symBinAddr: 0x1000130DC, symSize: 0xD8 }
  - { offsetInCU: 0x590FD, offset: 0x590FD, size: 0x8, addend: 0x0, symName: __ZN8nlohmann16json_abi_v3_11_36detail8json_refINS0_10basic_jsonINSt3__13mapENS4_6vectorENS4_12basic_stringIcNS4_11char_traitsIcEENS4_9allocatorIcEEEEbxydSA_NS0_14adl_serializerENS6_IhNSA_IhEEEEvEEEC2IJRA17_KcELi0EEEDpOT_, symObjAddr: 0x117B8, symBinAddr: 0x1000131B4, symSize: 0x38 }
  - { offsetInCU: 0x59147, offset: 0x59147, size: 0x8, addend: 0x0, symName: __ZN8nlohmann16json_abi_v3_11_310basic_jsonINSt3__13mapENS2_6vectorENS2_12basic_stringIcNS2_11char_traitsIcEENS2_9allocatorIcEEEEbxydS8_NS0_14adl_serializerENS4_IhNS8_IhEEEEvEC1IRA17_KcA17_cLi0EEEOT_, symObjAddr: 0x117F0, symBinAddr: 0x1000131EC, symSize: 0x34 }
  - { offsetInCU: 0x59198, offset: 0x59198, size: 0x8, addend: 0x0, symName: __ZN8nlohmann16json_abi_v3_11_310basic_jsonINSt3__13mapENS2_6vectorENS2_12basic_stringIcNS2_11char_traitsIcEENS2_9allocatorIcEEEEbxydS8_NS0_14adl_serializerENS4_IhNS8_IhEEEEvEC2IRA17_KcA17_cLi0EEEOT_, symObjAddr: 0x11824, symBinAddr: 0x100013220, symSize: 0x84 }
  - { offsetInCU: 0x591E9, offset: 0x591E9, size: 0x8, addend: 0x0, symName: __ZN8nlohmann16json_abi_v3_11_310basic_jsonINSt3__13mapENS2_6vectorENS2_12basic_stringIcNS2_11char_traitsIcEENS2_9allocatorIcEEEEbxydS8_NS0_14adl_serializerENS4_IhNS8_IhEEEEvE4dataC1Ev, symObjAddr: 0x118A8, symBinAddr: 0x1000132A4, symSize: 0x2C }
  - { offsetInCU: 0x59213, offset: 0x59213, size: 0x8, addend: 0x0, symName: __ZN8nlohmann16json_abi_v3_11_314adl_serializerIA17_cvE7to_jsonINS0_10basic_jsonINSt3__13mapENS6_6vectorENS6_12basic_stringIcNS6_11char_traitsIcEENS6_9allocatorIcEEEEbxydSC_S1_NS8_IhNSC_IhEEEEvEERA17_KcEEDTcmclL_ZNS0_7to_jsonEEfp_clsr3stdE7forwardIT0_Efp0_EEcvv_EERT_OSL_, symObjAddr: 0x118D4, symBinAddr: 0x1000132D0, symSize: 0x34 }
  - { offsetInCU: 0x59258, offset: 0x59258, size: 0x8, addend: 0x0, symName: __ZN8nlohmann16json_abi_v3_11_310basic_jsonINSt3__13mapENS2_6vectorENS2_12basic_stringIcNS2_11char_traitsIcEENS2_9allocatorIcEEEEbxydS8_NS0_14adl_serializerENS4_IhNS8_IhEEEEvE4dataC2Ev, symObjAddr: 0x11908, symBinAddr: 0x100013304, symSize: 0x1C }
  - { offsetInCU: 0x59288, offset: 0x59288, size: 0x8, addend: 0x0, symName: __ZNK8nlohmann16json_abi_v3_11_36detail10to_json_fnclINS0_10basic_jsonINSt3__13mapENS5_6vectorENS5_12basic_stringIcNS5_11char_traitsIcEENS5_9allocatorIcEEEEbxydSB_NS0_14adl_serializerENS7_IhNSB_IhEEEEvEERA17_KcEEDTcmcl7to_jsonfp_clsr3stdE7forwardIT0_Efp0_EEcvv_EERT_OSL_, symObjAddr: 0x11924, symBinAddr: 0x100013320, symSize: 0x30 }
  - { offsetInCU: 0x592DE, offset: 0x592DE, size: 0x8, addend: 0x0, symName: __ZN8nlohmann16json_abi_v3_11_36detail20external_constructorILNS1_7value_tE3EE9constructINS0_10basic_jsonINSt3__13mapENS7_6vectorENS7_12basic_stringIcNS7_11char_traitsIcEENS7_9allocatorIcEEEEbxydSD_NS0_14adl_serializerENS9_IhNSD_IhEEEEvEEA17_cLi0EEEvRT_RKT0_, symObjAddr: 0x11980, symBinAddr: 0x10001337C, symSize: 0x60 }
  - { offsetInCU: 0x59329, offset: 0x59329, size: 0x8, addend: 0x0, symName: __ZN8nlohmann16json_abi_v3_11_310basic_jsonINSt3__13mapENS2_6vectorENS2_12basic_stringIcNS2_11char_traitsIcEENS2_9allocatorIcEEEEbxydS8_NS0_14adl_serializerENS4_IhNS8_IhEEEEvE6createISA_JRA17_KcEEEPT_DpOT0_, symObjAddr: 0x119E0, symBinAddr: 0x1000133DC, symSize: 0xF4 }
  - { offsetInCU: 0x593B7, offset: 0x593B7, size: 0x8, addend: 0x0, symName: __ZNSt3__116allocator_traitsINS_9allocatorINS_12basic_stringIcNS_11char_traitsIcEENS1_IcEEEEEEE8allocateB8ue170006ERS7_m, symObjAddr: 0x11AD4, symBinAddr: 0x1000134D0, symSize: 0x2C }
  - { offsetInCU: 0x5945D, offset: 0x5945D, size: 0x8, addend: 0x0, symName: __ZNSt3__110unique_ptrINS_12basic_stringIcNS_11char_traitsIcEENS_9allocatorIcEEEEZN8nlohmann16json_abi_v3_11_310basic_jsonINS_3mapENS_6vectorES6_bxydS4_NS8_14adl_serializerENSB_IhNS4_IhEEEEvE6createIS6_JRA17_KcEEEPT_DpOT0_EUlPS6_E_EC1B8ue170006ILb1EvEESP_NS_16__dependent_typeINS_27__unique_ptr_deleter_sfinaeISQ_EEXT_EE15__lval_ref_typeE, symObjAddr: 0x11B00, symBinAddr: 0x1000134FC, symSize: 0x3C }
  - { offsetInCU: 0x594AE, offset: 0x594AE, size: 0x8, addend: 0x0, symName: __ZNSt3__116allocator_traitsINS_9allocatorINS_12basic_stringIcNS_11char_traitsIcEENS1_IcEEEEEEE9constructB8ue170006IS6_JRA17_KcEvEEvRS7_PT_DpOT0_, symObjAddr: 0x11B3C, symBinAddr: 0x100013538, symSize: 0x34 }
  - { offsetInCU: 0x59505, offset: 0x59505, size: 0x8, addend: 0x0, symName: __ZNKSt3__110unique_ptrINS_12basic_stringIcNS_11char_traitsIcEENS_9allocatorIcEEEEZN8nlohmann16json_abi_v3_11_310basic_jsonINS_3mapENS_6vectorES6_bxydS4_NS8_14adl_serializerENSB_IhNS4_IhEEEEvE6createIS6_JRA17_KcEEEPT_DpOT0_EUlPS6_E_E3getB8ue170006Ev, symObjAddr: 0x11B70, symBinAddr: 0x10001356C, symSize: 0x28 }
  - { offsetInCU: 0x5952B, offset: 0x5952B, size: 0x8, addend: 0x0, symName: __ZNSt3__110unique_ptrINS_12basic_stringIcNS_11char_traitsIcEENS_9allocatorIcEEEEZN8nlohmann16json_abi_v3_11_310basic_jsonINS_3mapENS_6vectorES6_bxydS4_NS8_14adl_serializerENSB_IhNS4_IhEEEEvE6createIS6_JRA17_KcEEEPT_DpOT0_EUlPS6_E_E7releaseB8ue170006Ev, symObjAddr: 0x11BC4, symBinAddr: 0x1000135C0, symSize: 0x44 }
  - { offsetInCU: 0x59560, offset: 0x59560, size: 0x8, addend: 0x0, symName: __ZNSt3__110unique_ptrINS_12basic_stringIcNS_11char_traitsIcEENS_9allocatorIcEEEEZN8nlohmann16json_abi_v3_11_310basic_jsonINS_3mapENS_6vectorES6_bxydS4_NS8_14adl_serializerENSB_IhNS4_IhEEEEvE6createIS6_JRA17_KcEEEPT_DpOT0_EUlPS6_E_ED1B8ue170006Ev, symObjAddr: 0x11C08, symBinAddr: 0x100013604, symSize: 0x2C }
  - { offsetInCU: 0x5958A, offset: 0x5958A, size: 0x8, addend: 0x0, symName: __ZNSt3__110unique_ptrINS_12basic_stringIcNS_11char_traitsIcEENS_9allocatorIcEEEEZN8nlohmann16json_abi_v3_11_310basic_jsonINS_3mapENS_6vectorES6_bxydS4_NS8_14adl_serializerENSB_IhNS4_IhEEEEvE6createIS6_JRA17_KcEEEPT_DpOT0_EUlPS6_E_EC2B8ue170006ILb1EvEESP_NS_16__dependent_typeINS_27__unique_ptr_deleter_sfinaeISQ_EEXT_EE15__lval_ref_typeE, symObjAddr: 0x11C34, symBinAddr: 0x100013630, symSize: 0x48 }
  - { offsetInCU: 0x595DB, offset: 0x595DB, size: 0x8, addend: 0x0, symName: __ZNSt3__117__compressed_pairIPNS_12basic_stringIcNS_11char_traitsIcEENS_9allocatorIcEEEEZN8nlohmann16json_abi_v3_11_310basic_jsonINS_3mapENS_6vectorES6_bxydS4_NS9_14adl_serializerENSC_IhNS4_IhEEEEvE6createIS6_JRA17_KcEEEPT_DpOT0_EUlS7_E_EC1B8ue170006IRS7_RKSQ_EEOSL_OT0_, symObjAddr: 0x11C7C, symBinAddr: 0x100013678, symSize: 0x3C }
  - { offsetInCU: 0x59633, offset: 0x59633, size: 0x8, addend: 0x0, symName: __ZNSt3__117__compressed_pairIPNS_12basic_stringIcNS_11char_traitsIcEENS_9allocatorIcEEEEZN8nlohmann16json_abi_v3_11_310basic_jsonINS_3mapENS_6vectorES6_bxydS4_NS9_14adl_serializerENSC_IhNS4_IhEEEEvE6createIS6_JRA17_KcEEEPT_DpOT0_EUlS7_E_EC2B8ue170006IRS7_RKSQ_EEOSL_OT0_, symObjAddr: 0x11CB8, symBinAddr: 0x1000136B4, symSize: 0x48 }
  - { offsetInCU: 0x5968B, offset: 0x5968B, size: 0x8, addend: 0x0, symName: __ZNSt3__122__compressed_pair_elemIPNS_12basic_stringIcNS_11char_traitsIcEENS_9allocatorIcEEEELi0ELb0EEC2B8ue170006IRS7_vEEOT_, symObjAddr: 0x11D00, symBinAddr: 0x1000136FC, symSize: 0x24 }
  - { offsetInCU: 0x596CD, offset: 0x596CD, size: 0x8, addend: 0x0, symName: __ZNSt3__122__compressed_pair_elemIZN8nlohmann16json_abi_v3_11_310basic_jsonINS_3mapENS_6vectorENS_12basic_stringIcNS_11char_traitsIcEENS_9allocatorIcEEEEbxydS9_NS2_14adl_serializerENS5_IhNS9_IhEEEEvE6createISB_JRA17_KcEEEPT_DpOT0_EUlPSB_E_Li1ELb0EEC2B8ue170006IRKSQ_vEEOSK_, symObjAddr: 0x11D24, symBinAddr: 0x100013720, symSize: 0x24 }
  - { offsetInCU: 0x5970F, offset: 0x5970F, size: 0x8, addend: 0x0, symName: __ZNSt3__19allocatorINS_12basic_stringIcNS_11char_traitsIcEENS0_IcEEEEE9constructB8ue170006IS5_JRA17_KcEEEvPT_DpOT0_, symObjAddr: 0x11D48, symBinAddr: 0x100013744, symSize: 0x30 }
  - { offsetInCU: 0x59765, offset: 0x59765, size: 0x8, addend: 0x0, symName: __ZNKSt3__117__compressed_pairIPNS_12basic_stringIcNS_11char_traitsIcEENS_9allocatorIcEEEEZN8nlohmann16json_abi_v3_11_310basic_jsonINS_3mapENS_6vectorES6_bxydS4_NS9_14adl_serializerENSC_IhNS4_IhEEEEvE6createIS6_JRA17_KcEEEPT_DpOT0_EUlS7_E_E5firstB8ue170006Ev, symObjAddr: 0x11D78, symBinAddr: 0x100013774, symSize: 0x24 }
  - { offsetInCU: 0x5978B, offset: 0x5978B, size: 0x8, addend: 0x0, symName: __ZNKSt3__110unique_ptrINS_12basic_stringIcNS_11char_traitsIcEENS_9allocatorIcEEEEZN8nlohmann16json_abi_v3_11_310basic_jsonINS_3mapENS_6vectorES6_bxydS4_NS8_14adl_serializerENSB_IhNS4_IhEEEEvE6createIS6_JRA17_KcEEEPT_DpOT0_EUlPS6_E_EcvbB8ue170006Ev, symObjAddr: 0x11D9C, symBinAddr: 0x100013798, symSize: 0x34 }
  - { offsetInCU: 0x597B1, offset: 0x597B1, size: 0x8, addend: 0x0, symName: __ZNSt3__117__compressed_pairIPNS_12basic_stringIcNS_11char_traitsIcEENS_9allocatorIcEEEEZN8nlohmann16json_abi_v3_11_310basic_jsonINS_3mapENS_6vectorES6_bxydS4_NS9_14adl_serializerENSC_IhNS4_IhEEEEvE6createIS6_JRA17_KcEEEPT_DpOT0_EUlS7_E_E5firstB8ue170006Ev, symObjAddr: 0x11DD0, symBinAddr: 0x1000137CC, symSize: 0x24 }
  - { offsetInCU: 0x597D7, offset: 0x597D7, size: 0x8, addend: 0x0, symName: __ZNSt3__110unique_ptrINS_12basic_stringIcNS_11char_traitsIcEENS_9allocatorIcEEEEZN8nlohmann16json_abi_v3_11_310basic_jsonINS_3mapENS_6vectorES6_bxydS4_NS8_14adl_serializerENSB_IhNS4_IhEEEEvE6createIS6_JRA17_KcEEEPT_DpOT0_EUlPS6_E_ED2B8ue170006Ev, symObjAddr: 0x11DF4, symBinAddr: 0x1000137F0, symSize: 0x30 }
  - { offsetInCU: 0x59801, offset: 0x59801, size: 0x8, addend: 0x0, symName: __ZNSt3__110unique_ptrINS_12basic_stringIcNS_11char_traitsIcEENS_9allocatorIcEEEEZN8nlohmann16json_abi_v3_11_310basic_jsonINS_3mapENS_6vectorES6_bxydS4_NS8_14adl_serializerENSB_IhNS4_IhEEEEvE6createIS6_JRA17_KcEEEPT_DpOT0_EUlPS6_E_E5resetB8ue170006ESP_, symObjAddr: 0x11E24, symBinAddr: 0x100013820, symSize: 0x80 }
  - { offsetInCU: 0x59845, offset: 0x59845, size: 0x8, addend: 0x0, symName: __ZNSt3__117__compressed_pairIPNS_12basic_stringIcNS_11char_traitsIcEENS_9allocatorIcEEEEZN8nlohmann16json_abi_v3_11_310basic_jsonINS_3mapENS_6vectorES6_bxydS4_NS9_14adl_serializerENSC_IhNS4_IhEEEEvE6createIS6_JRA17_KcEEEPT_DpOT0_EUlS7_E_E6secondB8ue170006Ev, symObjAddr: 0x11EA4, symBinAddr: 0x1000138A0, symSize: 0x28 }
  - { offsetInCU: 0x59871, offset: 0x59871, size: 0x8, addend: 0x0, symName: __ZZN8nlohmann16json_abi_v3_11_310basic_jsonINSt3__13mapENS2_6vectorENS2_12basic_stringIcNS2_11char_traitsIcEENS2_9allocatorIcEEEEbxydS8_NS0_14adl_serializerENS4_IhNS8_IhEEEEvE6createISA_JRA17_KcEEEPT_DpOT0_ENKUlPSA_E_clESO_, symObjAddr: 0x11ECC, symBinAddr: 0x1000138C8, symSize: 0x34 }
  - { offsetInCU: 0x598AA, offset: 0x598AA, size: 0x8, addend: 0x0, symName: __ZNSt3__122__compressed_pair_elemIZN8nlohmann16json_abi_v3_11_310basic_jsonINS_3mapENS_6vectorENS_12basic_stringIcNS_11char_traitsIcEENS_9allocatorIcEEEEbxydS9_NS2_14adl_serializerENS5_IhNS9_IhEEEEvE6createISB_JRA17_KcEEEPT_DpOT0_EUlPSB_E_Li1ELb0EE5__getB8ue170006Ev, symObjAddr: 0x11F00, symBinAddr: 0x1000138FC, symSize: 0x14 }
  - { offsetInCU: 0x598D0, offset: 0x598D0, size: 0x8, addend: 0x0, symName: __ZN8nlohmann16json_abi_v3_11_36detail8json_refINS0_10basic_jsonINSt3__13mapENS4_6vectorENS4_12basic_stringIcNS4_11char_traitsIcEENS4_9allocatorIcEEEEbxydSA_NS0_14adl_serializerENS6_IhNSA_IhEEEEvEEEC2IJRKSC_ELi0EEEDpOT_, symObjAddr: 0x11F14, symBinAddr: 0x100013910, symSize: 0x38 }
  - { offsetInCU: 0x5991A, offset: 0x5991A, size: 0x8, addend: 0x0, symName: __ZN8nlohmann16json_abi_v3_11_310basic_jsonINSt3__13mapENS2_6vectorENS2_12basic_stringIcNS2_11char_traitsIcEENS2_9allocatorIcEEEEbxydS8_NS0_14adl_serializerENS4_IhNS8_IhEEEEvEC1IRKSA_SA_Li0EEEOT_, symObjAddr: 0x11F4C, symBinAddr: 0x100013948, symSize: 0x34 }
  - { offsetInCU: 0x5996B, offset: 0x5996B, size: 0x8, addend: 0x0, symName: __ZN8nlohmann16json_abi_v3_11_310basic_jsonINSt3__13mapENS2_6vectorENS2_12basic_stringIcNS2_11char_traitsIcEENS2_9allocatorIcEEEEbxydS8_NS0_14adl_serializerENS4_IhNS8_IhEEEEvEC2IRKSA_SA_Li0EEEOT_, symObjAddr: 0x11F80, symBinAddr: 0x10001397C, symSize: 0x84 }
  - { offsetInCU: 0x599BC, offset: 0x599BC, size: 0x8, addend: 0x0, symName: __ZN8nlohmann16json_abi_v3_11_314adl_serializerINSt3__112basic_stringIcNS2_11char_traitsIcEENS2_9allocatorIcEEEEvE7to_jsonINS0_10basic_jsonINS2_3mapENS2_6vectorES8_bxydS6_S1_NSD_IhNS6_IhEEEEvEERKS8_EEDTcmclL_ZNS0_7to_jsonEEfp_clsr3stdE7forwardIT0_Efp0_EEcvv_EERT_OSJ_, symObjAddr: 0x12004, symBinAddr: 0x100013A00, symSize: 0x34 }
  - { offsetInCU: 0x59A01, offset: 0x59A01, size: 0x8, addend: 0x0, symName: __ZNK8nlohmann16json_abi_v3_11_36detail10to_json_fnclINS0_10basic_jsonINSt3__13mapENS5_6vectorENS5_12basic_stringIcNS5_11char_traitsIcEENS5_9allocatorIcEEEEbxydSB_NS0_14adl_serializerENS7_IhNSB_IhEEEEvEERKSD_EEDTcmcl7to_jsonfp_clsr3stdE7forwardIT0_Efp0_EEcvv_EERT_OSK_, symObjAddr: 0x12038, symBinAddr: 0x100013A34, symSize: 0x30 }
  - { offsetInCU: 0x59A57, offset: 0x59A57, size: 0x8, addend: 0x0, symName: __ZN8nlohmann16json_abi_v3_11_36detail20external_constructorILNS1_7value_tE3EE9constructINS0_10basic_jsonINSt3__13mapENS7_6vectorENS7_12basic_stringIcNS7_11char_traitsIcEENS7_9allocatorIcEEEEbxydSD_NS0_14adl_serializerENS9_IhNSD_IhEEEEvEEEEvRT_RKNSK_8string_tE, symObjAddr: 0x12094, symBinAddr: 0x100013A90, symSize: 0x68 }
  - { offsetInCU: 0x59A93, offset: 0x59A93, size: 0x8, addend: 0x0, symName: __ZN8nlohmann16json_abi_v3_11_310basic_jsonINSt3__13mapENS2_6vectorENS2_12basic_stringIcNS2_11char_traitsIcEENS2_9allocatorIcEEEEbxydS8_NS0_14adl_serializerENS4_IhNS8_IhEEEEvE10json_valueC1ERKSA_, symObjAddr: 0x120FC, symBinAddr: 0x100013AF8, symSize: 0x34 }
  - { offsetInCU: 0x59ACC, offset: 0x59ACC, size: 0x8, addend: 0x0, symName: __ZN8nlohmann16json_abi_v3_11_310basic_jsonINSt3__13mapENS2_6vectorENS2_12basic_stringIcNS2_11char_traitsIcEENS2_9allocatorIcEEEEbxydS8_NS0_14adl_serializerENS4_IhNS8_IhEEEEvE10json_valueC2ERKSA_, symObjAddr: 0x12130, symBinAddr: 0x100013B2C, symSize: 0x3C }
  - { offsetInCU: 0x59B05, offset: 0x59B05, size: 0x8, addend: 0x0, symName: __ZN8nlohmann16json_abi_v3_11_310basic_jsonINSt3__13mapENS2_6vectorENS2_12basic_stringIcNS2_11char_traitsIcEENS2_9allocatorIcEEEEbxydS8_NS0_14adl_serializerENS4_IhNS8_IhEEEEvE6createISA_JRKSA_EEEPT_DpOT0_, symObjAddr: 0x1216C, symBinAddr: 0x100013B68, symSize: 0xF4 }
  - { offsetInCU: 0x59C06, offset: 0x59C06, size: 0x8, addend: 0x0, symName: __ZNSt3__110unique_ptrINS_12basic_stringIcNS_11char_traitsIcEENS_9allocatorIcEEEEZN8nlohmann16json_abi_v3_11_310basic_jsonINS_3mapENS_6vectorES6_bxydS4_NS8_14adl_serializerENSB_IhNS4_IhEEEEvE6createIS6_JRKS6_EEEPT_DpOT0_EUlPS6_E_EC1B8ue170006ILb1EvEESO_NS_16__dependent_typeINS_27__unique_ptr_deleter_sfinaeISP_EEXT_EE15__lval_ref_typeE, symObjAddr: 0x12260, symBinAddr: 0x100013C5C, symSize: 0x3C }
  - { offsetInCU: 0x59C57, offset: 0x59C57, size: 0x8, addend: 0x0, symName: __ZNKSt3__110unique_ptrINS_12basic_stringIcNS_11char_traitsIcEENS_9allocatorIcEEEEZN8nlohmann16json_abi_v3_11_310basic_jsonINS_3mapENS_6vectorES6_bxydS4_NS8_14adl_serializerENSB_IhNS4_IhEEEEvE6createIS6_JRKS6_EEEPT_DpOT0_EUlPS6_E_E3getB8ue170006Ev, symObjAddr: 0x1229C, symBinAddr: 0x100013C98, symSize: 0x28 }
  - { offsetInCU: 0x59C7D, offset: 0x59C7D, size: 0x8, addend: 0x0, symName: __ZNSt3__110unique_ptrINS_12basic_stringIcNS_11char_traitsIcEENS_9allocatorIcEEEEZN8nlohmann16json_abi_v3_11_310basic_jsonINS_3mapENS_6vectorES6_bxydS4_NS8_14adl_serializerENSB_IhNS4_IhEEEEvE6createIS6_JRKS6_EEEPT_DpOT0_EUlPS6_E_E7releaseB8ue170006Ev, symObjAddr: 0x122F0, symBinAddr: 0x100013CEC, symSize: 0x44 }
  - { offsetInCU: 0x59CB2, offset: 0x59CB2, size: 0x8, addend: 0x0, symName: __ZNSt3__110unique_ptrINS_12basic_stringIcNS_11char_traitsIcEENS_9allocatorIcEEEEZN8nlohmann16json_abi_v3_11_310basic_jsonINS_3mapENS_6vectorES6_bxydS4_NS8_14adl_serializerENSB_IhNS4_IhEEEEvE6createIS6_JRKS6_EEEPT_DpOT0_EUlPS6_E_ED1B8ue170006Ev, symObjAddr: 0x12334, symBinAddr: 0x100013D30, symSize: 0x2C }
  - { offsetInCU: 0x59CDC, offset: 0x59CDC, size: 0x8, addend: 0x0, symName: __ZNSt3__110unique_ptrINS_12basic_stringIcNS_11char_traitsIcEENS_9allocatorIcEEEEZN8nlohmann16json_abi_v3_11_310basic_jsonINS_3mapENS_6vectorES6_bxydS4_NS8_14adl_serializerENSB_IhNS4_IhEEEEvE6createIS6_JRKS6_EEEPT_DpOT0_EUlPS6_E_EC2B8ue170006ILb1EvEESO_NS_16__dependent_typeINS_27__unique_ptr_deleter_sfinaeISP_EEXT_EE15__lval_ref_typeE, symObjAddr: 0x12360, symBinAddr: 0x100013D5C, symSize: 0x48 }
  - { offsetInCU: 0x59D2D, offset: 0x59D2D, size: 0x8, addend: 0x0, symName: __ZNSt3__117__compressed_pairIPNS_12basic_stringIcNS_11char_traitsIcEENS_9allocatorIcEEEEZN8nlohmann16json_abi_v3_11_310basic_jsonINS_3mapENS_6vectorES6_bxydS4_NS9_14adl_serializerENSC_IhNS4_IhEEEEvE6createIS6_JRKS6_EEEPT_DpOT0_EUlS7_E_EC1B8ue170006IRS7_RKSP_EEOSK_OT0_, symObjAddr: 0x123A8, symBinAddr: 0x100013DA4, symSize: 0x3C }
  - { offsetInCU: 0x59D85, offset: 0x59D85, size: 0x8, addend: 0x0, symName: __ZNSt3__117__compressed_pairIPNS_12basic_stringIcNS_11char_traitsIcEENS_9allocatorIcEEEEZN8nlohmann16json_abi_v3_11_310basic_jsonINS_3mapENS_6vectorES6_bxydS4_NS9_14adl_serializerENSC_IhNS4_IhEEEEvE6createIS6_JRKS6_EEEPT_DpOT0_EUlS7_E_EC2B8ue170006IRS7_RKSP_EEOSK_OT0_, symObjAddr: 0x123E4, symBinAddr: 0x100013DE0, symSize: 0x48 }
  - { offsetInCU: 0x59DDD, offset: 0x59DDD, size: 0x8, addend: 0x0, symName: __ZNSt3__122__compressed_pair_elemIZN8nlohmann16json_abi_v3_11_310basic_jsonINS_3mapENS_6vectorENS_12basic_stringIcNS_11char_traitsIcEENS_9allocatorIcEEEEbxydS9_NS2_14adl_serializerENS5_IhNS9_IhEEEEvE6createISB_JRKSB_EEEPT_DpOT0_EUlPSB_E_Li1ELb0EEC2B8ue170006IRKSP_vEEOSJ_, symObjAddr: 0x1242C, symBinAddr: 0x100013E28, symSize: 0x24 }
  - { offsetInCU: 0x59E1F, offset: 0x59E1F, size: 0x8, addend: 0x0, symName: __ZNKSt3__117__compressed_pairIPNS_12basic_stringIcNS_11char_traitsIcEENS_9allocatorIcEEEEZN8nlohmann16json_abi_v3_11_310basic_jsonINS_3mapENS_6vectorES6_bxydS4_NS9_14adl_serializerENSC_IhNS4_IhEEEEvE6createIS6_JRKS6_EEEPT_DpOT0_EUlS7_E_E5firstB8ue170006Ev, symObjAddr: 0x12450, symBinAddr: 0x100013E4C, symSize: 0x24 }
  - { offsetInCU: 0x59E45, offset: 0x59E45, size: 0x8, addend: 0x0, symName: __ZNKSt3__110unique_ptrINS_12basic_stringIcNS_11char_traitsIcEENS_9allocatorIcEEEEZN8nlohmann16json_abi_v3_11_310basic_jsonINS_3mapENS_6vectorES6_bxydS4_NS8_14adl_serializerENSB_IhNS4_IhEEEEvE6createIS6_JRKS6_EEEPT_DpOT0_EUlPS6_E_EcvbB8ue170006Ev, symObjAddr: 0x12474, symBinAddr: 0x100013E70, symSize: 0x34 }
  - { offsetInCU: 0x59E6B, offset: 0x59E6B, size: 0x8, addend: 0x0, symName: __ZNSt3__117__compressed_pairIPNS_12basic_stringIcNS_11char_traitsIcEENS_9allocatorIcEEEEZN8nlohmann16json_abi_v3_11_310basic_jsonINS_3mapENS_6vectorES6_bxydS4_NS9_14adl_serializerENSC_IhNS4_IhEEEEvE6createIS6_JRKS6_EEEPT_DpOT0_EUlS7_E_E5firstB8ue170006Ev, symObjAddr: 0x124A8, symBinAddr: 0x100013EA4, symSize: 0x24 }
  - { offsetInCU: 0x59E91, offset: 0x59E91, size: 0x8, addend: 0x0, symName: __ZNSt3__110unique_ptrINS_12basic_stringIcNS_11char_traitsIcEENS_9allocatorIcEEEEZN8nlohmann16json_abi_v3_11_310basic_jsonINS_3mapENS_6vectorES6_bxydS4_NS8_14adl_serializerENSB_IhNS4_IhEEEEvE6createIS6_JRKS6_EEEPT_DpOT0_EUlPS6_E_ED2B8ue170006Ev, symObjAddr: 0x124CC, symBinAddr: 0x100013EC8, symSize: 0x30 }
  - { offsetInCU: 0x59EBB, offset: 0x59EBB, size: 0x8, addend: 0x0, symName: __ZNSt3__110unique_ptrINS_12basic_stringIcNS_11char_traitsIcEENS_9allocatorIcEEEEZN8nlohmann16json_abi_v3_11_310basic_jsonINS_3mapENS_6vectorES6_bxydS4_NS8_14adl_serializerENSB_IhNS4_IhEEEEvE6createIS6_JRKS6_EEEPT_DpOT0_EUlPS6_E_E5resetB8ue170006ESO_, symObjAddr: 0x124FC, symBinAddr: 0x100013EF8, symSize: 0x80 }
  - { offsetInCU: 0x59EFF, offset: 0x59EFF, size: 0x8, addend: 0x0, symName: __ZNSt3__117__compressed_pairIPNS_12basic_stringIcNS_11char_traitsIcEENS_9allocatorIcEEEEZN8nlohmann16json_abi_v3_11_310basic_jsonINS_3mapENS_6vectorES6_bxydS4_NS9_14adl_serializerENSC_IhNS4_IhEEEEvE6createIS6_JRKS6_EEEPT_DpOT0_EUlS7_E_E6secondB8ue170006Ev, symObjAddr: 0x1257C, symBinAddr: 0x100013F78, symSize: 0x28 }
  - { offsetInCU: 0x59F2B, offset: 0x59F2B, size: 0x8, addend: 0x0, symName: __ZZN8nlohmann16json_abi_v3_11_310basic_jsonINSt3__13mapENS2_6vectorENS2_12basic_stringIcNS2_11char_traitsIcEENS2_9allocatorIcEEEEbxydS8_NS0_14adl_serializerENS4_IhNS8_IhEEEEvE6createISA_JRKSA_EEEPT_DpOT0_ENKUlPSA_E_clESN_, symObjAddr: 0x125A4, symBinAddr: 0x100013FA0, symSize: 0x34 }
  - { offsetInCU: 0x59F64, offset: 0x59F64, size: 0x8, addend: 0x0, symName: __ZNSt3__122__compressed_pair_elemIZN8nlohmann16json_abi_v3_11_310basic_jsonINS_3mapENS_6vectorENS_12basic_stringIcNS_11char_traitsIcEENS_9allocatorIcEEEEbxydS9_NS2_14adl_serializerENS5_IhNS9_IhEEEEvE6createISB_JRKSB_EEEPT_DpOT0_EUlPSB_E_Li1ELb0EE5__getB8ue170006Ev, symObjAddr: 0x125D8, symBinAddr: 0x100013FD4, symSize: 0x14 }
  - { offsetInCU: 0x59F8A, offset: 0x59F8A, size: 0x8, addend: 0x0, symName: __ZN8nlohmann16json_abi_v3_11_36detail8json_refINS0_10basic_jsonINSt3__13mapENS4_6vectorENS4_12basic_stringIcNS4_11char_traitsIcEENS4_9allocatorIcEEEEbxydSA_NS0_14adl_serializerENS6_IhNSA_IhEEEEvEEEC2ESt16initializer_listISH_E, symObjAddr: 0x125EC, symBinAddr: 0x100013FE8, symSize: 0x54 }
  - { offsetInCU: 0x59FC3, offset: 0x59FC3, size: 0x8, addend: 0x0, symName: __ZN8nlohmann16json_abi_v3_11_36detail8json_refINS0_10basic_jsonINSt3__13mapENS4_6vectorENS4_12basic_stringIcNS4_11char_traitsIcEENS4_9allocatorIcEEEEbxydSA_NS0_14adl_serializerENS6_IhNSA_IhEEEEvEEEC2IJRA3_KcELi0EEEDpOT_, symObjAddr: 0x12640, symBinAddr: 0x10001403C, symSize: 0x38 }
  - { offsetInCU: 0x5A00D, offset: 0x5A00D, size: 0x8, addend: 0x0, symName: __ZN8nlohmann16json_abi_v3_11_310basic_jsonINSt3__13mapENS2_6vectorENS2_12basic_stringIcNS2_11char_traitsIcEENS2_9allocatorIcEEEEbxydS8_NS0_14adl_serializerENS4_IhNS8_IhEEEEvEC1IRA3_KcA3_cLi0EEEOT_, symObjAddr: 0x12678, symBinAddr: 0x100014074, symSize: 0x34 }
  - { offsetInCU: 0x5A05E, offset: 0x5A05E, size: 0x8, addend: 0x0, symName: __ZN8nlohmann16json_abi_v3_11_310basic_jsonINSt3__13mapENS2_6vectorENS2_12basic_stringIcNS2_11char_traitsIcEENS2_9allocatorIcEEEEbxydS8_NS0_14adl_serializerENS4_IhNS8_IhEEEEvEC2IRA3_KcA3_cLi0EEEOT_, symObjAddr: 0x126AC, symBinAddr: 0x1000140A8, symSize: 0x84 }
  - { offsetInCU: 0x5A0AF, offset: 0x5A0AF, size: 0x8, addend: 0x0, symName: __ZN8nlohmann16json_abi_v3_11_314adl_serializerIA3_cvE7to_jsonINS0_10basic_jsonINSt3__13mapENS6_6vectorENS6_12basic_stringIcNS6_11char_traitsIcEENS6_9allocatorIcEEEEbxydSC_S1_NS8_IhNSC_IhEEEEvEERA3_KcEEDTcmclL_ZNS0_7to_jsonEEfp_clsr3stdE7forwardIT0_Efp0_EEcvv_EERT_OSL_, symObjAddr: 0x12730, symBinAddr: 0x10001412C, symSize: 0x34 }
  - { offsetInCU: 0x5A0F4, offset: 0x5A0F4, size: 0x8, addend: 0x0, symName: __ZNK8nlohmann16json_abi_v3_11_36detail10to_json_fnclINS0_10basic_jsonINSt3__13mapENS5_6vectorENS5_12basic_stringIcNS5_11char_traitsIcEENS5_9allocatorIcEEEEbxydSB_NS0_14adl_serializerENS7_IhNSB_IhEEEEvEERA3_KcEEDTcmcl7to_jsonfp_clsr3stdE7forwardIT0_Efp0_EEcvv_EERT_OSL_, symObjAddr: 0x12764, symBinAddr: 0x100014160, symSize: 0x30 }
  - { offsetInCU: 0x5A14A, offset: 0x5A14A, size: 0x8, addend: 0x0, symName: __ZN8nlohmann16json_abi_v3_11_36detail20external_constructorILNS1_7value_tE3EE9constructINS0_10basic_jsonINSt3__13mapENS7_6vectorENS7_12basic_stringIcNS7_11char_traitsIcEENS7_9allocatorIcEEEEbxydSD_NS0_14adl_serializerENS9_IhNSD_IhEEEEvEEA3_cLi0EEEvRT_RKT0_, symObjAddr: 0x127C0, symBinAddr: 0x1000141BC, symSize: 0x60 }
  - { offsetInCU: 0x5A195, offset: 0x5A195, size: 0x8, addend: 0x0, symName: __ZN8nlohmann16json_abi_v3_11_310basic_jsonINSt3__13mapENS2_6vectorENS2_12basic_stringIcNS2_11char_traitsIcEENS2_9allocatorIcEEEEbxydS8_NS0_14adl_serializerENS4_IhNS8_IhEEEEvE6createISA_JRA3_KcEEEPT_DpOT0_, symObjAddr: 0x12820, symBinAddr: 0x10001421C, symSize: 0xF4 }
  - { offsetInCU: 0x5A296, offset: 0x5A296, size: 0x8, addend: 0x0, symName: __ZNSt3__110unique_ptrINS_12basic_stringIcNS_11char_traitsIcEENS_9allocatorIcEEEEZN8nlohmann16json_abi_v3_11_310basic_jsonINS_3mapENS_6vectorES6_bxydS4_NS8_14adl_serializerENSB_IhNS4_IhEEEEvE6createIS6_JRA3_KcEEEPT_DpOT0_EUlPS6_E_EC1B8ue170006ILb1EvEESP_NS_16__dependent_typeINS_27__unique_ptr_deleter_sfinaeISQ_EEXT_EE15__lval_ref_typeE, symObjAddr: 0x12914, symBinAddr: 0x100014310, symSize: 0x3C }
  - { offsetInCU: 0x5A2E7, offset: 0x5A2E7, size: 0x8, addend: 0x0, symName: __ZNSt3__116allocator_traitsINS_9allocatorINS_12basic_stringIcNS_11char_traitsIcEENS1_IcEEEEEEE9constructB8ue170006IS6_JRA3_KcEvEEvRS7_PT_DpOT0_, symObjAddr: 0x12950, symBinAddr: 0x10001434C, symSize: 0x34 }
  - { offsetInCU: 0x5A33E, offset: 0x5A33E, size: 0x8, addend: 0x0, symName: __ZNKSt3__110unique_ptrINS_12basic_stringIcNS_11char_traitsIcEENS_9allocatorIcEEEEZN8nlohmann16json_abi_v3_11_310basic_jsonINS_3mapENS_6vectorES6_bxydS4_NS8_14adl_serializerENSB_IhNS4_IhEEEEvE6createIS6_JRA3_KcEEEPT_DpOT0_EUlPS6_E_E3getB8ue170006Ev, symObjAddr: 0x12984, symBinAddr: 0x100014380, symSize: 0x28 }
  - { offsetInCU: 0x5A364, offset: 0x5A364, size: 0x8, addend: 0x0, symName: __ZNSt3__110unique_ptrINS_12basic_stringIcNS_11char_traitsIcEENS_9allocatorIcEEEEZN8nlohmann16json_abi_v3_11_310basic_jsonINS_3mapENS_6vectorES6_bxydS4_NS8_14adl_serializerENSB_IhNS4_IhEEEEvE6createIS6_JRA3_KcEEEPT_DpOT0_EUlPS6_E_E7releaseB8ue170006Ev, symObjAddr: 0x129D8, symBinAddr: 0x1000143D4, symSize: 0x44 }
  - { offsetInCU: 0x5A399, offset: 0x5A399, size: 0x8, addend: 0x0, symName: __ZNSt3__110unique_ptrINS_12basic_stringIcNS_11char_traitsIcEENS_9allocatorIcEEEEZN8nlohmann16json_abi_v3_11_310basic_jsonINS_3mapENS_6vectorES6_bxydS4_NS8_14adl_serializerENSB_IhNS4_IhEEEEvE6createIS6_JRA3_KcEEEPT_DpOT0_EUlPS6_E_ED1B8ue170006Ev, symObjAddr: 0x12A1C, symBinAddr: 0x100014418, symSize: 0x2C }
  - { offsetInCU: 0x5A3C3, offset: 0x5A3C3, size: 0x8, addend: 0x0, symName: __ZNSt3__110unique_ptrINS_12basic_stringIcNS_11char_traitsIcEENS_9allocatorIcEEEEZN8nlohmann16json_abi_v3_11_310basic_jsonINS_3mapENS_6vectorES6_bxydS4_NS8_14adl_serializerENSB_IhNS4_IhEEEEvE6createIS6_JRA3_KcEEEPT_DpOT0_EUlPS6_E_EC2B8ue170006ILb1EvEESP_NS_16__dependent_typeINS_27__unique_ptr_deleter_sfinaeISQ_EEXT_EE15__lval_ref_typeE, symObjAddr: 0x12A48, symBinAddr: 0x100014444, symSize: 0x48 }
  - { offsetInCU: 0x5A414, offset: 0x5A414, size: 0x8, addend: 0x0, symName: __ZNSt3__117__compressed_pairIPNS_12basic_stringIcNS_11char_traitsIcEENS_9allocatorIcEEEEZN8nlohmann16json_abi_v3_11_310basic_jsonINS_3mapENS_6vectorES6_bxydS4_NS9_14adl_serializerENSC_IhNS4_IhEEEEvE6createIS6_JRA3_KcEEEPT_DpOT0_EUlS7_E_EC1B8ue170006IRS7_RKSQ_EEOSL_OT0_, symObjAddr: 0x12A90, symBinAddr: 0x10001448C, symSize: 0x3C }
  - { offsetInCU: 0x5A46C, offset: 0x5A46C, size: 0x8, addend: 0x0, symName: __ZNSt3__117__compressed_pairIPNS_12basic_stringIcNS_11char_traitsIcEENS_9allocatorIcEEEEZN8nlohmann16json_abi_v3_11_310basic_jsonINS_3mapENS_6vectorES6_bxydS4_NS9_14adl_serializerENSC_IhNS4_IhEEEEvE6createIS6_JRA3_KcEEEPT_DpOT0_EUlS7_E_EC2B8ue170006IRS7_RKSQ_EEOSL_OT0_, symObjAddr: 0x12ACC, symBinAddr: 0x1000144C8, symSize: 0x48 }
  - { offsetInCU: 0x5A4C4, offset: 0x5A4C4, size: 0x8, addend: 0x0, symName: __ZNSt3__122__compressed_pair_elemIZN8nlohmann16json_abi_v3_11_310basic_jsonINS_3mapENS_6vectorENS_12basic_stringIcNS_11char_traitsIcEENS_9allocatorIcEEEEbxydS9_NS2_14adl_serializerENS5_IhNS9_IhEEEEvE6createISB_JRA3_KcEEEPT_DpOT0_EUlPSB_E_Li1ELb0EEC2B8ue170006IRKSQ_vEEOSK_, symObjAddr: 0x12B14, symBinAddr: 0x100014510, symSize: 0x24 }
  - { offsetInCU: 0x5A506, offset: 0x5A506, size: 0x8, addend: 0x0, symName: __ZNSt3__19allocatorINS_12basic_stringIcNS_11char_traitsIcEENS0_IcEEEEE9constructB8ue170006IS5_JRA3_KcEEEvPT_DpOT0_, symObjAddr: 0x12B38, symBinAddr: 0x100014534, symSize: 0x30 }
  - { offsetInCU: 0x5A55C, offset: 0x5A55C, size: 0x8, addend: 0x0, symName: __ZNKSt3__117__compressed_pairIPNS_12basic_stringIcNS_11char_traitsIcEENS_9allocatorIcEEEEZN8nlohmann16json_abi_v3_11_310basic_jsonINS_3mapENS_6vectorES6_bxydS4_NS9_14adl_serializerENSC_IhNS4_IhEEEEvE6createIS6_JRA3_KcEEEPT_DpOT0_EUlS7_E_E5firstB8ue170006Ev, symObjAddr: 0x12B68, symBinAddr: 0x100014564, symSize: 0x24 }
  - { offsetInCU: 0x5A582, offset: 0x5A582, size: 0x8, addend: 0x0, symName: __ZNKSt3__110unique_ptrINS_12basic_stringIcNS_11char_traitsIcEENS_9allocatorIcEEEEZN8nlohmann16json_abi_v3_11_310basic_jsonINS_3mapENS_6vectorES6_bxydS4_NS8_14adl_serializerENSB_IhNS4_IhEEEEvE6createIS6_JRA3_KcEEEPT_DpOT0_EUlPS6_E_EcvbB8ue170006Ev, symObjAddr: 0x12B8C, symBinAddr: 0x100014588, symSize: 0x34 }
  - { offsetInCU: 0x5A5A8, offset: 0x5A5A8, size: 0x8, addend: 0x0, symName: __ZNSt3__117__compressed_pairIPNS_12basic_stringIcNS_11char_traitsIcEENS_9allocatorIcEEEEZN8nlohmann16json_abi_v3_11_310basic_jsonINS_3mapENS_6vectorES6_bxydS4_NS9_14adl_serializerENSC_IhNS4_IhEEEEvE6createIS6_JRA3_KcEEEPT_DpOT0_EUlS7_E_E5firstB8ue170006Ev, symObjAddr: 0x12BC0, symBinAddr: 0x1000145BC, symSize: 0x24 }
  - { offsetInCU: 0x5A5CE, offset: 0x5A5CE, size: 0x8, addend: 0x0, symName: __ZNSt3__110unique_ptrINS_12basic_stringIcNS_11char_traitsIcEENS_9allocatorIcEEEEZN8nlohmann16json_abi_v3_11_310basic_jsonINS_3mapENS_6vectorES6_bxydS4_NS8_14adl_serializerENSB_IhNS4_IhEEEEvE6createIS6_JRA3_KcEEEPT_DpOT0_EUlPS6_E_ED2B8ue170006Ev, symObjAddr: 0x12BE4, symBinAddr: 0x1000145E0, symSize: 0x30 }
  - { offsetInCU: 0x5A5F8, offset: 0x5A5F8, size: 0x8, addend: 0x0, symName: __ZNSt3__110unique_ptrINS_12basic_stringIcNS_11char_traitsIcEENS_9allocatorIcEEEEZN8nlohmann16json_abi_v3_11_310basic_jsonINS_3mapENS_6vectorES6_bxydS4_NS8_14adl_serializerENSB_IhNS4_IhEEEEvE6createIS6_JRA3_KcEEEPT_DpOT0_EUlPS6_E_E5resetB8ue170006ESP_, symObjAddr: 0x12C14, symBinAddr: 0x100014610, symSize: 0x80 }
  - { offsetInCU: 0x5A63C, offset: 0x5A63C, size: 0x8, addend: 0x0, symName: __ZNSt3__117__compressed_pairIPNS_12basic_stringIcNS_11char_traitsIcEENS_9allocatorIcEEEEZN8nlohmann16json_abi_v3_11_310basic_jsonINS_3mapENS_6vectorES6_bxydS4_NS9_14adl_serializerENSC_IhNS4_IhEEEEvE6createIS6_JRA3_KcEEEPT_DpOT0_EUlS7_E_E6secondB8ue170006Ev, symObjAddr: 0x12C94, symBinAddr: 0x100014690, symSize: 0x28 }
  - { offsetInCU: 0x5A668, offset: 0x5A668, size: 0x8, addend: 0x0, symName: __ZZN8nlohmann16json_abi_v3_11_310basic_jsonINSt3__13mapENS2_6vectorENS2_12basic_stringIcNS2_11char_traitsIcEENS2_9allocatorIcEEEEbxydS8_NS0_14adl_serializerENS4_IhNS8_IhEEEEvE6createISA_JRA3_KcEEEPT_DpOT0_ENKUlPSA_E_clESO_, symObjAddr: 0x12CBC, symBinAddr: 0x1000146B8, symSize: 0x34 }
  - { offsetInCU: 0x5A6A1, offset: 0x5A6A1, size: 0x8, addend: 0x0, symName: __ZNSt3__122__compressed_pair_elemIZN8nlohmann16json_abi_v3_11_310basic_jsonINS_3mapENS_6vectorENS_12basic_stringIcNS_11char_traitsIcEENS_9allocatorIcEEEEbxydS9_NS2_14adl_serializerENS5_IhNS9_IhEEEEvE6createISB_JRA3_KcEEEPT_DpOT0_EUlPSB_E_Li1ELb0EE5__getB8ue170006Ev, symObjAddr: 0x12CF0, symBinAddr: 0x1000146EC, symSize: 0x14 }
  - { offsetInCU: 0x5A6C7, offset: 0x5A6C7, size: 0x8, addend: 0x0, symName: __ZN8nlohmann16json_abi_v3_11_36detail8json_refINS0_10basic_jsonINSt3__13mapENS4_6vectorENS4_12basic_stringIcNS4_11char_traitsIcEENS4_9allocatorIcEEEEbxydSA_NS0_14adl_serializerENS6_IhNSA_IhEEEEvEEEC2IJRA5_KcELi0EEEDpOT_, symObjAddr: 0x12D04, symBinAddr: 0x100014700, symSize: 0x38 }
  - { offsetInCU: 0x5A711, offset: 0x5A711, size: 0x8, addend: 0x0, symName: __ZN8nlohmann16json_abi_v3_11_310basic_jsonINSt3__13mapENS2_6vectorENS2_12basic_stringIcNS2_11char_traitsIcEENS2_9allocatorIcEEEEbxydS8_NS0_14adl_serializerENS4_IhNS8_IhEEEEvEC1IRA5_KcA5_cLi0EEEOT_, symObjAddr: 0x12D3C, symBinAddr: 0x100014738, symSize: 0x34 }
  - { offsetInCU: 0x5A762, offset: 0x5A762, size: 0x8, addend: 0x0, symName: __ZN8nlohmann16json_abi_v3_11_310basic_jsonINSt3__13mapENS2_6vectorENS2_12basic_stringIcNS2_11char_traitsIcEENS2_9allocatorIcEEEEbxydS8_NS0_14adl_serializerENS4_IhNS8_IhEEEEvEC2IRA5_KcA5_cLi0EEEOT_, symObjAddr: 0x12D70, symBinAddr: 0x10001476C, symSize: 0x84 }
  - { offsetInCU: 0x5A7B3, offset: 0x5A7B3, size: 0x8, addend: 0x0, symName: __ZN8nlohmann16json_abi_v3_11_314adl_serializerIA5_cvE7to_jsonINS0_10basic_jsonINSt3__13mapENS6_6vectorENS6_12basic_stringIcNS6_11char_traitsIcEENS6_9allocatorIcEEEEbxydSC_S1_NS8_IhNSC_IhEEEEvEERA5_KcEEDTcmclL_ZNS0_7to_jsonEEfp_clsr3stdE7forwardIT0_Efp0_EEcvv_EERT_OSL_, symObjAddr: 0x12DF4, symBinAddr: 0x1000147F0, symSize: 0x34 }
  - { offsetInCU: 0x5A7F8, offset: 0x5A7F8, size: 0x8, addend: 0x0, symName: __ZNK8nlohmann16json_abi_v3_11_36detail10to_json_fnclINS0_10basic_jsonINSt3__13mapENS5_6vectorENS5_12basic_stringIcNS5_11char_traitsIcEENS5_9allocatorIcEEEEbxydSB_NS0_14adl_serializerENS7_IhNSB_IhEEEEvEERA5_KcEEDTcmcl7to_jsonfp_clsr3stdE7forwardIT0_Efp0_EEcvv_EERT_OSL_, symObjAddr: 0x12E28, symBinAddr: 0x100014824, symSize: 0x30 }
  - { offsetInCU: 0x5A84E, offset: 0x5A84E, size: 0x8, addend: 0x0, symName: __ZN8nlohmann16json_abi_v3_11_36detail20external_constructorILNS1_7value_tE3EE9constructINS0_10basic_jsonINSt3__13mapENS7_6vectorENS7_12basic_stringIcNS7_11char_traitsIcEENS7_9allocatorIcEEEEbxydSD_NS0_14adl_serializerENS9_IhNSD_IhEEEEvEEA5_cLi0EEEvRT_RKT0_, symObjAddr: 0x12E84, symBinAddr: 0x100014880, symSize: 0x60 }
  - { offsetInCU: 0x5A899, offset: 0x5A899, size: 0x8, addend: 0x0, symName: __ZN8nlohmann16json_abi_v3_11_310basic_jsonINSt3__13mapENS2_6vectorENS2_12basic_stringIcNS2_11char_traitsIcEENS2_9allocatorIcEEEEbxydS8_NS0_14adl_serializerENS4_IhNS8_IhEEEEvE6createISA_JRA5_KcEEEPT_DpOT0_, symObjAddr: 0x12EE4, symBinAddr: 0x1000148E0, symSize: 0xF4 }
  - { offsetInCU: 0x5A99A, offset: 0x5A99A, size: 0x8, addend: 0x0, symName: __ZNSt3__110unique_ptrINS_12basic_stringIcNS_11char_traitsIcEENS_9allocatorIcEEEEZN8nlohmann16json_abi_v3_11_310basic_jsonINS_3mapENS_6vectorES6_bxydS4_NS8_14adl_serializerENSB_IhNS4_IhEEEEvE6createIS6_JRA5_KcEEEPT_DpOT0_EUlPS6_E_EC1B8ue170006ILb1EvEESP_NS_16__dependent_typeINS_27__unique_ptr_deleter_sfinaeISQ_EEXT_EE15__lval_ref_typeE, symObjAddr: 0x12FD8, symBinAddr: 0x1000149D4, symSize: 0x3C }
  - { offsetInCU: 0x5A9EB, offset: 0x5A9EB, size: 0x8, addend: 0x0, symName: __ZNSt3__116allocator_traitsINS_9allocatorINS_12basic_stringIcNS_11char_traitsIcEENS1_IcEEEEEEE9constructB8ue170006IS6_JRA5_KcEvEEvRS7_PT_DpOT0_, symObjAddr: 0x13014, symBinAddr: 0x100014A10, symSize: 0x34 }
  - { offsetInCU: 0x5AA42, offset: 0x5AA42, size: 0x8, addend: 0x0, symName: __ZNKSt3__110unique_ptrINS_12basic_stringIcNS_11char_traitsIcEENS_9allocatorIcEEEEZN8nlohmann16json_abi_v3_11_310basic_jsonINS_3mapENS_6vectorES6_bxydS4_NS8_14adl_serializerENSB_IhNS4_IhEEEEvE6createIS6_JRA5_KcEEEPT_DpOT0_EUlPS6_E_E3getB8ue170006Ev, symObjAddr: 0x13048, symBinAddr: 0x100014A44, symSize: 0x28 }
  - { offsetInCU: 0x5AA68, offset: 0x5AA68, size: 0x8, addend: 0x0, symName: __ZNSt3__110unique_ptrINS_12basic_stringIcNS_11char_traitsIcEENS_9allocatorIcEEEEZN8nlohmann16json_abi_v3_11_310basic_jsonINS_3mapENS_6vectorES6_bxydS4_NS8_14adl_serializerENSB_IhNS4_IhEEEEvE6createIS6_JRA5_KcEEEPT_DpOT0_EUlPS6_E_E7releaseB8ue170006Ev, symObjAddr: 0x1309C, symBinAddr: 0x100014A98, symSize: 0x44 }
  - { offsetInCU: 0x5AA9D, offset: 0x5AA9D, size: 0x8, addend: 0x0, symName: __ZNSt3__110unique_ptrINS_12basic_stringIcNS_11char_traitsIcEENS_9allocatorIcEEEEZN8nlohmann16json_abi_v3_11_310basic_jsonINS_3mapENS_6vectorES6_bxydS4_NS8_14adl_serializerENSB_IhNS4_IhEEEEvE6createIS6_JRA5_KcEEEPT_DpOT0_EUlPS6_E_ED1B8ue170006Ev, symObjAddr: 0x130E0, symBinAddr: 0x100014ADC, symSize: 0x2C }
  - { offsetInCU: 0x5AAC7, offset: 0x5AAC7, size: 0x8, addend: 0x0, symName: __ZNSt3__110unique_ptrINS_12basic_stringIcNS_11char_traitsIcEENS_9allocatorIcEEEEZN8nlohmann16json_abi_v3_11_310basic_jsonINS_3mapENS_6vectorES6_bxydS4_NS8_14adl_serializerENSB_IhNS4_IhEEEEvE6createIS6_JRA5_KcEEEPT_DpOT0_EUlPS6_E_EC2B8ue170006ILb1EvEESP_NS_16__dependent_typeINS_27__unique_ptr_deleter_sfinaeISQ_EEXT_EE15__lval_ref_typeE, symObjAddr: 0x1310C, symBinAddr: 0x100014B08, symSize: 0x48 }
  - { offsetInCU: 0x5AB18, offset: 0x5AB18, size: 0x8, addend: 0x0, symName: __ZNSt3__117__compressed_pairIPNS_12basic_stringIcNS_11char_traitsIcEENS_9allocatorIcEEEEZN8nlohmann16json_abi_v3_11_310basic_jsonINS_3mapENS_6vectorES6_bxydS4_NS9_14adl_serializerENSC_IhNS4_IhEEEEvE6createIS6_JRA5_KcEEEPT_DpOT0_EUlS7_E_EC1B8ue170006IRS7_RKSQ_EEOSL_OT0_, symObjAddr: 0x13154, symBinAddr: 0x100014B50, symSize: 0x3C }
  - { offsetInCU: 0x5AB70, offset: 0x5AB70, size: 0x8, addend: 0x0, symName: __ZNSt3__117__compressed_pairIPNS_12basic_stringIcNS_11char_traitsIcEENS_9allocatorIcEEEEZN8nlohmann16json_abi_v3_11_310basic_jsonINS_3mapENS_6vectorES6_bxydS4_NS9_14adl_serializerENSC_IhNS4_IhEEEEvE6createIS6_JRA5_KcEEEPT_DpOT0_EUlS7_E_EC2B8ue170006IRS7_RKSQ_EEOSL_OT0_, symObjAddr: 0x13190, symBinAddr: 0x100014B8C, symSize: 0x48 }
  - { offsetInCU: 0x5ABC8, offset: 0x5ABC8, size: 0x8, addend: 0x0, symName: __ZNSt3__122__compressed_pair_elemIZN8nlohmann16json_abi_v3_11_310basic_jsonINS_3mapENS_6vectorENS_12basic_stringIcNS_11char_traitsIcEENS_9allocatorIcEEEEbxydS9_NS2_14adl_serializerENS5_IhNS9_IhEEEEvE6createISB_JRA5_KcEEEPT_DpOT0_EUlPSB_E_Li1ELb0EEC2B8ue170006IRKSQ_vEEOSK_, symObjAddr: 0x131D8, symBinAddr: 0x100014BD4, symSize: 0x24 }
  - { offsetInCU: 0x5AC0A, offset: 0x5AC0A, size: 0x8, addend: 0x0, symName: __ZNSt3__19allocatorINS_12basic_stringIcNS_11char_traitsIcEENS0_IcEEEEE9constructB8ue170006IS5_JRA5_KcEEEvPT_DpOT0_, symObjAddr: 0x131FC, symBinAddr: 0x100014BF8, symSize: 0x30 }
  - { offsetInCU: 0x5AC60, offset: 0x5AC60, size: 0x8, addend: 0x0, symName: __ZNKSt3__117__compressed_pairIPNS_12basic_stringIcNS_11char_traitsIcEENS_9allocatorIcEEEEZN8nlohmann16json_abi_v3_11_310basic_jsonINS_3mapENS_6vectorES6_bxydS4_NS9_14adl_serializerENSC_IhNS4_IhEEEEvE6createIS6_JRA5_KcEEEPT_DpOT0_EUlS7_E_E5firstB8ue170006Ev, symObjAddr: 0x1322C, symBinAddr: 0x100014C28, symSize: 0x24 }
  - { offsetInCU: 0x5AC86, offset: 0x5AC86, size: 0x8, addend: 0x0, symName: __ZNKSt3__110unique_ptrINS_12basic_stringIcNS_11char_traitsIcEENS_9allocatorIcEEEEZN8nlohmann16json_abi_v3_11_310basic_jsonINS_3mapENS_6vectorES6_bxydS4_NS8_14adl_serializerENSB_IhNS4_IhEEEEvE6createIS6_JRA5_KcEEEPT_DpOT0_EUlPS6_E_EcvbB8ue170006Ev, symObjAddr: 0x13250, symBinAddr: 0x100014C4C, symSize: 0x34 }
  - { offsetInCU: 0x5ACAC, offset: 0x5ACAC, size: 0x8, addend: 0x0, symName: __ZNSt3__117__compressed_pairIPNS_12basic_stringIcNS_11char_traitsIcEENS_9allocatorIcEEEEZN8nlohmann16json_abi_v3_11_310basic_jsonINS_3mapENS_6vectorES6_bxydS4_NS9_14adl_serializerENSC_IhNS4_IhEEEEvE6createIS6_JRA5_KcEEEPT_DpOT0_EUlS7_E_E5firstB8ue170006Ev, symObjAddr: 0x13284, symBinAddr: 0x100014C80, symSize: 0x24 }
  - { offsetInCU: 0x5ACD2, offset: 0x5ACD2, size: 0x8, addend: 0x0, symName: __ZNSt3__110unique_ptrINS_12basic_stringIcNS_11char_traitsIcEENS_9allocatorIcEEEEZN8nlohmann16json_abi_v3_11_310basic_jsonINS_3mapENS_6vectorES6_bxydS4_NS8_14adl_serializerENSB_IhNS4_IhEEEEvE6createIS6_JRA5_KcEEEPT_DpOT0_EUlPS6_E_ED2B8ue170006Ev, symObjAddr: 0x132A8, symBinAddr: 0x100014CA4, symSize: 0x30 }
  - { offsetInCU: 0x5ACFC, offset: 0x5ACFC, size: 0x8, addend: 0x0, symName: __ZNSt3__110unique_ptrINS_12basic_stringIcNS_11char_traitsIcEENS_9allocatorIcEEEEZN8nlohmann16json_abi_v3_11_310basic_jsonINS_3mapENS_6vectorES6_bxydS4_NS8_14adl_serializerENSB_IhNS4_IhEEEEvE6createIS6_JRA5_KcEEEPT_DpOT0_EUlPS6_E_E5resetB8ue170006ESP_, symObjAddr: 0x132D8, symBinAddr: 0x100014CD4, symSize: 0x80 }
  - { offsetInCU: 0x5AD40, offset: 0x5AD40, size: 0x8, addend: 0x0, symName: __ZNSt3__117__compressed_pairIPNS_12basic_stringIcNS_11char_traitsIcEENS_9allocatorIcEEEEZN8nlohmann16json_abi_v3_11_310basic_jsonINS_3mapENS_6vectorES6_bxydS4_NS9_14adl_serializerENSC_IhNS4_IhEEEEvE6createIS6_JRA5_KcEEEPT_DpOT0_EUlS7_E_E6secondB8ue170006Ev, symObjAddr: 0x13358, symBinAddr: 0x100014D54, symSize: 0x28 }
  - { offsetInCU: 0x5AD6C, offset: 0x5AD6C, size: 0x8, addend: 0x0, symName: __ZZN8nlohmann16json_abi_v3_11_310basic_jsonINSt3__13mapENS2_6vectorENS2_12basic_stringIcNS2_11char_traitsIcEENS2_9allocatorIcEEEEbxydS8_NS0_14adl_serializerENS4_IhNS8_IhEEEEvE6createISA_JRA5_KcEEEPT_DpOT0_ENKUlPSA_E_clESO_, symObjAddr: 0x13380, symBinAddr: 0x100014D7C, symSize: 0x34 }
  - { offsetInCU: 0x5ADA5, offset: 0x5ADA5, size: 0x8, addend: 0x0, symName: __ZNSt3__122__compressed_pair_elemIZN8nlohmann16json_abi_v3_11_310basic_jsonINS_3mapENS_6vectorENS_12basic_stringIcNS_11char_traitsIcEENS_9allocatorIcEEEEbxydS9_NS2_14adl_serializerENS5_IhNS9_IhEEEEvE6createISB_JRA5_KcEEEPT_DpOT0_EUlPSB_E_Li1ELb0EE5__getB8ue170006Ev, symObjAddr: 0x133B4, symBinAddr: 0x100014DB0, symSize: 0x14 }
  - { offsetInCU: 0x5ADCB, offset: 0x5ADCB, size: 0x8, addend: 0x0, symName: __ZN8nlohmann16json_abi_v3_11_36detail8json_refINS0_10basic_jsonINSt3__13mapENS4_6vectorENS4_12basic_stringIcNS4_11char_traitsIcEENS4_9allocatorIcEEEEbxydSA_NS0_14adl_serializerENS6_IhNSA_IhEEEEvEEEC2IJRA6_KcELi0EEEDpOT_, symObjAddr: 0x133C8, symBinAddr: 0x100014DC4, symSize: 0x38 }
  - { offsetInCU: 0x5AE15, offset: 0x5AE15, size: 0x8, addend: 0x0, symName: __ZN8nlohmann16json_abi_v3_11_310basic_jsonINSt3__13mapENS2_6vectorENS2_12basic_stringIcNS2_11char_traitsIcEENS2_9allocatorIcEEEEbxydS8_NS0_14adl_serializerENS4_IhNS8_IhEEEEvEC1IRA6_KcA6_cLi0EEEOT_, symObjAddr: 0x13400, symBinAddr: 0x100014DFC, symSize: 0x34 }
  - { offsetInCU: 0x5AE66, offset: 0x5AE66, size: 0x8, addend: 0x0, symName: __ZN8nlohmann16json_abi_v3_11_310basic_jsonINSt3__13mapENS2_6vectorENS2_12basic_stringIcNS2_11char_traitsIcEENS2_9allocatorIcEEEEbxydS8_NS0_14adl_serializerENS4_IhNS8_IhEEEEvEC2IRA6_KcA6_cLi0EEEOT_, symObjAddr: 0x13434, symBinAddr: 0x100014E30, symSize: 0x84 }
  - { offsetInCU: 0x5AEB7, offset: 0x5AEB7, size: 0x8, addend: 0x0, symName: __ZN8nlohmann16json_abi_v3_11_314adl_serializerIA6_cvE7to_jsonINS0_10basic_jsonINSt3__13mapENS6_6vectorENS6_12basic_stringIcNS6_11char_traitsIcEENS6_9allocatorIcEEEEbxydSC_S1_NS8_IhNSC_IhEEEEvEERA6_KcEEDTcmclL_ZNS0_7to_jsonEEfp_clsr3stdE7forwardIT0_Efp0_EEcvv_EERT_OSL_, symObjAddr: 0x134B8, symBinAddr: 0x100014EB4, symSize: 0x34 }
  - { offsetInCU: 0x5AEFC, offset: 0x5AEFC, size: 0x8, addend: 0x0, symName: __ZNK8nlohmann16json_abi_v3_11_36detail10to_json_fnclINS0_10basic_jsonINSt3__13mapENS5_6vectorENS5_12basic_stringIcNS5_11char_traitsIcEENS5_9allocatorIcEEEEbxydSB_NS0_14adl_serializerENS7_IhNSB_IhEEEEvEERA6_KcEEDTcmcl7to_jsonfp_clsr3stdE7forwardIT0_Efp0_EEcvv_EERT_OSL_, symObjAddr: 0x134EC, symBinAddr: 0x100014EE8, symSize: 0x30 }
  - { offsetInCU: 0x5AF52, offset: 0x5AF52, size: 0x8, addend: 0x0, symName: __ZN8nlohmann16json_abi_v3_11_36detail20external_constructorILNS1_7value_tE3EE9constructINS0_10basic_jsonINSt3__13mapENS7_6vectorENS7_12basic_stringIcNS7_11char_traitsIcEENS7_9allocatorIcEEEEbxydSD_NS0_14adl_serializerENS9_IhNSD_IhEEEEvEEA6_cLi0EEEvRT_RKT0_, symObjAddr: 0x13548, symBinAddr: 0x100014F44, symSize: 0x60 }
  - { offsetInCU: 0x5AF9D, offset: 0x5AF9D, size: 0x8, addend: 0x0, symName: __ZN8nlohmann16json_abi_v3_11_310basic_jsonINSt3__13mapENS2_6vectorENS2_12basic_stringIcNS2_11char_traitsIcEENS2_9allocatorIcEEEEbxydS8_NS0_14adl_serializerENS4_IhNS8_IhEEEEvE6createISA_JRA6_KcEEEPT_DpOT0_, symObjAddr: 0x135A8, symBinAddr: 0x100014FA4, symSize: 0xF4 }
  - { offsetInCU: 0x5B09E, offset: 0x5B09E, size: 0x8, addend: 0x0, symName: __ZNSt3__110unique_ptrINS_12basic_stringIcNS_11char_traitsIcEENS_9allocatorIcEEEEZN8nlohmann16json_abi_v3_11_310basic_jsonINS_3mapENS_6vectorES6_bxydS4_NS8_14adl_serializerENSB_IhNS4_IhEEEEvE6createIS6_JRA6_KcEEEPT_DpOT0_EUlPS6_E_EC1B8ue170006ILb1EvEESP_NS_16__dependent_typeINS_27__unique_ptr_deleter_sfinaeISQ_EEXT_EE15__lval_ref_typeE, symObjAddr: 0x1369C, symBinAddr: 0x100015098, symSize: 0x3C }
  - { offsetInCU: 0x5B0EF, offset: 0x5B0EF, size: 0x8, addend: 0x0, symName: __ZNSt3__116allocator_traitsINS_9allocatorINS_12basic_stringIcNS_11char_traitsIcEENS1_IcEEEEEEE9constructB8ue170006IS6_JRA6_KcEvEEvRS7_PT_DpOT0_, symObjAddr: 0x136D8, symBinAddr: 0x1000150D4, symSize: 0x34 }
  - { offsetInCU: 0x5B146, offset: 0x5B146, size: 0x8, addend: 0x0, symName: __ZNKSt3__110unique_ptrINS_12basic_stringIcNS_11char_traitsIcEENS_9allocatorIcEEEEZN8nlohmann16json_abi_v3_11_310basic_jsonINS_3mapENS_6vectorES6_bxydS4_NS8_14adl_serializerENSB_IhNS4_IhEEEEvE6createIS6_JRA6_KcEEEPT_DpOT0_EUlPS6_E_E3getB8ue170006Ev, symObjAddr: 0x1370C, symBinAddr: 0x100015108, symSize: 0x28 }
  - { offsetInCU: 0x5B16C, offset: 0x5B16C, size: 0x8, addend: 0x0, symName: __ZNSt3__110unique_ptrINS_12basic_stringIcNS_11char_traitsIcEENS_9allocatorIcEEEEZN8nlohmann16json_abi_v3_11_310basic_jsonINS_3mapENS_6vectorES6_bxydS4_NS8_14adl_serializerENSB_IhNS4_IhEEEEvE6createIS6_JRA6_KcEEEPT_DpOT0_EUlPS6_E_E7releaseB8ue170006Ev, symObjAddr: 0x13760, symBinAddr: 0x10001515C, symSize: 0x44 }
  - { offsetInCU: 0x5B1A1, offset: 0x5B1A1, size: 0x8, addend: 0x0, symName: __ZNSt3__110unique_ptrINS_12basic_stringIcNS_11char_traitsIcEENS_9allocatorIcEEEEZN8nlohmann16json_abi_v3_11_310basic_jsonINS_3mapENS_6vectorES6_bxydS4_NS8_14adl_serializerENSB_IhNS4_IhEEEEvE6createIS6_JRA6_KcEEEPT_DpOT0_EUlPS6_E_ED1B8ue170006Ev, symObjAddr: 0x137A4, symBinAddr: 0x1000151A0, symSize: 0x2C }
  - { offsetInCU: 0x5B1CB, offset: 0x5B1CB, size: 0x8, addend: 0x0, symName: __ZNSt3__110unique_ptrINS_12basic_stringIcNS_11char_traitsIcEENS_9allocatorIcEEEEZN8nlohmann16json_abi_v3_11_310basic_jsonINS_3mapENS_6vectorES6_bxydS4_NS8_14adl_serializerENSB_IhNS4_IhEEEEvE6createIS6_JRA6_KcEEEPT_DpOT0_EUlPS6_E_EC2B8ue170006ILb1EvEESP_NS_16__dependent_typeINS_27__unique_ptr_deleter_sfinaeISQ_EEXT_EE15__lval_ref_typeE, symObjAddr: 0x137D0, symBinAddr: 0x1000151CC, symSize: 0x48 }
  - { offsetInCU: 0x5B21C, offset: 0x5B21C, size: 0x8, addend: 0x0, symName: __ZNSt3__117__compressed_pairIPNS_12basic_stringIcNS_11char_traitsIcEENS_9allocatorIcEEEEZN8nlohmann16json_abi_v3_11_310basic_jsonINS_3mapENS_6vectorES6_bxydS4_NS9_14adl_serializerENSC_IhNS4_IhEEEEvE6createIS6_JRA6_KcEEEPT_DpOT0_EUlS7_E_EC1B8ue170006IRS7_RKSQ_EEOSL_OT0_, symObjAddr: 0x13818, symBinAddr: 0x100015214, symSize: 0x3C }
  - { offsetInCU: 0x5B274, offset: 0x5B274, size: 0x8, addend: 0x0, symName: __ZNSt3__117__compressed_pairIPNS_12basic_stringIcNS_11char_traitsIcEENS_9allocatorIcEEEEZN8nlohmann16json_abi_v3_11_310basic_jsonINS_3mapENS_6vectorES6_bxydS4_NS9_14adl_serializerENSC_IhNS4_IhEEEEvE6createIS6_JRA6_KcEEEPT_DpOT0_EUlS7_E_EC2B8ue170006IRS7_RKSQ_EEOSL_OT0_, symObjAddr: 0x13854, symBinAddr: 0x100015250, symSize: 0x48 }
  - { offsetInCU: 0x5B2CC, offset: 0x5B2CC, size: 0x8, addend: 0x0, symName: __ZNSt3__122__compressed_pair_elemIZN8nlohmann16json_abi_v3_11_310basic_jsonINS_3mapENS_6vectorENS_12basic_stringIcNS_11char_traitsIcEENS_9allocatorIcEEEEbxydS9_NS2_14adl_serializerENS5_IhNS9_IhEEEEvE6createISB_JRA6_KcEEEPT_DpOT0_EUlPSB_E_Li1ELb0EEC2B8ue170006IRKSQ_vEEOSK_, symObjAddr: 0x1389C, symBinAddr: 0x100015298, symSize: 0x24 }
  - { offsetInCU: 0x5B30E, offset: 0x5B30E, size: 0x8, addend: 0x0, symName: __ZNSt3__19allocatorINS_12basic_stringIcNS_11char_traitsIcEENS0_IcEEEEE9constructB8ue170006IS5_JRA6_KcEEEvPT_DpOT0_, symObjAddr: 0x138C0, symBinAddr: 0x1000152BC, symSize: 0x30 }
  - { offsetInCU: 0x5B364, offset: 0x5B364, size: 0x8, addend: 0x0, symName: __ZNKSt3__117__compressed_pairIPNS_12basic_stringIcNS_11char_traitsIcEENS_9allocatorIcEEEEZN8nlohmann16json_abi_v3_11_310basic_jsonINS_3mapENS_6vectorES6_bxydS4_NS9_14adl_serializerENSC_IhNS4_IhEEEEvE6createIS6_JRA6_KcEEEPT_DpOT0_EUlS7_E_E5firstB8ue170006Ev, symObjAddr: 0x138F0, symBinAddr: 0x1000152EC, symSize: 0x24 }
  - { offsetInCU: 0x5B38A, offset: 0x5B38A, size: 0x8, addend: 0x0, symName: __ZNKSt3__110unique_ptrINS_12basic_stringIcNS_11char_traitsIcEENS_9allocatorIcEEEEZN8nlohmann16json_abi_v3_11_310basic_jsonINS_3mapENS_6vectorES6_bxydS4_NS8_14adl_serializerENSB_IhNS4_IhEEEEvE6createIS6_JRA6_KcEEEPT_DpOT0_EUlPS6_E_EcvbB8ue170006Ev, symObjAddr: 0x13914, symBinAddr: 0x100015310, symSize: 0x34 }
  - { offsetInCU: 0x5B3B0, offset: 0x5B3B0, size: 0x8, addend: 0x0, symName: __ZNSt3__117__compressed_pairIPNS_12basic_stringIcNS_11char_traitsIcEENS_9allocatorIcEEEEZN8nlohmann16json_abi_v3_11_310basic_jsonINS_3mapENS_6vectorES6_bxydS4_NS9_14adl_serializerENSC_IhNS4_IhEEEEvE6createIS6_JRA6_KcEEEPT_DpOT0_EUlS7_E_E5firstB8ue170006Ev, symObjAddr: 0x13948, symBinAddr: 0x100015344, symSize: 0x24 }
  - { offsetInCU: 0x5B3D6, offset: 0x5B3D6, size: 0x8, addend: 0x0, symName: __ZNSt3__110unique_ptrINS_12basic_stringIcNS_11char_traitsIcEENS_9allocatorIcEEEEZN8nlohmann16json_abi_v3_11_310basic_jsonINS_3mapENS_6vectorES6_bxydS4_NS8_14adl_serializerENSB_IhNS4_IhEEEEvE6createIS6_JRA6_KcEEEPT_DpOT0_EUlPS6_E_ED2B8ue170006Ev, symObjAddr: 0x1396C, symBinAddr: 0x100015368, symSize: 0x30 }
  - { offsetInCU: 0x5B400, offset: 0x5B400, size: 0x8, addend: 0x0, symName: __ZNSt3__110unique_ptrINS_12basic_stringIcNS_11char_traitsIcEENS_9allocatorIcEEEEZN8nlohmann16json_abi_v3_11_310basic_jsonINS_3mapENS_6vectorES6_bxydS4_NS8_14adl_serializerENSB_IhNS4_IhEEEEvE6createIS6_JRA6_KcEEEPT_DpOT0_EUlPS6_E_E5resetB8ue170006ESP_, symObjAddr: 0x1399C, symBinAddr: 0x100015398, symSize: 0x80 }
  - { offsetInCU: 0x5B444, offset: 0x5B444, size: 0x8, addend: 0x0, symName: __ZNSt3__117__compressed_pairIPNS_12basic_stringIcNS_11char_traitsIcEENS_9allocatorIcEEEEZN8nlohmann16json_abi_v3_11_310basic_jsonINS_3mapENS_6vectorES6_bxydS4_NS9_14adl_serializerENSC_IhNS4_IhEEEEvE6createIS6_JRA6_KcEEEPT_DpOT0_EUlS7_E_E6secondB8ue170006Ev, symObjAddr: 0x13A1C, symBinAddr: 0x100015418, symSize: 0x28 }
  - { offsetInCU: 0x5B470, offset: 0x5B470, size: 0x8, addend: 0x0, symName: __ZZN8nlohmann16json_abi_v3_11_310basic_jsonINSt3__13mapENS2_6vectorENS2_12basic_stringIcNS2_11char_traitsIcEENS2_9allocatorIcEEEEbxydS8_NS0_14adl_serializerENS4_IhNS8_IhEEEEvE6createISA_JRA6_KcEEEPT_DpOT0_ENKUlPSA_E_clESO_, symObjAddr: 0x13A44, symBinAddr: 0x100015440, symSize: 0x34 }
  - { offsetInCU: 0x5B4A9, offset: 0x5B4A9, size: 0x8, addend: 0x0, symName: __ZNSt3__122__compressed_pair_elemIZN8nlohmann16json_abi_v3_11_310basic_jsonINS_3mapENS_6vectorENS_12basic_stringIcNS_11char_traitsIcEENS_9allocatorIcEEEEbxydS9_NS2_14adl_serializerENS5_IhNS9_IhEEEEvE6createISB_JRA6_KcEEEPT_DpOT0_EUlPSB_E_Li1ELb0EE5__getB8ue170006Ev, symObjAddr: 0x13A78, symBinAddr: 0x100015474, symSize: 0x14 }
  - { offsetInCU: 0x5B4CF, offset: 0x5B4CF, size: 0x8, addend: 0x0, symName: __ZN8nlohmann16json_abi_v3_11_36detail8json_refINS0_10basic_jsonINSt3__13mapENS4_6vectorENS4_12basic_stringIcNS4_11char_traitsIcEENS4_9allocatorIcEEEEbxydSA_NS0_14adl_serializerENS6_IhNSA_IhEEEEvEEEC2IJRA2_KcELi0EEEDpOT_, symObjAddr: 0x13A8C, symBinAddr: 0x100015488, symSize: 0x38 }
  - { offsetInCU: 0x5B519, offset: 0x5B519, size: 0x8, addend: 0x0, symName: __ZN8nlohmann16json_abi_v3_11_310basic_jsonINSt3__13mapENS2_6vectorENS2_12basic_stringIcNS2_11char_traitsIcEENS2_9allocatorIcEEEEbxydS8_NS0_14adl_serializerENS4_IhNS8_IhEEEEvEC1IRA2_KcA2_cLi0EEEOT_, symObjAddr: 0x13AC4, symBinAddr: 0x1000154C0, symSize: 0x34 }
  - { offsetInCU: 0x5B56A, offset: 0x5B56A, size: 0x8, addend: 0x0, symName: __ZN8nlohmann16json_abi_v3_11_310basic_jsonINSt3__13mapENS2_6vectorENS2_12basic_stringIcNS2_11char_traitsIcEENS2_9allocatorIcEEEEbxydS8_NS0_14adl_serializerENS4_IhNS8_IhEEEEvEC2IRA2_KcA2_cLi0EEEOT_, symObjAddr: 0x13AF8, symBinAddr: 0x1000154F4, symSize: 0x84 }
  - { offsetInCU: 0x5B5BB, offset: 0x5B5BB, size: 0x8, addend: 0x0, symName: __ZN8nlohmann16json_abi_v3_11_314adl_serializerIA2_cvE7to_jsonINS0_10basic_jsonINSt3__13mapENS6_6vectorENS6_12basic_stringIcNS6_11char_traitsIcEENS6_9allocatorIcEEEEbxydSC_S1_NS8_IhNSC_IhEEEEvEERA2_KcEEDTcmclL_ZNS0_7to_jsonEEfp_clsr3stdE7forwardIT0_Efp0_EEcvv_EERT_OSL_, symObjAddr: 0x13B7C, symBinAddr: 0x100015578, symSize: 0x34 }
  - { offsetInCU: 0x5B600, offset: 0x5B600, size: 0x8, addend: 0x0, symName: __ZNK8nlohmann16json_abi_v3_11_36detail10to_json_fnclINS0_10basic_jsonINSt3__13mapENS5_6vectorENS5_12basic_stringIcNS5_11char_traitsIcEENS5_9allocatorIcEEEEbxydSB_NS0_14adl_serializerENS7_IhNSB_IhEEEEvEERA2_KcEEDTcmcl7to_jsonfp_clsr3stdE7forwardIT0_Efp0_EEcvv_EERT_OSL_, symObjAddr: 0x13BB0, symBinAddr: 0x1000155AC, symSize: 0x30 }
  - { offsetInCU: 0x5B656, offset: 0x5B656, size: 0x8, addend: 0x0, symName: __ZN8nlohmann16json_abi_v3_11_36detail20external_constructorILNS1_7value_tE3EE9constructINS0_10basic_jsonINSt3__13mapENS7_6vectorENS7_12basic_stringIcNS7_11char_traitsIcEENS7_9allocatorIcEEEEbxydSD_NS0_14adl_serializerENS9_IhNSD_IhEEEEvEEA2_cLi0EEEvRT_RKT0_, symObjAddr: 0x13C0C, symBinAddr: 0x100015608, symSize: 0x60 }
  - { offsetInCU: 0x5B6A1, offset: 0x5B6A1, size: 0x8, addend: 0x0, symName: __ZN8nlohmann16json_abi_v3_11_310basic_jsonINSt3__13mapENS2_6vectorENS2_12basic_stringIcNS2_11char_traitsIcEENS2_9allocatorIcEEEEbxydS8_NS0_14adl_serializerENS4_IhNS8_IhEEEEvE6createISA_JRA2_KcEEEPT_DpOT0_, symObjAddr: 0x13C6C, symBinAddr: 0x100015668, symSize: 0xF4 }
  - { offsetInCU: 0x5B7A2, offset: 0x5B7A2, size: 0x8, addend: 0x0, symName: __ZNSt3__110unique_ptrINS_12basic_stringIcNS_11char_traitsIcEENS_9allocatorIcEEEEZN8nlohmann16json_abi_v3_11_310basic_jsonINS_3mapENS_6vectorES6_bxydS4_NS8_14adl_serializerENSB_IhNS4_IhEEEEvE6createIS6_JRA2_KcEEEPT_DpOT0_EUlPS6_E_EC1B8ue170006ILb1EvEESP_NS_16__dependent_typeINS_27__unique_ptr_deleter_sfinaeISQ_EEXT_EE15__lval_ref_typeE, symObjAddr: 0x13D60, symBinAddr: 0x10001575C, symSize: 0x3C }
  - { offsetInCU: 0x5B7F3, offset: 0x5B7F3, size: 0x8, addend: 0x0, symName: __ZNSt3__116allocator_traitsINS_9allocatorINS_12basic_stringIcNS_11char_traitsIcEENS1_IcEEEEEEE9constructB8ue170006IS6_JRA2_KcEvEEvRS7_PT_DpOT0_, symObjAddr: 0x13D9C, symBinAddr: 0x100015798, symSize: 0x34 }
  - { offsetInCU: 0x5B84A, offset: 0x5B84A, size: 0x8, addend: 0x0, symName: __ZNKSt3__110unique_ptrINS_12basic_stringIcNS_11char_traitsIcEENS_9allocatorIcEEEEZN8nlohmann16json_abi_v3_11_310basic_jsonINS_3mapENS_6vectorES6_bxydS4_NS8_14adl_serializerENSB_IhNS4_IhEEEEvE6createIS6_JRA2_KcEEEPT_DpOT0_EUlPS6_E_E3getB8ue170006Ev, symObjAddr: 0x13DD0, symBinAddr: 0x1000157CC, symSize: 0x28 }
  - { offsetInCU: 0x5B870, offset: 0x5B870, size: 0x8, addend: 0x0, symName: __ZNSt3__110unique_ptrINS_12basic_stringIcNS_11char_traitsIcEENS_9allocatorIcEEEEZN8nlohmann16json_abi_v3_11_310basic_jsonINS_3mapENS_6vectorES6_bxydS4_NS8_14adl_serializerENSB_IhNS4_IhEEEEvE6createIS6_JRA2_KcEEEPT_DpOT0_EUlPS6_E_E7releaseB8ue170006Ev, symObjAddr: 0x13E24, symBinAddr: 0x100015820, symSize: 0x44 }
  - { offsetInCU: 0x5B8A5, offset: 0x5B8A5, size: 0x8, addend: 0x0, symName: __ZNSt3__110unique_ptrINS_12basic_stringIcNS_11char_traitsIcEENS_9allocatorIcEEEEZN8nlohmann16json_abi_v3_11_310basic_jsonINS_3mapENS_6vectorES6_bxydS4_NS8_14adl_serializerENSB_IhNS4_IhEEEEvE6createIS6_JRA2_KcEEEPT_DpOT0_EUlPS6_E_ED1B8ue170006Ev, symObjAddr: 0x13E68, symBinAddr: 0x100015864, symSize: 0x2C }
  - { offsetInCU: 0x5B8CF, offset: 0x5B8CF, size: 0x8, addend: 0x0, symName: __ZNSt3__110unique_ptrINS_12basic_stringIcNS_11char_traitsIcEENS_9allocatorIcEEEEZN8nlohmann16json_abi_v3_11_310basic_jsonINS_3mapENS_6vectorES6_bxydS4_NS8_14adl_serializerENSB_IhNS4_IhEEEEvE6createIS6_JRA2_KcEEEPT_DpOT0_EUlPS6_E_EC2B8ue170006ILb1EvEESP_NS_16__dependent_typeINS_27__unique_ptr_deleter_sfinaeISQ_EEXT_EE15__lval_ref_typeE, symObjAddr: 0x13E94, symBinAddr: 0x100015890, symSize: 0x48 }
  - { offsetInCU: 0x5B920, offset: 0x5B920, size: 0x8, addend: 0x0, symName: __ZNSt3__117__compressed_pairIPNS_12basic_stringIcNS_11char_traitsIcEENS_9allocatorIcEEEEZN8nlohmann16json_abi_v3_11_310basic_jsonINS_3mapENS_6vectorES6_bxydS4_NS9_14adl_serializerENSC_IhNS4_IhEEEEvE6createIS6_JRA2_KcEEEPT_DpOT0_EUlS7_E_EC1B8ue170006IRS7_RKSQ_EEOSL_OT0_, symObjAddr: 0x13EDC, symBinAddr: 0x1000158D8, symSize: 0x3C }
  - { offsetInCU: 0x5B978, offset: 0x5B978, size: 0x8, addend: 0x0, symName: __ZNSt3__117__compressed_pairIPNS_12basic_stringIcNS_11char_traitsIcEENS_9allocatorIcEEEEZN8nlohmann16json_abi_v3_11_310basic_jsonINS_3mapENS_6vectorES6_bxydS4_NS9_14adl_serializerENSC_IhNS4_IhEEEEvE6createIS6_JRA2_KcEEEPT_DpOT0_EUlS7_E_EC2B8ue170006IRS7_RKSQ_EEOSL_OT0_, symObjAddr: 0x13F18, symBinAddr: 0x100015914, symSize: 0x48 }
  - { offsetInCU: 0x5B9D0, offset: 0x5B9D0, size: 0x8, addend: 0x0, symName: __ZNSt3__122__compressed_pair_elemIZN8nlohmann16json_abi_v3_11_310basic_jsonINS_3mapENS_6vectorENS_12basic_stringIcNS_11char_traitsIcEENS_9allocatorIcEEEEbxydS9_NS2_14adl_serializerENS5_IhNS9_IhEEEEvE6createISB_JRA2_KcEEEPT_DpOT0_EUlPSB_E_Li1ELb0EEC2B8ue170006IRKSQ_vEEOSK_, symObjAddr: 0x13F60, symBinAddr: 0x10001595C, symSize: 0x24 }
  - { offsetInCU: 0x5BA12, offset: 0x5BA12, size: 0x8, addend: 0x0, symName: __ZNSt3__19allocatorINS_12basic_stringIcNS_11char_traitsIcEENS0_IcEEEEE9constructB8ue170006IS5_JRA2_KcEEEvPT_DpOT0_, symObjAddr: 0x13F84, symBinAddr: 0x100015980, symSize: 0x30 }
  - { offsetInCU: 0x5BA68, offset: 0x5BA68, size: 0x8, addend: 0x0, symName: __ZNKSt3__117__compressed_pairIPNS_12basic_stringIcNS_11char_traitsIcEENS_9allocatorIcEEEEZN8nlohmann16json_abi_v3_11_310basic_jsonINS_3mapENS_6vectorES6_bxydS4_NS9_14adl_serializerENSC_IhNS4_IhEEEEvE6createIS6_JRA2_KcEEEPT_DpOT0_EUlS7_E_E5firstB8ue170006Ev, symObjAddr: 0x13FB4, symBinAddr: 0x1000159B0, symSize: 0x24 }
  - { offsetInCU: 0x5BA8E, offset: 0x5BA8E, size: 0x8, addend: 0x0, symName: __ZNKSt3__110unique_ptrINS_12basic_stringIcNS_11char_traitsIcEENS_9allocatorIcEEEEZN8nlohmann16json_abi_v3_11_310basic_jsonINS_3mapENS_6vectorES6_bxydS4_NS8_14adl_serializerENSB_IhNS4_IhEEEEvE6createIS6_JRA2_KcEEEPT_DpOT0_EUlPS6_E_EcvbB8ue170006Ev, symObjAddr: 0x13FD8, symBinAddr: 0x1000159D4, symSize: 0x34 }
  - { offsetInCU: 0x5BAB4, offset: 0x5BAB4, size: 0x8, addend: 0x0, symName: __ZNSt3__117__compressed_pairIPNS_12basic_stringIcNS_11char_traitsIcEENS_9allocatorIcEEEEZN8nlohmann16json_abi_v3_11_310basic_jsonINS_3mapENS_6vectorES6_bxydS4_NS9_14adl_serializerENSC_IhNS4_IhEEEEvE6createIS6_JRA2_KcEEEPT_DpOT0_EUlS7_E_E5firstB8ue170006Ev, symObjAddr: 0x1400C, symBinAddr: 0x100015A08, symSize: 0x24 }
  - { offsetInCU: 0x5BADA, offset: 0x5BADA, size: 0x8, addend: 0x0, symName: __ZNSt3__110unique_ptrINS_12basic_stringIcNS_11char_traitsIcEENS_9allocatorIcEEEEZN8nlohmann16json_abi_v3_11_310basic_jsonINS_3mapENS_6vectorES6_bxydS4_NS8_14adl_serializerENSB_IhNS4_IhEEEEvE6createIS6_JRA2_KcEEEPT_DpOT0_EUlPS6_E_ED2B8ue170006Ev, symObjAddr: 0x14030, symBinAddr: 0x100015A2C, symSize: 0x30 }
  - { offsetInCU: 0x5BB04, offset: 0x5BB04, size: 0x8, addend: 0x0, symName: __ZNSt3__110unique_ptrINS_12basic_stringIcNS_11char_traitsIcEENS_9allocatorIcEEEEZN8nlohmann16json_abi_v3_11_310basic_jsonINS_3mapENS_6vectorES6_bxydS4_NS8_14adl_serializerENSB_IhNS4_IhEEEEvE6createIS6_JRA2_KcEEEPT_DpOT0_EUlPS6_E_E5resetB8ue170006ESP_, symObjAddr: 0x14060, symBinAddr: 0x100015A5C, symSize: 0x80 }
  - { offsetInCU: 0x5BB48, offset: 0x5BB48, size: 0x8, addend: 0x0, symName: __ZNSt3__117__compressed_pairIPNS_12basic_stringIcNS_11char_traitsIcEENS_9allocatorIcEEEEZN8nlohmann16json_abi_v3_11_310basic_jsonINS_3mapENS_6vectorES6_bxydS4_NS9_14adl_serializerENSC_IhNS4_IhEEEEvE6createIS6_JRA2_KcEEEPT_DpOT0_EUlS7_E_E6secondB8ue170006Ev, symObjAddr: 0x140E0, symBinAddr: 0x100015ADC, symSize: 0x28 }
  - { offsetInCU: 0x5BB74, offset: 0x5BB74, size: 0x8, addend: 0x0, symName: __ZZN8nlohmann16json_abi_v3_11_310basic_jsonINSt3__13mapENS2_6vectorENS2_12basic_stringIcNS2_11char_traitsIcEENS2_9allocatorIcEEEEbxydS8_NS0_14adl_serializerENS4_IhNS8_IhEEEEvE6createISA_JRA2_KcEEEPT_DpOT0_ENKUlPSA_E_clESO_, symObjAddr: 0x14108, symBinAddr: 0x100015B04, symSize: 0x34 }
  - { offsetInCU: 0x5BBAD, offset: 0x5BBAD, size: 0x8, addend: 0x0, symName: __ZNSt3__122__compressed_pair_elemIZN8nlohmann16json_abi_v3_11_310basic_jsonINS_3mapENS_6vectorENS_12basic_stringIcNS_11char_traitsIcEENS_9allocatorIcEEEEbxydS9_NS2_14adl_serializerENS5_IhNS9_IhEEEEvE6createISB_JRA2_KcEEEPT_DpOT0_EUlPSB_E_Li1ELb0EE5__getB8ue170006Ev, symObjAddr: 0x1413C, symBinAddr: 0x100015B38, symSize: 0x14 }
  - { offsetInCU: 0x5BBD3, offset: 0x5BBD3, size: 0x8, addend: 0x0, symName: __ZN8nlohmann16json_abi_v3_11_36detail8json_refINS0_10basic_jsonINSt3__13mapENS4_6vectorENS4_12basic_stringIcNS4_11char_traitsIcEENS4_9allocatorIcEEEEbxydSA_NS0_14adl_serializerENS6_IhNSA_IhEEEEvEEEC2IJRKNS6_IdNSA_IdEEEEELi0EEEDpOT_, symObjAddr: 0x14150, symBinAddr: 0x100015B4C, symSize: 0x38 }
  - { offsetInCU: 0x5BC1D, offset: 0x5BC1D, size: 0x8, addend: 0x0, symName: __ZN8nlohmann16json_abi_v3_11_310basic_jsonINSt3__13mapENS2_6vectorENS2_12basic_stringIcNS2_11char_traitsIcEENS2_9allocatorIcEEEEbxydS8_NS0_14adl_serializerENS4_IhNS8_IhEEEEvEC1IRKNS4_IdNS8_IdEEEESH_Li0EEEOT_, symObjAddr: 0x14188, symBinAddr: 0x100015B84, symSize: 0x34 }
  - { offsetInCU: 0x5BC6E, offset: 0x5BC6E, size: 0x8, addend: 0x0, symName: __ZN8nlohmann16json_abi_v3_11_310basic_jsonINSt3__13mapENS2_6vectorENS2_12basic_stringIcNS2_11char_traitsIcEENS2_9allocatorIcEEEEbxydS8_NS0_14adl_serializerENS4_IhNS8_IhEEEEvEC2IRKNS4_IdNS8_IdEEEESH_Li0EEEOT_, symObjAddr: 0x141BC, symBinAddr: 0x100015BB8, symSize: 0x84 }
  - { offsetInCU: 0x5BCBF, offset: 0x5BCBF, size: 0x8, addend: 0x0, symName: __ZN8nlohmann16json_abi_v3_11_314adl_serializerINSt3__16vectorIdNS2_9allocatorIdEEEEvE7to_jsonINS0_10basic_jsonINS2_3mapES3_NS2_12basic_stringIcNS2_11char_traitsIcEENS4_IcEEEEbxydS4_S1_NS3_IhNS4_IhEEEEvEERKS6_EEDTcmclL_ZNS0_7to_jsonEEfp_clsr3stdE7forwardIT0_Efp0_EEcvv_EERT_OSL_, symObjAddr: 0x14240, symBinAddr: 0x100015C3C, symSize: 0x34 }
  - { offsetInCU: 0x5BD04, offset: 0x5BD04, size: 0x8, addend: 0x0, symName: __ZNK8nlohmann16json_abi_v3_11_36detail10to_json_fnclINS0_10basic_jsonINSt3__13mapENS5_6vectorENS5_12basic_stringIcNS5_11char_traitsIcEENS5_9allocatorIcEEEEbxydSB_NS0_14adl_serializerENS7_IhNSB_IhEEEEvEERKNS7_IdNSB_IdEEEEEEDTcmcl7to_jsonfp_clsr3stdE7forwardIT0_Efp0_EEcvv_EERT_OSM_, symObjAddr: 0x14274, symBinAddr: 0x100015C70, symSize: 0x30 }
  - { offsetInCU: 0x5BD5A, offset: 0x5BD5A, size: 0x8, addend: 0x0, symName: __ZN8nlohmann16json_abi_v3_11_36detail20external_constructorILNS1_7value_tE2EE9constructINS0_10basic_jsonINSt3__13mapENS7_6vectorENS7_12basic_stringIcNS7_11char_traitsIcEENS7_9allocatorIcEEEEbxydSD_NS0_14adl_serializerENS9_IhNSD_IhEEEEvEENS9_IdNSD_IdEEEELi0EEEvRT_RKT0_, symObjAddr: 0x142D0, symBinAddr: 0x100015CCC, symSize: 0x90 }
  - { offsetInCU: 0x5BDAB, offset: 0x5BDAB, size: 0x8, addend: 0x0, symName: __ZN8nlohmann16json_abi_v3_11_310basic_jsonINSt3__13mapENS2_6vectorENS2_12basic_stringIcNS2_11char_traitsIcEENS2_9allocatorIcEEEEbxydS8_NS0_14adl_serializerENS4_IhNS8_IhEEEEvE6createINS4_ISE_NS8_ISE_EEEEJNS2_11__wrap_iterIPKdEESL_EEEPT_DpOT0_, symObjAddr: 0x14360, symBinAddr: 0x100015D5C, symSize: 0xFC }
  - { offsetInCU: 0x5BE4D, offset: 0x5BE4D, size: 0x8, addend: 0x0, symName: __ZNSt3__116allocator_traitsINS_9allocatorINS_6vectorIN8nlohmann16json_abi_v3_11_310basic_jsonINS_3mapES2_NS_12basic_stringIcNS_11char_traitsIcEENS1_IcEEEEbxydS1_NS4_14adl_serializerENS2_IhNS1_IhEEEEvEENS1_ISF_EEEEEEE8allocateB8ue170006ERSI_m, symObjAddr: 0x144B4, symBinAddr: 0x100015EB0, symSize: 0x2C }
  - { offsetInCU: 0x5BF21, offset: 0x5BF21, size: 0x8, addend: 0x0, symName: __ZNSt3__110unique_ptrINS_6vectorIN8nlohmann16json_abi_v3_11_310basic_jsonINS_3mapES1_NS_12basic_stringIcNS_11char_traitsIcEENS_9allocatorIcEEEEbxydS9_NS3_14adl_serializerENS1_IhNS9_IhEEEEvEENS9_ISF_EEEEZNSF_6createISH_JNS_11__wrap_iterIPKdEESM_EEEPT_DpOT0_EUlPSH_E_EC1B8ue170006ILb1EvEESS_NS_16__dependent_typeINS_27__unique_ptr_deleter_sfinaeIST_EEXT_EE15__lval_ref_typeE, symObjAddr: 0x144E0, symBinAddr: 0x100015EDC, symSize: 0x3C }
  - { offsetInCU: 0x5BF72, offset: 0x5BF72, size: 0x8, addend: 0x0, symName: __ZNSt3__116allocator_traitsINS_9allocatorINS_6vectorIN8nlohmann16json_abi_v3_11_310basic_jsonINS_3mapES2_NS_12basic_stringIcNS_11char_traitsIcEENS1_IcEEEEbxydS1_NS4_14adl_serializerENS2_IhNS1_IhEEEEvEENS1_ISF_EEEEEEE9constructB8ue170006ISH_JNS_11__wrap_iterIPKdEESO_EvEEvRSI_PT_DpOT0_, symObjAddr: 0x1451C, symBinAddr: 0x100015F18, symSize: 0x3C }
  - { offsetInCU: 0x5BFDD, offset: 0x5BFDD, size: 0x8, addend: 0x0, symName: __ZNKSt3__110unique_ptrINS_6vectorIN8nlohmann16json_abi_v3_11_310basic_jsonINS_3mapES1_NS_12basic_stringIcNS_11char_traitsIcEENS_9allocatorIcEEEEbxydS9_NS3_14adl_serializerENS1_IhNS9_IhEEEEvEENS9_ISF_EEEEZNSF_6createISH_JNS_11__wrap_iterIPKdEESM_EEEPT_DpOT0_EUlPSH_E_E3getB8ue170006Ev, symObjAddr: 0x14558, symBinAddr: 0x100015F54, symSize: 0x28 }
  - { offsetInCU: 0x5C003, offset: 0x5C003, size: 0x8, addend: 0x0, symName: __ZNSt3__110unique_ptrINS_6vectorIN8nlohmann16json_abi_v3_11_310basic_jsonINS_3mapES1_NS_12basic_stringIcNS_11char_traitsIcEENS_9allocatorIcEEEEbxydS9_NS3_14adl_serializerENS1_IhNS9_IhEEEEvEENS9_ISF_EEEEZNSF_6createISH_JNS_11__wrap_iterIPKdEESM_EEEPT_DpOT0_EUlPSH_E_E7releaseB8ue170006Ev, symObjAddr: 0x145AC, symBinAddr: 0x100015FA8, symSize: 0x44 }
  - { offsetInCU: 0x5C038, offset: 0x5C038, size: 0x8, addend: 0x0, symName: __ZNSt3__110unique_ptrINS_6vectorIN8nlohmann16json_abi_v3_11_310basic_jsonINS_3mapES1_NS_12basic_stringIcNS_11char_traitsIcEENS_9allocatorIcEEEEbxydS9_NS3_14adl_serializerENS1_IhNS9_IhEEEEvEENS9_ISF_EEEEZNSF_6createISH_JNS_11__wrap_iterIPKdEESM_EEEPT_DpOT0_EUlPSH_E_ED1B8ue170006Ev, symObjAddr: 0x145F0, symBinAddr: 0x100015FEC, symSize: 0x2C }
  - { offsetInCU: 0x5C062, offset: 0x5C062, size: 0x8, addend: 0x0, symName: __ZNSt3__19allocatorINS_6vectorIN8nlohmann16json_abi_v3_11_310basic_jsonINS_3mapES1_NS_12basic_stringIcNS_11char_traitsIcEENS0_IcEEEEbxydS0_NS3_14adl_serializerENS1_IhNS0_IhEEEEvEENS0_ISE_EEEEE8allocateB8ue170006Em, symObjAddr: 0x1461C, symBinAddr: 0x100016018, symSize: 0x5C }
  - { offsetInCU: 0x5C0A1, offset: 0x5C0A1, size: 0x8, addend: 0x0, symName: __ZNSt3__116allocator_traitsINS_9allocatorINS_6vectorIN8nlohmann16json_abi_v3_11_310basic_jsonINS_3mapES2_NS_12basic_stringIcNS_11char_traitsIcEENS1_IcEEEEbxydS1_NS4_14adl_serializerENS2_IhNS1_IhEEEEvEENS1_ISF_EEEEEEE8max_sizeB8ue170006ISI_vEEmRKSI_, symObjAddr: 0x14678, symBinAddr: 0x100016074, symSize: 0x24 }
  - { offsetInCU: 0x5C0CF, offset: 0x5C0CF, size: 0x8, addend: 0x0, symName: __ZNKSt3__19allocatorINS_6vectorIN8nlohmann16json_abi_v3_11_310basic_jsonINS_3mapES1_NS_12basic_stringIcNS_11char_traitsIcEENS0_IcEEEEbxydS0_NS3_14adl_serializerENS1_IhNS0_IhEEEEvEENS0_ISE_EEEEE8max_sizeB8ue170006Ev, symObjAddr: 0x1469C, symBinAddr: 0x100016098, symSize: 0x18 }
  - { offsetInCU: 0x5C0F5, offset: 0x5C0F5, size: 0x8, addend: 0x0, symName: __ZNSt3__110unique_ptrINS_6vectorIN8nlohmann16json_abi_v3_11_310basic_jsonINS_3mapES1_NS_12basic_stringIcNS_11char_traitsIcEENS_9allocatorIcEEEEbxydS9_NS3_14adl_serializerENS1_IhNS9_IhEEEEvEENS9_ISF_EEEEZNSF_6createISH_JNS_11__wrap_iterIPKdEESM_EEEPT_DpOT0_EUlPSH_E_EC2B8ue170006ILb1EvEESS_NS_16__dependent_typeINS_27__unique_ptr_deleter_sfinaeIST_EEXT_EE15__lval_ref_typeE, symObjAddr: 0x146B4, symBinAddr: 0x1000160B0, symSize: 0x48 }
  - { offsetInCU: 0x5C146, offset: 0x5C146, size: 0x8, addend: 0x0, symName: __ZNSt3__117__compressed_pairIPNS_6vectorIN8nlohmann16json_abi_v3_11_310basic_jsonINS_3mapES1_NS_12basic_stringIcNS_11char_traitsIcEENS_9allocatorIcEEEEbxydS9_NS3_14adl_serializerENS1_IhNS9_IhEEEEvEENS9_ISF_EEEEZNSF_6createISH_JNS_11__wrap_iterIPKdEESN_EEEPT_DpOT0_EUlSI_E_EC1B8ue170006IRSI_RKST_EEOSO_OT0_, symObjAddr: 0x146FC, symBinAddr: 0x1000160F8, symSize: 0x3C }
  - { offsetInCU: 0x5C19E, offset: 0x5C19E, size: 0x8, addend: 0x0, symName: __ZNSt3__117__compressed_pairIPNS_6vectorIN8nlohmann16json_abi_v3_11_310basic_jsonINS_3mapES1_NS_12basic_stringIcNS_11char_traitsIcEENS_9allocatorIcEEEEbxydS9_NS3_14adl_serializerENS1_IhNS9_IhEEEEvEENS9_ISF_EEEEZNSF_6createISH_JNS_11__wrap_iterIPKdEESN_EEEPT_DpOT0_EUlSI_E_EC2B8ue170006IRSI_RKST_EEOSO_OT0_, symObjAddr: 0x14738, symBinAddr: 0x100016134, symSize: 0x48 }
  - { offsetInCU: 0x5C1F6, offset: 0x5C1F6, size: 0x8, addend: 0x0, symName: __ZNSt3__122__compressed_pair_elemIPNS_6vectorIN8nlohmann16json_abi_v3_11_310basic_jsonINS_3mapES1_NS_12basic_stringIcNS_11char_traitsIcEENS_9allocatorIcEEEEbxydS9_NS3_14adl_serializerENS1_IhNS9_IhEEEEvEENS9_ISF_EEEELi0ELb0EEC2B8ue170006IRSI_vEEOT_, symObjAddr: 0x14780, symBinAddr: 0x10001617C, symSize: 0x24 }
  - { offsetInCU: 0x5C238, offset: 0x5C238, size: 0x8, addend: 0x0, symName: __ZNSt3__122__compressed_pair_elemIZN8nlohmann16json_abi_v3_11_310basic_jsonINS_3mapENS_6vectorENS_12basic_stringIcNS_11char_traitsIcEENS_9allocatorIcEEEEbxydS9_NS2_14adl_serializerENS5_IhNS9_IhEEEEvE6createINS5_ISF_NS9_ISF_EEEEJNS_11__wrap_iterIPKdEESM_EEEPT_DpOT0_EUlPSI_E_Li1ELb0EEC2B8ue170006IRKST_vEEOSN_, symObjAddr: 0x147A4, symBinAddr: 0x1000161A0, symSize: 0x24 }
  - { offsetInCU: 0x5C27A, offset: 0x5C27A, size: 0x8, addend: 0x0, symName: __ZNSt3__19allocatorINS_6vectorIN8nlohmann16json_abi_v3_11_310basic_jsonINS_3mapES1_NS_12basic_stringIcNS_11char_traitsIcEENS0_IcEEEEbxydS0_NS3_14adl_serializerENS1_IhNS0_IhEEEEvEENS0_ISE_EEEEE9constructB8ue170006ISG_JNS_11__wrap_iterIPKdEESM_EEEvPT_DpOT0_, symObjAddr: 0x147C8, symBinAddr: 0x1000161C4, symSize: 0x50 }
  - { offsetInCU: 0x5C2E3, offset: 0x5C2E3, size: 0x8, addend: 0x0, symName: __ZNSt3__16vectorIN8nlohmann16json_abi_v3_11_310basic_jsonINS_3mapES0_NS_12basic_stringIcNS_11char_traitsIcEENS_9allocatorIcEEEEbxydS8_NS2_14adl_serializerENS0_IhNS8_IhEEEEvEENS8_ISE_EEEC1INS_11__wrap_iterIPKdEELi0EEET_SM_, symObjAddr: 0x14818, symBinAddr: 0x100016214, symSize: 0x3C }
  - { offsetInCU: 0x5C33C, offset: 0x5C33C, size: 0x8, addend: 0x0, symName: __ZNSt3__16vectorIN8nlohmann16json_abi_v3_11_310basic_jsonINS_3mapES0_NS_12basic_stringIcNS_11char_traitsIcEENS_9allocatorIcEEEEbxydS8_NS2_14adl_serializerENS0_IhNS8_IhEEEEvEENS8_ISE_EEEC2INS_11__wrap_iterIPKdEELi0EEET_SM_, symObjAddr: 0x14854, symBinAddr: 0x100016250, symSize: 0x94 }
  - { offsetInCU: 0x5C3B3, offset: 0x5C3B3, size: 0x8, addend: 0x0, symName: __ZNSt3__16vectorIN8nlohmann16json_abi_v3_11_310basic_jsonINS_3mapES0_NS_12basic_stringIcNS_11char_traitsIcEENS_9allocatorIcEEEEbxydS8_NS2_14adl_serializerENS0_IhNS8_IhEEEEvEENS8_ISE_EEE16__init_with_sizeB8ue170006INS_11__wrap_iterIPKdEESL_EEvT_T0_m, symObjAddr: 0x14924, symBinAddr: 0x100016320, symSize: 0xC8 }
  - { offsetInCU: 0x5C427, offset: 0x5C427, size: 0x8, addend: 0x0, symName: __ZNKSt3__111__wrap_iterIPKdE4baseB8ue170006Ev, symObjAddr: 0x14A64, symBinAddr: 0x100016460, symSize: 0x18 }
  - { offsetInCU: 0x5C44D, offset: 0x5C44D, size: 0x8, addend: 0x0, symName: __ZNSt3__16vectorIN8nlohmann16json_abi_v3_11_310basic_jsonINS_3mapES0_NS_12basic_stringIcNS_11char_traitsIcEENS_9allocatorIcEEEEbxydS8_NS2_14adl_serializerENS0_IhNS8_IhEEEEvEENS8_ISE_EEE11__vallocateB8ue170006Em, symObjAddr: 0x14ABC, symBinAddr: 0x1000164B8, symSize: 0xAC }
  - { offsetInCU: 0x5C491, offset: 0x5C491, size: 0x8, addend: 0x0, symName: __ZNSt3__16vectorIN8nlohmann16json_abi_v3_11_310basic_jsonINS_3mapES0_NS_12basic_stringIcNS_11char_traitsIcEENS_9allocatorIcEEEEbxydS8_NS2_14adl_serializerENS0_IhNS8_IhEEEEvEENS8_ISE_EEE18__construct_at_endINS_11__wrap_iterIPKdEESL_EEvT_T0_m, symObjAddr: 0x14B68, symBinAddr: 0x100016564, symSize: 0x9C }
  - { offsetInCU: 0x5C507, offset: 0x5C507, size: 0x8, addend: 0x0, symName: __ZNSt3__128__exception_guard_exceptionsINS_6vectorIN8nlohmann16json_abi_v3_11_310basic_jsonINS_3mapES1_NS_12basic_stringIcNS_11char_traitsIcEENS_9allocatorIcEEEEbxydS9_NS3_14adl_serializerENS1_IhNS9_IhEEEEvEENS9_ISF_EEE16__destroy_vectorEE10__completeB8ue170006Ev, symObjAddr: 0x14C04, symBinAddr: 0x100016600, symSize: 0x1C }
  - { offsetInCU: 0x5C52D, offset: 0x5C52D, size: 0x8, addend: 0x0, symName: __ZNSt3__128__exception_guard_exceptionsINS_6vectorIN8nlohmann16json_abi_v3_11_310basic_jsonINS_3mapES1_NS_12basic_stringIcNS_11char_traitsIcEENS_9allocatorIcEEEEbxydS9_NS3_14adl_serializerENS1_IhNS9_IhEEEEvEENS9_ISF_EEE16__destroy_vectorEED1B8ue170006Ev, symObjAddr: 0x14C20, symBinAddr: 0x10001661C, symSize: 0x2C }
  - { offsetInCU: 0x5C557, offset: 0x5C557, size: 0x8, addend: 0x0, symName: __ZNSt3__128__exception_guard_exceptionsINS_6vectorIN8nlohmann16json_abi_v3_11_310basic_jsonINS_3mapES1_NS_12basic_stringIcNS_11char_traitsIcEENS_9allocatorIcEEEEbxydS9_NS3_14adl_serializerENS1_IhNS9_IhEEEEvEENS9_ISF_EEE16__destroy_vectorEEC1B8ue170006ESI_, symObjAddr: 0x14C4C, symBinAddr: 0x100016648, symSize: 0x34 }
  - { offsetInCU: 0x5C58F, offset: 0x5C58F, size: 0x8, addend: 0x0, symName: __ZNSt3__128__exception_guard_exceptionsINS_6vectorIN8nlohmann16json_abi_v3_11_310basic_jsonINS_3mapES1_NS_12basic_stringIcNS_11char_traitsIcEENS_9allocatorIcEEEEbxydS9_NS3_14adl_serializerENS1_IhNS9_IhEEEEvEENS9_ISF_EEE16__destroy_vectorEEC2B8ue170006ESI_, symObjAddr: 0x14C80, symBinAddr: 0x10001667C, symSize: 0x24 }
  - { offsetInCU: 0x5C5EA, offset: 0x5C5EA, size: 0x8, addend: 0x0, symName: __ZNSt3__14pairIPKdS2_EC1B8ue170006IS2_S2_LPv0EEEOT_OT0_, symObjAddr: 0x14F5C, symBinAddr: 0x100016958, symSize: 0x3C }
  - { offsetInCU: 0x5C648, offset: 0x5C648, size: 0x8, addend: 0x0, symName: __ZNSt3__14pairIPKdS2_EC2B8ue170006IS2_S2_LPv0EEEOT_OT0_, symObjAddr: 0x14F98, symBinAddr: 0x100016994, symSize: 0x34 }
  - { offsetInCU: 0x5C6A6, offset: 0x5C6A6, size: 0x8, addend: 0x0, symName: __ZNSt3__118__unwrap_iter_implINS_11__wrap_iterIPKdEELb1EE8__unwrapB8ue170006ES4_, symObjAddr: 0x14FCC, symBinAddr: 0x1000169C8, symSize: 0x28 }
  - { offsetInCU: 0x5C6D5, offset: 0x5C6D5, size: 0x8, addend: 0x0, symName: __ZNSt3__119__to_address_helperINS_11__wrap_iterIPKdEEvE6__callB8ue170006ERKS4_, symObjAddr: 0x15018, symBinAddr: 0x100016A14, symSize: 0x30 }
  - { offsetInCU: 0x5C6F8, offset: 0x5C6F8, size: 0x8, addend: 0x0, symName: __ZNSt3__114pointer_traitsINS_11__wrap_iterIPKdEEE10to_addressB8ue170006ES4_, symObjAddr: 0x15048, symBinAddr: 0x100016A44, symSize: 0x2C }
  - { offsetInCU: 0x5C71B, offset: 0x5C71B, size: 0x8, addend: 0x0, symName: __ZNSt3__129_AllocatorDestroyRangeReverseINS_9allocatorIN8nlohmann16json_abi_v3_11_310basic_jsonINS_3mapENS_6vectorENS_12basic_stringIcNS_11char_traitsIcEENS1_IcEEEEbxydS1_NS3_14adl_serializerENS6_IhNS1_IhEEEEvEEEEPSF_EC1B8ue170006ERSG_RSH_SK_, symObjAddr: 0x150D4, symBinAddr: 0x100016AD0, symSize: 0x44 }
  - { offsetInCU: 0x5C772, offset: 0x5C772, size: 0x8, addend: 0x0, symName: __ZNSt3__116allocator_traitsINS_9allocatorIN8nlohmann16json_abi_v3_11_310basic_jsonINS_3mapENS_6vectorENS_12basic_stringIcNS_11char_traitsIcEENS1_IcEEEEbxydS1_NS3_14adl_serializerENS6_IhNS1_IhEEEEvEEEEE9constructB8ue170006ISF_JRKdEvEEvRSG_PT_DpOT0_, symObjAddr: 0x15118, symBinAddr: 0x100016B14, symSize: 0x34 }
  - { offsetInCU: 0x5C7C9, offset: 0x5C7C9, size: 0x8, addend: 0x0, symName: __ZNSt3__128__exception_guard_exceptionsINS_29_AllocatorDestroyRangeReverseINS_9allocatorIN8nlohmann16json_abi_v3_11_310basic_jsonINS_3mapENS_6vectorENS_12basic_stringIcNS_11char_traitsIcEENS2_IcEEEEbxydS2_NS4_14adl_serializerENS7_IhNS2_IhEEEEvEEEEPSG_EEE10__completeB8ue170006Ev, symObjAddr: 0x1514C, symBinAddr: 0x100016B48, symSize: 0x1C }
  - { offsetInCU: 0x5C7EF, offset: 0x5C7EF, size: 0x8, addend: 0x0, symName: __ZNSt3__128__exception_guard_exceptionsINS_29_AllocatorDestroyRangeReverseINS_9allocatorIN8nlohmann16json_abi_v3_11_310basic_jsonINS_3mapENS_6vectorENS_12basic_stringIcNS_11char_traitsIcEENS2_IcEEEEbxydS2_NS4_14adl_serializerENS7_IhNS2_IhEEEEvEEEEPSG_EEED1B8ue170006Ev, symObjAddr: 0x15168, symBinAddr: 0x100016B64, symSize: 0x2C }
  - { offsetInCU: 0x5C819, offset: 0x5C819, size: 0x8, addend: 0x0, symName: __ZNSt3__128__exception_guard_exceptionsINS_29_AllocatorDestroyRangeReverseINS_9allocatorIN8nlohmann16json_abi_v3_11_310basic_jsonINS_3mapENS_6vectorENS_12basic_stringIcNS_11char_traitsIcEENS2_IcEEEEbxydS2_NS4_14adl_serializerENS7_IhNS2_IhEEEEvEEEEPSG_EEEC1B8ue170006ESJ_, symObjAddr: 0x15194, symBinAddr: 0x100016B90, symSize: 0x34 }
  - { offsetInCU: 0x5C852, offset: 0x5C852, size: 0x8, addend: 0x0, symName: __ZNSt3__128__exception_guard_exceptionsINS_29_AllocatorDestroyRangeReverseINS_9allocatorIN8nlohmann16json_abi_v3_11_310basic_jsonINS_3mapENS_6vectorENS_12basic_stringIcNS_11char_traitsIcEENS2_IcEEEEbxydS2_NS4_14adl_serializerENS7_IhNS2_IhEEEEvEEEEPSG_EEEC2B8ue170006ESJ_, symObjAddr: 0x151C8, symBinAddr: 0x100016BC4, symSize: 0x30 }
  - { offsetInCU: 0x5C88B, offset: 0x5C88B, size: 0x8, addend: 0x0, symName: __ZNSt3__129_AllocatorDestroyRangeReverseINS_9allocatorIN8nlohmann16json_abi_v3_11_310basic_jsonINS_3mapENS_6vectorENS_12basic_stringIcNS_11char_traitsIcEENS1_IcEEEEbxydS1_NS3_14adl_serializerENS6_IhNS1_IhEEEEvEEEEPSF_EC2B8ue170006ERSG_RSH_SK_, symObjAddr: 0x151F8, symBinAddr: 0x100016BF4, symSize: 0x38 }
  - { offsetInCU: 0x5C8E2, offset: 0x5C8E2, size: 0x8, addend: 0x0, symName: __ZNSt3__19allocatorIN8nlohmann16json_abi_v3_11_310basic_jsonINS_3mapENS_6vectorENS_12basic_stringIcNS_11char_traitsIcEENS0_IcEEEEbxydS0_NS2_14adl_serializerENS5_IhNS0_IhEEEEvEEE9constructB8ue170006ISE_JRKdEEEvPT_DpOT0_, symObjAddr: 0x15230, symBinAddr: 0x100016C2C, symSize: 0x30 }
  - { offsetInCU: 0x5C938, offset: 0x5C938, size: 0x8, addend: 0x0, symName: __ZN8nlohmann16json_abi_v3_11_310basic_jsonINSt3__13mapENS2_6vectorENS2_12basic_stringIcNS2_11char_traitsIcEENS2_9allocatorIcEEEEbxydS8_NS0_14adl_serializerENS4_IhNS8_IhEEEEvEC1IRKddLi0EEEOT_, symObjAddr: 0x15260, symBinAddr: 0x100016C5C, symSize: 0x34 }
  - { offsetInCU: 0x5C989, offset: 0x5C989, size: 0x8, addend: 0x0, symName: __ZN8nlohmann16json_abi_v3_11_310basic_jsonINSt3__13mapENS2_6vectorENS2_12basic_stringIcNS2_11char_traitsIcEENS2_9allocatorIcEEEEbxydS8_NS0_14adl_serializerENS4_IhNS8_IhEEEEvEC2IRKddLi0EEEOT_, symObjAddr: 0x15294, symBinAddr: 0x100016C90, symSize: 0x5C }
  - { offsetInCU: 0x5C9DA, offset: 0x5C9DA, size: 0x8, addend: 0x0, symName: __ZN8nlohmann16json_abi_v3_11_314adl_serializerIdvE7to_jsonINS0_10basic_jsonINSt3__13mapENS5_6vectorENS5_12basic_stringIcNS5_11char_traitsIcEENS5_9allocatorIcEEEEbxydSB_S1_NS7_IhNSB_IhEEEEvEERKdEEDTcmclL_ZNS0_7to_jsonEEfp_clsr3stdE7forwardIT0_Efp0_EEcvv_EERT_OSJ_, symObjAddr: 0x152F0, symBinAddr: 0x100016CEC, symSize: 0x34 }
  - { offsetInCU: 0x5CA1F, offset: 0x5CA1F, size: 0x8, addend: 0x0, symName: __ZNK8nlohmann16json_abi_v3_11_36detail10to_json_fnclINS0_10basic_jsonINSt3__13mapENS5_6vectorENS5_12basic_stringIcNS5_11char_traitsIcEENS5_9allocatorIcEEEEbxydSB_NS0_14adl_serializerENS7_IhNSB_IhEEEEvEERKdEEDTcmcl7to_jsonfp_clsr3stdE7forwardIT0_Efp0_EEcvv_EERT_OSK_, symObjAddr: 0x15324, symBinAddr: 0x100016D20, symSize: 0x34 }
  - { offsetInCU: 0x5CA75, offset: 0x5CA75, size: 0x8, addend: 0x0, symName: __ZN8nlohmann16json_abi_v3_11_36detail20external_constructorILNS1_7value_tE7EE9constructINS0_10basic_jsonINSt3__13mapENS7_6vectorENS7_12basic_stringIcNS7_11char_traitsIcEENS7_9allocatorIcEEEEbxydSD_NS0_14adl_serializerENS9_IhNSD_IhEEEEvEEEEvRT_NSK_14number_float_tE, symObjAddr: 0x15384, symBinAddr: 0x100016D80, symSize: 0x70 }
  - { offsetInCU: 0x5CAB1, offset: 0x5CAB1, size: 0x8, addend: 0x0, symName: __ZN8nlohmann16json_abi_v3_11_310basic_jsonINSt3__13mapENS2_6vectorENS2_12basic_stringIcNS2_11char_traitsIcEENS2_9allocatorIcEEEEbxydS8_NS0_14adl_serializerENS4_IhNS8_IhEEEEvE10json_valueC1Ed, symObjAddr: 0x153F4, symBinAddr: 0x100016DF0, symSize: 0x34 }
  - { offsetInCU: 0x5CAEA, offset: 0x5CAEA, size: 0x8, addend: 0x0, symName: __ZN8nlohmann16json_abi_v3_11_310basic_jsonINSt3__13mapENS2_6vectorENS2_12basic_stringIcNS2_11char_traitsIcEENS2_9allocatorIcEEEEbxydS8_NS0_14adl_serializerENS4_IhNS8_IhEEEEvE10json_valueC2Ed, symObjAddr: 0x15428, symBinAddr: 0x100016E24, symSize: 0x20 }
  - { offsetInCU: 0x5CB23, offset: 0x5CB23, size: 0x8, addend: 0x0, symName: __ZNSt3__128__exception_guard_exceptionsINS_29_AllocatorDestroyRangeReverseINS_9allocatorIN8nlohmann16json_abi_v3_11_310basic_jsonINS_3mapENS_6vectorENS_12basic_stringIcNS_11char_traitsIcEENS2_IcEEEEbxydS2_NS4_14adl_serializerENS7_IhNS2_IhEEEEvEEEEPSG_EEED2B8ue170006Ev, symObjAddr: 0x15448, symBinAddr: 0x100016E44, symSize: 0x50 }
  - { offsetInCU: 0x5CB4D, offset: 0x5CB4D, size: 0x8, addend: 0x0, symName: __ZNKSt3__129_AllocatorDestroyRangeReverseINS_9allocatorIN8nlohmann16json_abi_v3_11_310basic_jsonINS_3mapENS_6vectorENS_12basic_stringIcNS_11char_traitsIcEENS1_IcEEEEbxydS1_NS3_14adl_serializerENS6_IhNS1_IhEEEEvEEEEPSF_EclB8ue170006Ev, symObjAddr: 0x15498, symBinAddr: 0x100016E94, symSize: 0x68 }
  - { offsetInCU: 0x5CB73, offset: 0x5CB73, size: 0x8, addend: 0x0, symName: __ZNSt3__118__unwrap_iter_implIPN8nlohmann16json_abi_v3_11_310basic_jsonINS_3mapENS_6vectorENS_12basic_stringIcNS_11char_traitsIcEENS_9allocatorIcEEEEbxydS9_NS2_14adl_serializerENS5_IhNS9_IhEEEEvEELb1EE8__unwrapB8ue170006ESG_, symObjAddr: 0x15570, symBinAddr: 0x100016F6C, symSize: 0x24 }
  - { offsetInCU: 0x5CB96, offset: 0x5CB96, size: 0x8, addend: 0x0, symName: __ZNSt3__118__unwrap_iter_implIPN8nlohmann16json_abi_v3_11_310basic_jsonINS_3mapENS_6vectorENS_12basic_stringIcNS_11char_traitsIcEENS_9allocatorIcEEEEbxydS9_NS2_14adl_serializerENS5_IhNS9_IhEEEEvEELb1EE8__rewrapB8ue170006ESG_SG_, symObjAddr: 0x15594, symBinAddr: 0x100016F90, symSize: 0x50 }
  - { offsetInCU: 0x5CBC7, offset: 0x5CBC7, size: 0x8, addend: 0x0, symName: __ZNSt3__128__exception_guard_exceptionsINS_6vectorIN8nlohmann16json_abi_v3_11_310basic_jsonINS_3mapES1_NS_12basic_stringIcNS_11char_traitsIcEENS_9allocatorIcEEEEbxydS9_NS3_14adl_serializerENS1_IhNS9_IhEEEEvEENS9_ISF_EEE16__destroy_vectorEED2B8ue170006Ev, symObjAddr: 0x155E4, symBinAddr: 0x100016FE0, symSize: 0x48 }
  - { offsetInCU: 0x5CBF1, offset: 0x5CBF1, size: 0x8, addend: 0x0, symName: __ZNKSt3__117__compressed_pairIPNS_6vectorIN8nlohmann16json_abi_v3_11_310basic_jsonINS_3mapES1_NS_12basic_stringIcNS_11char_traitsIcEENS_9allocatorIcEEEEbxydS9_NS3_14adl_serializerENS1_IhNS9_IhEEEEvEENS9_ISF_EEEEZNSF_6createISH_JNS_11__wrap_iterIPKdEESN_EEEPT_DpOT0_EUlSI_E_E5firstB8ue170006Ev, symObjAddr: 0x1562C, symBinAddr: 0x100017028, symSize: 0x24 }
  - { offsetInCU: 0x5CC17, offset: 0x5CC17, size: 0x8, addend: 0x0, symName: __ZNKSt3__122__compressed_pair_elemIPNS_6vectorIN8nlohmann16json_abi_v3_11_310basic_jsonINS_3mapES1_NS_12basic_stringIcNS_11char_traitsIcEENS_9allocatorIcEEEEbxydS9_NS3_14adl_serializerENS1_IhNS9_IhEEEEvEENS9_ISF_EEEELi0ELb0EE5__getB8ue170006Ev, symObjAddr: 0x15650, symBinAddr: 0x10001704C, symSize: 0x14 }
  - { offsetInCU: 0x5CC3D, offset: 0x5CC3D, size: 0x8, addend: 0x0, symName: __ZNKSt3__110unique_ptrINS_6vectorIN8nlohmann16json_abi_v3_11_310basic_jsonINS_3mapES1_NS_12basic_stringIcNS_11char_traitsIcEENS_9allocatorIcEEEEbxydS9_NS3_14adl_serializerENS1_IhNS9_IhEEEEvEENS9_ISF_EEEEZNSF_6createISH_JNS_11__wrap_iterIPKdEESM_EEEPT_DpOT0_EUlPSH_E_EcvbB8ue170006Ev, symObjAddr: 0x15664, symBinAddr: 0x100017060, symSize: 0x34 }
  - { offsetInCU: 0x5CC63, offset: 0x5CC63, size: 0x8, addend: 0x0, symName: __ZNSt3__117__compressed_pairIPNS_6vectorIN8nlohmann16json_abi_v3_11_310basic_jsonINS_3mapES1_NS_12basic_stringIcNS_11char_traitsIcEENS_9allocatorIcEEEEbxydS9_NS3_14adl_serializerENS1_IhNS9_IhEEEEvEENS9_ISF_EEEEZNSF_6createISH_JNS_11__wrap_iterIPKdEESN_EEEPT_DpOT0_EUlSI_E_E5firstB8ue170006Ev, symObjAddr: 0x15698, symBinAddr: 0x100017094, symSize: 0x24 }
  - { offsetInCU: 0x5CC89, offset: 0x5CC89, size: 0x8, addend: 0x0, symName: __ZNSt3__122__compressed_pair_elemIPNS_6vectorIN8nlohmann16json_abi_v3_11_310basic_jsonINS_3mapES1_NS_12basic_stringIcNS_11char_traitsIcEENS_9allocatorIcEEEEbxydS9_NS3_14adl_serializerENS1_IhNS9_IhEEEEvEENS9_ISF_EEEELi0ELb0EE5__getB8ue170006Ev, symObjAddr: 0x156BC, symBinAddr: 0x1000170B8, symSize: 0x14 }
  - { offsetInCU: 0x5CCAF, offset: 0x5CCAF, size: 0x8, addend: 0x0, symName: __ZNSt3__110unique_ptrINS_6vectorIN8nlohmann16json_abi_v3_11_310basic_jsonINS_3mapES1_NS_12basic_stringIcNS_11char_traitsIcEENS_9allocatorIcEEEEbxydS9_NS3_14adl_serializerENS1_IhNS9_IhEEEEvEENS9_ISF_EEEEZNSF_6createISH_JNS_11__wrap_iterIPKdEESM_EEEPT_DpOT0_EUlPSH_E_ED2B8ue170006Ev, symObjAddr: 0x156D0, symBinAddr: 0x1000170CC, symSize: 0x30 }
  - { offsetInCU: 0x5CCD9, offset: 0x5CCD9, size: 0x8, addend: 0x0, symName: __ZNSt3__110unique_ptrINS_6vectorIN8nlohmann16json_abi_v3_11_310basic_jsonINS_3mapES1_NS_12basic_stringIcNS_11char_traitsIcEENS_9allocatorIcEEEEbxydS9_NS3_14adl_serializerENS1_IhNS9_IhEEEEvEENS9_ISF_EEEEZNSF_6createISH_JNS_11__wrap_iterIPKdEESM_EEEPT_DpOT0_EUlPSH_E_E5resetB8ue170006ESS_, symObjAddr: 0x15700, symBinAddr: 0x1000170FC, symSize: 0x80 }
  - { offsetInCU: 0x5CD1D, offset: 0x5CD1D, size: 0x8, addend: 0x0, symName: __ZNSt3__117__compressed_pairIPNS_6vectorIN8nlohmann16json_abi_v3_11_310basic_jsonINS_3mapES1_NS_12basic_stringIcNS_11char_traitsIcEENS_9allocatorIcEEEEbxydS9_NS3_14adl_serializerENS1_IhNS9_IhEEEEvEENS9_ISF_EEEEZNSF_6createISH_JNS_11__wrap_iterIPKdEESN_EEEPT_DpOT0_EUlSI_E_E6secondB8ue170006Ev, symObjAddr: 0x15780, symBinAddr: 0x10001717C, symSize: 0x28 }
  - { offsetInCU: 0x5CD49, offset: 0x5CD49, size: 0x8, addend: 0x0, symName: __ZZN8nlohmann16json_abi_v3_11_310basic_jsonINSt3__13mapENS2_6vectorENS2_12basic_stringIcNS2_11char_traitsIcEENS2_9allocatorIcEEEEbxydS8_NS0_14adl_serializerENS4_IhNS8_IhEEEEvE6createINS4_ISE_NS8_ISE_EEEEJNS2_11__wrap_iterIPKdEESL_EEEPT_DpOT0_ENKUlPSH_E_clESR_, symObjAddr: 0x157A8, symBinAddr: 0x1000171A4, symSize: 0x34 }
  - { offsetInCU: 0x5CD82, offset: 0x5CD82, size: 0x8, addend: 0x0, symName: __ZNSt3__122__compressed_pair_elemIZN8nlohmann16json_abi_v3_11_310basic_jsonINS_3mapENS_6vectorENS_12basic_stringIcNS_11char_traitsIcEENS_9allocatorIcEEEEbxydS9_NS2_14adl_serializerENS5_IhNS9_IhEEEEvE6createINS5_ISF_NS9_ISF_EEEEJNS_11__wrap_iterIPKdEESM_EEEPT_DpOT0_EUlPSI_E_Li1ELb0EE5__getB8ue170006Ev, symObjAddr: 0x157DC, symBinAddr: 0x1000171D8, symSize: 0x14 }
  - { offsetInCU: 0x5CDA8, offset: 0x5CDA8, size: 0x8, addend: 0x0, symName: __ZNKSt3__16vectorIdNS_9allocatorIdEEE5beginB8ue170006Ev, symObjAddr: 0x157F0, symBinAddr: 0x1000171EC, symSize: 0x30 }
  - { offsetInCU: 0x5CDD0, offset: 0x5CDD0, size: 0x8, addend: 0x0, symName: __ZNKSt3__16vectorIdNS_9allocatorIdEEE11__make_iterB8ue170006EPKd, symObjAddr: 0x15820, symBinAddr: 0x10001721C, symSize: 0x30 }
  - { offsetInCU: 0x5CE05, offset: 0x5CE05, size: 0x8, addend: 0x0, symName: __ZNSt3__111__wrap_iterIPKdEC1B8ue170006ES2_, symObjAddr: 0x15850, symBinAddr: 0x10001724C, symSize: 0x34 }
  - { offsetInCU: 0x5CE3D, offset: 0x5CE3D, size: 0x8, addend: 0x0, symName: __ZNSt3__111__wrap_iterIPKdEC2B8ue170006ES2_, symObjAddr: 0x15884, symBinAddr: 0x100017280, symSize: 0x20 }
  - { offsetInCU: 0x5CE75, offset: 0x5CE75, size: 0x8, addend: 0x0, symName: __ZNKSt3__16vectorIdNS_9allocatorIdEEE3endB8ue170006Ev, symObjAddr: 0x158A4, symBinAddr: 0x1000172A0, symSize: 0x30 }
  - { offsetInCU: 0x5CE9D, offset: 0x5CE9D, size: 0x8, addend: 0x0, symName: __ZN8nlohmann16json_abi_v3_11_36detail8json_refINS0_10basic_jsonINSt3__13mapENS4_6vectorENS4_12basic_stringIcNS4_11char_traitsIcEENS4_9allocatorIcEEEEbxydSA_NS0_14adl_serializerENS6_IhNSA_IhEEEEvEEEC2IJRKNS6_ISC_NSA_ISC_EEEEELi0EEEDpOT_, symObjAddr: 0x158D4, symBinAddr: 0x1000172D0, symSize: 0x38 }
  - { offsetInCU: 0x5CEE7, offset: 0x5CEE7, size: 0x8, addend: 0x0, symName: __ZN8nlohmann16json_abi_v3_11_310basic_jsonINSt3__13mapENS2_6vectorENS2_12basic_stringIcNS2_11char_traitsIcEENS2_9allocatorIcEEEEbxydS8_NS0_14adl_serializerENS4_IhNS8_IhEEEEvEC1IRKNS4_ISA_NS8_ISA_EEEESH_Li0EEEOT_, symObjAddr: 0x1590C, symBinAddr: 0x100017308, symSize: 0x34 }
  - { offsetInCU: 0x5CF38, offset: 0x5CF38, size: 0x8, addend: 0x0, symName: __ZN8nlohmann16json_abi_v3_11_310basic_jsonINSt3__13mapENS2_6vectorENS2_12basic_stringIcNS2_11char_traitsIcEENS2_9allocatorIcEEEEbxydS8_NS0_14adl_serializerENS4_IhNS8_IhEEEEvEC2IRKNS4_ISA_NS8_ISA_EEEESH_Li0EEEOT_, symObjAddr: 0x15940, symBinAddr: 0x10001733C, symSize: 0x84 }
  - { offsetInCU: 0x5CF89, offset: 0x5CF89, size: 0x8, addend: 0x0, symName: __ZN8nlohmann16json_abi_v3_11_314adl_serializerINSt3__16vectorINS2_12basic_stringIcNS2_11char_traitsIcEENS2_9allocatorIcEEEENS7_IS9_EEEEvE7to_jsonINS0_10basic_jsonINS2_3mapES3_S9_bxydS7_S1_NS3_IhNS7_IhEEEEvEERKSB_EEDTcmclL_ZNS0_7to_jsonEEfp_clsr3stdE7forwardIT0_Efp0_EEcvv_EERT_OSL_, symObjAddr: 0x159C4, symBinAddr: 0x1000173C0, symSize: 0x34 }
  - { offsetInCU: 0x5CFCE, offset: 0x5CFCE, size: 0x8, addend: 0x0, symName: __ZNK8nlohmann16json_abi_v3_11_36detail10to_json_fnclINS0_10basic_jsonINSt3__13mapENS5_6vectorENS5_12basic_stringIcNS5_11char_traitsIcEENS5_9allocatorIcEEEEbxydSB_NS0_14adl_serializerENS7_IhNSB_IhEEEEvEERKNS7_ISD_NSB_ISD_EEEEEEDTcmcl7to_jsonfp_clsr3stdE7forwardIT0_Efp0_EEcvv_EERT_OSM_, symObjAddr: 0x159F8, symBinAddr: 0x1000173F4, symSize: 0x30 }
  - { offsetInCU: 0x5D024, offset: 0x5D024, size: 0x8, addend: 0x0, symName: __ZN8nlohmann16json_abi_v3_11_36detail20external_constructorILNS1_7value_tE2EE9constructINS0_10basic_jsonINSt3__13mapENS7_6vectorENS7_12basic_stringIcNS7_11char_traitsIcEENS7_9allocatorIcEEEEbxydSD_NS0_14adl_serializerENS9_IhNSD_IhEEEEvEENS9_ISF_NSD_ISF_EEEELi0EEEvRT_RKT0_, symObjAddr: 0x15A54, symBinAddr: 0x100017450, symSize: 0x90 }
  - { offsetInCU: 0x5D075, offset: 0x5D075, size: 0x8, addend: 0x0, symName: __ZN8nlohmann16json_abi_v3_11_310basic_jsonINSt3__13mapENS2_6vectorENS2_12basic_stringIcNS2_11char_traitsIcEENS2_9allocatorIcEEEEbxydS8_NS0_14adl_serializerENS4_IhNS8_IhEEEEvE6createINS4_ISE_NS8_ISE_EEEEJNS2_11__wrap_iterIPKSA_EESL_EEEPT_DpOT0_, symObjAddr: 0x15AE4, symBinAddr: 0x1000174E0, symSize: 0xFC }
  - { offsetInCU: 0x5D18A, offset: 0x5D18A, size: 0x8, addend: 0x0, symName: __ZNSt3__110unique_ptrINS_6vectorIN8nlohmann16json_abi_v3_11_310basic_jsonINS_3mapES1_NS_12basic_stringIcNS_11char_traitsIcEENS_9allocatorIcEEEEbxydS9_NS3_14adl_serializerENS1_IhNS9_IhEEEEvEENS9_ISF_EEEEZNSF_6createISH_JNS_11__wrap_iterIPKSB_EESM_EEEPT_DpOT0_EUlPSH_E_EC1B8ue170006ILb1EvEESS_NS_16__dependent_typeINS_27__unique_ptr_deleter_sfinaeIST_EEXT_EE15__lval_ref_typeE, symObjAddr: 0x15C38, symBinAddr: 0x100017634, symSize: 0x3C }
  - { offsetInCU: 0x5D1DB, offset: 0x5D1DB, size: 0x8, addend: 0x0, symName: __ZNSt3__116allocator_traitsINS_9allocatorINS_6vectorIN8nlohmann16json_abi_v3_11_310basic_jsonINS_3mapES2_NS_12basic_stringIcNS_11char_traitsIcEENS1_IcEEEEbxydS1_NS4_14adl_serializerENS2_IhNS1_IhEEEEvEENS1_ISF_EEEEEEE9constructB8ue170006ISH_JNS_11__wrap_iterIPKSB_EESO_EvEEvRSI_PT_DpOT0_, symObjAddr: 0x15C74, symBinAddr: 0x100017670, symSize: 0x3C }
  - { offsetInCU: 0x5D246, offset: 0x5D246, size: 0x8, addend: 0x0, symName: __ZNKSt3__110unique_ptrINS_6vectorIN8nlohmann16json_abi_v3_11_310basic_jsonINS_3mapES1_NS_12basic_stringIcNS_11char_traitsIcEENS_9allocatorIcEEEEbxydS9_NS3_14adl_serializerENS1_IhNS9_IhEEEEvEENS9_ISF_EEEEZNSF_6createISH_JNS_11__wrap_iterIPKSB_EESM_EEEPT_DpOT0_EUlPSH_E_E3getB8ue170006Ev, symObjAddr: 0x15CB0, symBinAddr: 0x1000176AC, symSize: 0x28 }
  - { offsetInCU: 0x5D26C, offset: 0x5D26C, size: 0x8, addend: 0x0, symName: __ZNSt3__110unique_ptrINS_6vectorIN8nlohmann16json_abi_v3_11_310basic_jsonINS_3mapES1_NS_12basic_stringIcNS_11char_traitsIcEENS_9allocatorIcEEEEbxydS9_NS3_14adl_serializerENS1_IhNS9_IhEEEEvEENS9_ISF_EEEEZNSF_6createISH_JNS_11__wrap_iterIPKSB_EESM_EEEPT_DpOT0_EUlPSH_E_E7releaseB8ue170006Ev, symObjAddr: 0x15D04, symBinAddr: 0x100017700, symSize: 0x44 }
  - { offsetInCU: 0x5D2A1, offset: 0x5D2A1, size: 0x8, addend: 0x0, symName: __ZNSt3__110unique_ptrINS_6vectorIN8nlohmann16json_abi_v3_11_310basic_jsonINS_3mapES1_NS_12basic_stringIcNS_11char_traitsIcEENS_9allocatorIcEEEEbxydS9_NS3_14adl_serializerENS1_IhNS9_IhEEEEvEENS9_ISF_EEEEZNSF_6createISH_JNS_11__wrap_iterIPKSB_EESM_EEEPT_DpOT0_EUlPSH_E_ED1B8ue170006Ev, symObjAddr: 0x15D48, symBinAddr: 0x100017744, symSize: 0x2C }
  - { offsetInCU: 0x5D2CB, offset: 0x5D2CB, size: 0x8, addend: 0x0, symName: __ZNSt3__110unique_ptrINS_6vectorIN8nlohmann16json_abi_v3_11_310basic_jsonINS_3mapES1_NS_12basic_stringIcNS_11char_traitsIcEENS_9allocatorIcEEEEbxydS9_NS3_14adl_serializerENS1_IhNS9_IhEEEEvEENS9_ISF_EEEEZNSF_6createISH_JNS_11__wrap_iterIPKSB_EESM_EEEPT_DpOT0_EUlPSH_E_EC2B8ue170006ILb1EvEESS_NS_16__dependent_typeINS_27__unique_ptr_deleter_sfinaeIST_EEXT_EE15__lval_ref_typeE, symObjAddr: 0x15D74, symBinAddr: 0x100017770, symSize: 0x48 }
  - { offsetInCU: 0x5D31C, offset: 0x5D31C, size: 0x8, addend: 0x0, symName: __ZNSt3__117__compressed_pairIPNS_6vectorIN8nlohmann16json_abi_v3_11_310basic_jsonINS_3mapES1_NS_12basic_stringIcNS_11char_traitsIcEENS_9allocatorIcEEEEbxydS9_NS3_14adl_serializerENS1_IhNS9_IhEEEEvEENS9_ISF_EEEEZNSF_6createISH_JNS_11__wrap_iterIPKSB_EESN_EEEPT_DpOT0_EUlSI_E_EC1B8ue170006IRSI_RKST_EEOSO_OT0_, symObjAddr: 0x15DBC, symBinAddr: 0x1000177B8, symSize: 0x3C }
  - { offsetInCU: 0x5D374, offset: 0x5D374, size: 0x8, addend: 0x0, symName: __ZNSt3__117__compressed_pairIPNS_6vectorIN8nlohmann16json_abi_v3_11_310basic_jsonINS_3mapES1_NS_12basic_stringIcNS_11char_traitsIcEENS_9allocatorIcEEEEbxydS9_NS3_14adl_serializerENS1_IhNS9_IhEEEEvEENS9_ISF_EEEEZNSF_6createISH_JNS_11__wrap_iterIPKSB_EESN_EEEPT_DpOT0_EUlSI_E_EC2B8ue170006IRSI_RKST_EEOSO_OT0_, symObjAddr: 0x15DF8, symBinAddr: 0x1000177F4, symSize: 0x48 }
  - { offsetInCU: 0x5D3CC, offset: 0x5D3CC, size: 0x8, addend: 0x0, symName: __ZNSt3__122__compressed_pair_elemIZN8nlohmann16json_abi_v3_11_310basic_jsonINS_3mapENS_6vectorENS_12basic_stringIcNS_11char_traitsIcEENS_9allocatorIcEEEEbxydS9_NS2_14adl_serializerENS5_IhNS9_IhEEEEvE6createINS5_ISF_NS9_ISF_EEEEJNS_11__wrap_iterIPKSB_EESM_EEEPT_DpOT0_EUlPSI_E_Li1ELb0EEC2B8ue170006IRKST_vEEOSN_, symObjAddr: 0x15E40, symBinAddr: 0x10001783C, symSize: 0x24 }
  - { offsetInCU: 0x5D40E, offset: 0x5D40E, size: 0x8, addend: 0x0, symName: __ZNSt3__19allocatorINS_6vectorIN8nlohmann16json_abi_v3_11_310basic_jsonINS_3mapES1_NS_12basic_stringIcNS_11char_traitsIcEENS0_IcEEEEbxydS0_NS3_14adl_serializerENS1_IhNS0_IhEEEEvEENS0_ISE_EEEEE9constructB8ue170006ISG_JNS_11__wrap_iterIPKSA_EESM_EEEvPT_DpOT0_, symObjAddr: 0x15E64, symBinAddr: 0x100017860, symSize: 0x50 }
  - { offsetInCU: 0x5D477, offset: 0x5D477, size: 0x8, addend: 0x0, symName: __ZNSt3__16vectorIN8nlohmann16json_abi_v3_11_310basic_jsonINS_3mapES0_NS_12basic_stringIcNS_11char_traitsIcEENS_9allocatorIcEEEEbxydS8_NS2_14adl_serializerENS0_IhNS8_IhEEEEvEENS8_ISE_EEEC1INS_11__wrap_iterIPKSA_EELi0EEET_SM_, symObjAddr: 0x15EB4, symBinAddr: 0x1000178B0, symSize: 0x3C }
  - { offsetInCU: 0x5D4D0, offset: 0x5D4D0, size: 0x8, addend: 0x0, symName: __ZNSt3__16vectorIN8nlohmann16json_abi_v3_11_310basic_jsonINS_3mapES0_NS_12basic_stringIcNS_11char_traitsIcEENS_9allocatorIcEEEEbxydS8_NS2_14adl_serializerENS0_IhNS8_IhEEEEvEENS8_ISE_EEEC2INS_11__wrap_iterIPKSA_EELi0EEET_SM_, symObjAddr: 0x15EF0, symBinAddr: 0x1000178EC, symSize: 0x94 }
  - { offsetInCU: 0x5D547, offset: 0x5D547, size: 0x8, addend: 0x0, symName: __ZNSt3__16vectorIN8nlohmann16json_abi_v3_11_310basic_jsonINS_3mapES0_NS_12basic_stringIcNS_11char_traitsIcEENS_9allocatorIcEEEEbxydS8_NS2_14adl_serializerENS0_IhNS8_IhEEEEvEENS8_ISE_EEE16__init_with_sizeB8ue170006INS_11__wrap_iterIPKSA_EESL_EEvT_T0_m, symObjAddr: 0x15FC0, symBinAddr: 0x1000179BC, symSize: 0xC8 }
  - { offsetInCU: 0x5D5BB, offset: 0x5D5BB, size: 0x8, addend: 0x0, symName: __ZNSt3__16vectorIN8nlohmann16json_abi_v3_11_310basic_jsonINS_3mapES0_NS_12basic_stringIcNS_11char_traitsIcEENS_9allocatorIcEEEEbxydS8_NS2_14adl_serializerENS0_IhNS8_IhEEEEvEENS8_ISE_EEE18__construct_at_endINS_11__wrap_iterIPKSA_EESL_EEvT_T0_m, symObjAddr: 0x16100, symBinAddr: 0x100017AFC, symSize: 0x9C }
  - { offsetInCU: 0x5D654, offset: 0x5D654, size: 0x8, addend: 0x0, symName: __ZNSt3__14pairIPKNS_12basic_stringIcNS_11char_traitsIcEENS_9allocatorIcEEEES8_EC1B8ue170006IS8_S8_LPv0EEEOT_OT0_, symObjAddr: 0x163F4, symBinAddr: 0x100017DF0, symSize: 0x3C }
  - { offsetInCU: 0x5D6B2, offset: 0x5D6B2, size: 0x8, addend: 0x0, symName: __ZNSt3__14pairIPKNS_12basic_stringIcNS_11char_traitsIcEENS_9allocatorIcEEEES8_EC2B8ue170006IS8_S8_LPv0EEEOT_OT0_, symObjAddr: 0x16430, symBinAddr: 0x100017E2C, symSize: 0x34 }
  - { offsetInCU: 0x5D710, offset: 0x5D710, size: 0x8, addend: 0x0, symName: __ZNSt3__118__unwrap_iter_implINS_11__wrap_iterIPKNS_12basic_stringIcNS_11char_traitsIcEENS_9allocatorIcEEEEEELb1EE8__unwrapB8ue170006ESA_, symObjAddr: 0x16464, symBinAddr: 0x100017E60, symSize: 0x28 }
  - { offsetInCU: 0x5D73F, offset: 0x5D73F, size: 0x8, addend: 0x0, symName: __ZNSt3__119__to_address_helperINS_11__wrap_iterIPKNS_12basic_stringIcNS_11char_traitsIcEENS_9allocatorIcEEEEEEvE6__callB8ue170006ERKSA_, symObjAddr: 0x164B0, symBinAddr: 0x100017EAC, symSize: 0x30 }
  - { offsetInCU: 0x5D762, offset: 0x5D762, size: 0x8, addend: 0x0, symName: __ZNSt3__114pointer_traitsINS_11__wrap_iterIPKNS_12basic_stringIcNS_11char_traitsIcEENS_9allocatorIcEEEEEEE10to_addressB8ue170006ESA_, symObjAddr: 0x164E0, symBinAddr: 0x100017EDC, symSize: 0x2C }
  - { offsetInCU: 0x5D785, offset: 0x5D785, size: 0x8, addend: 0x0, symName: __ZNSt3__116allocator_traitsINS_9allocatorIN8nlohmann16json_abi_v3_11_310basic_jsonINS_3mapENS_6vectorENS_12basic_stringIcNS_11char_traitsIcEENS1_IcEEEEbxydS1_NS3_14adl_serializerENS6_IhNS1_IhEEEEvEEEEE9constructB8ue170006ISF_JRKSB_EvEEvRSG_PT_DpOT0_, symObjAddr: 0x16520, symBinAddr: 0x100017F1C, symSize: 0x34 }
  - { offsetInCU: 0x5D7DC, offset: 0x5D7DC, size: 0x8, addend: 0x0, symName: __ZNSt3__19allocatorIN8nlohmann16json_abi_v3_11_310basic_jsonINS_3mapENS_6vectorENS_12basic_stringIcNS_11char_traitsIcEENS0_IcEEEEbxydS0_NS2_14adl_serializerENS5_IhNS0_IhEEEEvEEE9constructB8ue170006ISE_JRKSA_EEEvPT_DpOT0_, symObjAddr: 0x16554, symBinAddr: 0x100017F50, symSize: 0x30 }
  - { offsetInCU: 0x5D832, offset: 0x5D832, size: 0x8, addend: 0x0, symName: __ZNKSt3__117__compressed_pairIPNS_6vectorIN8nlohmann16json_abi_v3_11_310basic_jsonINS_3mapES1_NS_12basic_stringIcNS_11char_traitsIcEENS_9allocatorIcEEEEbxydS9_NS3_14adl_serializerENS1_IhNS9_IhEEEEvEENS9_ISF_EEEEZNSF_6createISH_JNS_11__wrap_iterIPKSB_EESN_EEEPT_DpOT0_EUlSI_E_E5firstB8ue170006Ev, symObjAddr: 0x16584, symBinAddr: 0x100017F80, symSize: 0x24 }
  - { offsetInCU: 0x5D858, offset: 0x5D858, size: 0x8, addend: 0x0, symName: __ZNKSt3__110unique_ptrINS_6vectorIN8nlohmann16json_abi_v3_11_310basic_jsonINS_3mapES1_NS_12basic_stringIcNS_11char_traitsIcEENS_9allocatorIcEEEEbxydS9_NS3_14adl_serializerENS1_IhNS9_IhEEEEvEENS9_ISF_EEEEZNSF_6createISH_JNS_11__wrap_iterIPKSB_EESM_EEEPT_DpOT0_EUlPSH_E_EcvbB8ue170006Ev, symObjAddr: 0x165A8, symBinAddr: 0x100017FA4, symSize: 0x34 }
  - { offsetInCU: 0x5D87E, offset: 0x5D87E, size: 0x8, addend: 0x0, symName: __ZNSt3__117__compressed_pairIPNS_6vectorIN8nlohmann16json_abi_v3_11_310basic_jsonINS_3mapES1_NS_12basic_stringIcNS_11char_traitsIcEENS_9allocatorIcEEEEbxydS9_NS3_14adl_serializerENS1_IhNS9_IhEEEEvEENS9_ISF_EEEEZNSF_6createISH_JNS_11__wrap_iterIPKSB_EESN_EEEPT_DpOT0_EUlSI_E_E5firstB8ue170006Ev, symObjAddr: 0x165DC, symBinAddr: 0x100017FD8, symSize: 0x24 }
  - { offsetInCU: 0x5D8A4, offset: 0x5D8A4, size: 0x8, addend: 0x0, symName: __ZNSt3__110unique_ptrINS_6vectorIN8nlohmann16json_abi_v3_11_310basic_jsonINS_3mapES1_NS_12basic_stringIcNS_11char_traitsIcEENS_9allocatorIcEEEEbxydS9_NS3_14adl_serializerENS1_IhNS9_IhEEEEvEENS9_ISF_EEEEZNSF_6createISH_JNS_11__wrap_iterIPKSB_EESM_EEEPT_DpOT0_EUlPSH_E_ED2B8ue170006Ev, symObjAddr: 0x16600, symBinAddr: 0x100017FFC, symSize: 0x30 }
  - { offsetInCU: 0x5D8CE, offset: 0x5D8CE, size: 0x8, addend: 0x0, symName: __ZNSt3__110unique_ptrINS_6vectorIN8nlohmann16json_abi_v3_11_310basic_jsonINS_3mapES1_NS_12basic_stringIcNS_11char_traitsIcEENS_9allocatorIcEEEEbxydS9_NS3_14adl_serializerENS1_IhNS9_IhEEEEvEENS9_ISF_EEEEZNSF_6createISH_JNS_11__wrap_iterIPKSB_EESM_EEEPT_DpOT0_EUlPSH_E_E5resetB8ue170006ESS_, symObjAddr: 0x16630, symBinAddr: 0x10001802C, symSize: 0x80 }
  - { offsetInCU: 0x5D912, offset: 0x5D912, size: 0x8, addend: 0x0, symName: __ZNSt3__117__compressed_pairIPNS_6vectorIN8nlohmann16json_abi_v3_11_310basic_jsonINS_3mapES1_NS_12basic_stringIcNS_11char_traitsIcEENS_9allocatorIcEEEEbxydS9_NS3_14adl_serializerENS1_IhNS9_IhEEEEvEENS9_ISF_EEEEZNSF_6createISH_JNS_11__wrap_iterIPKSB_EESN_EEEPT_DpOT0_EUlSI_E_E6secondB8ue170006Ev, symObjAddr: 0x166B0, symBinAddr: 0x1000180AC, symSize: 0x28 }
  - { offsetInCU: 0x5D93E, offset: 0x5D93E, size: 0x8, addend: 0x0, symName: __ZZN8nlohmann16json_abi_v3_11_310basic_jsonINSt3__13mapENS2_6vectorENS2_12basic_stringIcNS2_11char_traitsIcEENS2_9allocatorIcEEEEbxydS8_NS0_14adl_serializerENS4_IhNS8_IhEEEEvE6createINS4_ISE_NS8_ISE_EEEEJNS2_11__wrap_iterIPKSA_EESL_EEEPT_DpOT0_ENKUlPSH_E_clESR_, symObjAddr: 0x166D8, symBinAddr: 0x1000180D4, symSize: 0x34 }
  - { offsetInCU: 0x5D977, offset: 0x5D977, size: 0x8, addend: 0x0, symName: __ZNSt3__122__compressed_pair_elemIZN8nlohmann16json_abi_v3_11_310basic_jsonINS_3mapENS_6vectorENS_12basic_stringIcNS_11char_traitsIcEENS_9allocatorIcEEEEbxydS9_NS2_14adl_serializerENS5_IhNS9_IhEEEEvE6createINS5_ISF_NS9_ISF_EEEEJNS_11__wrap_iterIPKSB_EESM_EEEPT_DpOT0_EUlPSI_E_Li1ELb0EE5__getB8ue170006Ev, symObjAddr: 0x1670C, symBinAddr: 0x100018108, symSize: 0x14 }
  - { offsetInCU: 0x5D99D, offset: 0x5D99D, size: 0x8, addend: 0x0, symName: __ZN8nlohmann16json_abi_v3_11_310basic_jsonINSt3__13mapENS2_6vectorENS2_12basic_stringIcNS2_11char_traitsIcEENS2_9allocatorIcEEEEbxydS8_NS0_14adl_serializerENS4_IhNS8_IhEEEEvEC2ESt16initializer_listINS0_6detail8json_refISE_EEEbNSG_7value_tE, symObjAddr: 0x16720, symBinAddr: 0x10001811C, symSize: 0x36C }
  - { offsetInCU: 0x5DA8F, offset: 0x5DA8F, size: 0x8, addend: 0x0, symName: __ZNKSt16initializer_listIN8nlohmann16json_abi_v3_11_36detail8json_refINS1_10basic_jsonINSt3__13mapENS5_6vectorENS5_12basic_stringIcNS5_11char_traitsIcEENS5_9allocatorIcEEEEbxydSB_NS1_14adl_serializerENS7_IhNSB_IhEEEEvEEEEE5beginB8ue170006Ev, symObjAddr: 0x16B20, symBinAddr: 0x10001851C, symSize: 0x18 }
  - { offsetInCU: 0x5DAB5, offset: 0x5DAB5, size: 0x8, addend: 0x0, symName: __ZNKSt16initializer_listIN8nlohmann16json_abi_v3_11_36detail8json_refINS1_10basic_jsonINSt3__13mapENS5_6vectorENS5_12basic_stringIcNS5_11char_traitsIcEENS5_9allocatorIcEEEEbxydSB_NS1_14adl_serializerENS7_IhNSB_IhEEEEvEEEEE3endB8ue170006Ev, symObjAddr: 0x16B38, symBinAddr: 0x100018534, symSize: 0x28 }
  - { offsetInCU: 0x5DADB, offset: 0x5DADB, size: 0x8, addend: 0x0, symName: __ZN8nlohmann16json_abi_v3_11_36detail10type_error6createIDnLi0EEES2_iRKNSt3__112basic_stringIcNS4_11char_traitsIcEENS4_9allocatorIcEEEET_, symObjAddr: 0x16B60, symBinAddr: 0x10001855C, symSize: 0x130 }
  - { offsetInCU: 0x5DB3B, offset: 0x5DB3B, size: 0x8, addend: 0x0, symName: __ZN8nlohmann16json_abi_v3_11_310basic_jsonINSt3__13mapENS2_6vectorENS2_12basic_stringIcNS2_11char_traitsIcEENS2_9allocatorIcEEEEbxydS8_NS0_14adl_serializerENS4_IhNS8_IhEEEEvE10json_valueC1ENS0_6detail7value_tE, symObjAddr: 0x16C90, symBinAddr: 0x10001868C, symSize: 0x34 }
  - { offsetInCU: 0x5DB74, offset: 0x5DB74, size: 0x8, addend: 0x0, symName: __ZNK8nlohmann16json_abi_v3_11_36detail8json_refINS0_10basic_jsonINSt3__13mapENS4_6vectorENS4_12basic_stringIcNS4_11char_traitsIcEENS4_9allocatorIcEEEEbxydSA_NS0_14adl_serializerENS6_IhNSA_IhEEEEvEEE15moved_or_copiedEv, symObjAddr: 0x16CC4, symBinAddr: 0x1000186C0, symSize: 0x64 }
  - { offsetInCU: 0x5DB9A, offset: 0x5DB9A, size: 0x8, addend: 0x0, symName: __ZNSt3__13mapINS_12basic_stringIcNS_11char_traitsIcEENS_9allocatorIcEEEEN8nlohmann16json_abi_v3_11_310basic_jsonIS0_NS_6vectorES6_bxydS4_NS8_14adl_serializerENSA_IhNS4_IhEEEEvEENS_4lessIvEENS4_INS_4pairIKS6_SE_EEEEE7emplaceB8ue170006IJS6_SE_EEENSH_INS_14__map_iteratorINS_15__tree_iteratorINS_12__value_typeIS6_SE_EEPNS_11__tree_nodeISQ_PvEElEEEEbEEDpOT_, symObjAddr: 0x16D28, symBinAddr: 0x100018724, symSize: 0x54 }
  - { offsetInCU: 0x5DBEE, offset: 0x5DBEE, size: 0x8, addend: 0x0, symName: __ZNSt3__16vectorIN8nlohmann16json_abi_v3_11_310basic_jsonINS_3mapES0_NS_12basic_stringIcNS_11char_traitsIcEENS_9allocatorIcEEEEbxydS8_NS2_14adl_serializerENS0_IhNS8_IhEEEEvEENS8_ISE_EEEixB8ue170006Em, symObjAddr: 0x16D7C, symBinAddr: 0x100018778, symSize: 0x24 }
  - { offsetInCU: 0x5DC2B, offset: 0x5DC2B, size: 0x8, addend: 0x0, symName: __ZN8nlohmann16json_abi_v3_11_310basic_jsonINSt3__13mapENS2_6vectorENS2_12basic_stringIcNS2_11char_traitsIcEENS2_9allocatorIcEEEEbxydS8_NS0_14adl_serializerENS4_IhNS8_IhEEEEvE6createINS4_ISE_NS8_ISE_EEEEJPKNS0_6detail8json_refISE_EESM_EEEPT_DpOT0_, symObjAddr: 0x16DA0, symBinAddr: 0x10001879C, symSize: 0xFC }
  - { offsetInCU: 0x5DCD8, offset: 0x5DCD8, size: 0x8, addend: 0x0, symName: __ZZN8nlohmann16json_abi_v3_11_310basic_jsonINSt3__13mapENS2_6vectorENS2_12basic_stringIcNS2_11char_traitsIcEENS2_9allocatorIcEEEEbxydS8_NS0_14adl_serializerENS4_IhNS8_IhEEEEvEC1ESt16initializer_listINS0_6detail8json_refISE_EEEbNSG_7value_tEENKUlRKSI_E_clESM_, symObjAddr: 0x16E9C, symBinAddr: 0x100018898, symSize: 0x84 }
  - { offsetInCU: 0x5DD11, offset: 0x5DD11, size: 0x8, addend: 0x0, symName: __ZNK8nlohmann16json_abi_v3_11_36detail8json_refINS0_10basic_jsonINSt3__13mapENS4_6vectorENS4_12basic_stringIcNS4_11char_traitsIcEENS4_9allocatorIcEEEEbxydSA_NS0_14adl_serializerENS6_IhNSA_IhEEEEvEEEptEv, symObjAddr: 0x16F20, symBinAddr: 0x10001891C, symSize: 0x24 }
  - { offsetInCU: 0x5DD37, offset: 0x5DD37, size: 0x8, addend: 0x0, symName: __ZNK8nlohmann16json_abi_v3_11_310basic_jsonINSt3__13mapENS2_6vectorENS2_12basic_stringIcNS2_11char_traitsIcEENS2_9allocatorIcEEEEbxydS8_NS0_14adl_serializerENS4_IhNS8_IhEEEEvE4sizeEv, symObjAddr: 0x16F44, symBinAddr: 0x100018940, symSize: 0xA4 }
  - { offsetInCU: 0x5DD5D, offset: 0x5DD5D, size: 0x8, addend: 0x0, symName: __ZNK8nlohmann16json_abi_v3_11_36detail8json_refINS0_10basic_jsonINSt3__13mapENS4_6vectorENS4_12basic_stringIcNS4_11char_traitsIcEENS4_9allocatorIcEEEEbxydSA_NS0_14adl_serializerENS6_IhNSA_IhEEEEvEEEdeEv, symObjAddr: 0x17010, symBinAddr: 0x100018A0C, symSize: 0x4C }
  - { offsetInCU: 0x5DD83, offset: 0x5DD83, size: 0x8, addend: 0x0, symName: __ZNK8nlohmann16json_abi_v3_11_310basic_jsonINSt3__13mapENS2_6vectorENS2_12basic_stringIcNS2_11char_traitsIcEENS2_9allocatorIcEEEEbxydS8_NS0_14adl_serializerENS4_IhNS8_IhEEEEvEixEm, symObjAddr: 0x1705C, symBinAddr: 0x100018A58, symSize: 0x11C }
  - { offsetInCU: 0x5DDB8, offset: 0x5DDB8, size: 0x8, addend: 0x0, symName: __ZN8nlohmann16json_abi_v3_11_36detail9exception11diagnosticsEDn, symObjAddr: 0x17280, symBinAddr: 0x100018C7C, symSize: 0x3C }
  - { offsetInCU: 0x5DDD9, offset: 0x5DDD9, size: 0x8, addend: 0x0, symName: __ZN8nlohmann16json_abi_v3_11_310basic_jsonINSt3__13mapENS2_6vectorENS2_12basic_stringIcNS2_11char_traitsIcEENS2_9allocatorIcEEEEbxydS8_NS0_14adl_serializerENS4_IhNS8_IhEEEEvE10json_valueC2ENS0_6detail7value_tE, symObjAddr: 0x172BC, symBinAddr: 0x100018CB8, symSize: 0x1DC }
  - { offsetInCU: 0x5DE12, offset: 0x5DE12, size: 0x8, addend: 0x0, symName: __ZN8nlohmann16json_abi_v3_11_310basic_jsonINSt3__13mapENS2_6vectorENS2_12basic_stringIcNS2_11char_traitsIcEENS2_9allocatorIcEEEEbxydS8_NS0_14adl_serializerENS4_IhNS8_IhEEEEvE6createINS3_ISA_SE_NS2_4lessIvEENS8_INS2_4pairIKSA_SE_EEEEEEJEEEPT_DpOT0_, symObjAddr: 0x174C0, symBinAddr: 0x100018EBC, symSize: 0xEC }
  - { offsetInCU: 0x5DE8B, offset: 0x5DE8B, size: 0x8, addend: 0x0, symName: __ZN8nlohmann16json_abi_v3_11_310basic_jsonINSt3__13mapENS2_6vectorENS2_12basic_stringIcNS2_11char_traitsIcEENS2_9allocatorIcEEEEbxydS8_NS0_14adl_serializerENS4_IhNS8_IhEEEEvE6createINS4_ISE_NS8_ISE_EEEEJEEEPT_DpOT0_, symObjAddr: 0x175AC, symBinAddr: 0x100018FA8, symSize: 0xEC }
  - { offsetInCU: 0x5DF1D, offset: 0x5DF1D, size: 0x8, addend: 0x0, symName: __ZN8nlohmann16json_abi_v3_11_310basic_jsonINSt3__13mapENS2_6vectorENS2_12basic_stringIcNS2_11char_traitsIcEENS2_9allocatorIcEEEEbxydS8_NS0_14adl_serializerENS4_IhNS8_IhEEEEvE6createISA_JRA1_KcEEEPT_DpOT0_, symObjAddr: 0x17698, symBinAddr: 0x100019094, symSize: 0xF4 }
  - { offsetInCU: 0x5DFAB, offset: 0x5DFAB, size: 0x8, addend: 0x0, symName: __ZN8nlohmann16json_abi_v3_11_310basic_jsonINSt3__13mapENS2_6vectorENS2_12basic_stringIcNS2_11char_traitsIcEENS2_9allocatorIcEEEEbxydS8_NS0_14adl_serializerENS4_IhNS8_IhEEEEvE6createINS0_27byte_container_with_subtypeISD_EEJEEEPT_DpOT0_, symObjAddr: 0x1778C, symBinAddr: 0x100019188, symSize: 0xEC }
  - { offsetInCU: 0x5E02A, offset: 0x5E02A, size: 0x8, addend: 0x0, symName: __ZN8nlohmann16json_abi_v3_11_36detail11other_error6createIDnLi0EEES2_iRKNSt3__112basic_stringIcNS4_11char_traitsIcEENS4_9allocatorIcEEEET_, symObjAddr: 0x17878, symBinAddr: 0x100019274, symSize: 0x130 }
  - { offsetInCU: 0x5E08A, offset: 0x5E08A, size: 0x8, addend: 0x0, symName: __ZN8nlohmann16json_abi_v3_11_36detail11other_errorD1Ev, symObjAddr: 0x179A8, symBinAddr: 0x1000193A4, symSize: 0x2C }
  - { offsetInCU: 0x5E0B7, offset: 0x5E0B7, size: 0x8, addend: 0x0, symName: __ZNSt3__116allocator_traitsINS_9allocatorINS_3mapINS_12basic_stringIcNS_11char_traitsIcEENS1_IcEEEEN8nlohmann16json_abi_v3_11_310basic_jsonIS2_NS_6vectorES7_bxydS1_NS9_14adl_serializerENSB_IhNS1_IhEEEEvEENS_4lessIvEENS1_INS_4pairIKS7_SF_EEEEEEEEE8allocateB8ue170006ERSN_m, symObjAddr: 0x179D4, symBinAddr: 0x1000193D0, symSize: 0x2C }
  - { offsetInCU: 0x5E18B, offset: 0x5E18B, size: 0x8, addend: 0x0, symName: __ZNSt3__110unique_ptrINS_3mapINS_12basic_stringIcNS_11char_traitsIcEENS_9allocatorIcEEEEN8nlohmann16json_abi_v3_11_310basic_jsonIS1_NS_6vectorES7_bxydS5_NS9_14adl_serializerENSB_IhNS5_IhEEEEvEENS_4lessIvEENS5_INS_4pairIKS7_SF_EEEEEEZNSF_6createISM_JEEEPT_DpOT0_EUlPSM_E_EC1B8ue170006ILb1EvEEST_NS_16__dependent_typeINS_27__unique_ptr_deleter_sfinaeISU_EEXT_EE15__lval_ref_typeE, symObjAddr: 0x17A00, symBinAddr: 0x1000193FC, symSize: 0x3C }
  - { offsetInCU: 0x5E1DC, offset: 0x5E1DC, size: 0x8, addend: 0x0, symName: __ZNSt3__116allocator_traitsINS_9allocatorINS_3mapINS_12basic_stringIcNS_11char_traitsIcEENS1_IcEEEEN8nlohmann16json_abi_v3_11_310basic_jsonIS2_NS_6vectorES7_bxydS1_NS9_14adl_serializerENSB_IhNS1_IhEEEEvEENS_4lessIvEENS1_INS_4pairIKS7_SF_EEEEEEEEE9constructB8ue170006ISM_JEvEEvRSN_PT_DpOT0_, symObjAddr: 0x17A3C, symBinAddr: 0x100019438, symSize: 0x2C }
  - { offsetInCU: 0x5E21E, offset: 0x5E21E, size: 0x8, addend: 0x0, symName: __ZNKSt3__110unique_ptrINS_3mapINS_12basic_stringIcNS_11char_traitsIcEENS_9allocatorIcEEEEN8nlohmann16json_abi_v3_11_310basic_jsonIS1_NS_6vectorES7_bxydS5_NS9_14adl_serializerENSB_IhNS5_IhEEEEvEENS_4lessIvEENS5_INS_4pairIKS7_SF_EEEEEEZNSF_6createISM_JEEEPT_DpOT0_EUlPSM_E_E3getB8ue170006Ev, symObjAddr: 0x17A68, symBinAddr: 0x100019464, symSize: 0x28 }
  - { offsetInCU: 0x5E244, offset: 0x5E244, size: 0x8, addend: 0x0, symName: __ZNSt3__110unique_ptrINS_3mapINS_12basic_stringIcNS_11char_traitsIcEENS_9allocatorIcEEEEN8nlohmann16json_abi_v3_11_310basic_jsonIS1_NS_6vectorES7_bxydS5_NS9_14adl_serializerENSB_IhNS5_IhEEEEvEENS_4lessIvEENS5_INS_4pairIKS7_SF_EEEEEEZNSF_6createISM_JEEEPT_DpOT0_EUlPSM_E_E7releaseB8ue170006Ev, symObjAddr: 0x17ABC, symBinAddr: 0x1000194B8, symSize: 0x44 }
  - { offsetInCU: 0x5E279, offset: 0x5E279, size: 0x8, addend: 0x0, symName: __ZNSt3__110unique_ptrINS_3mapINS_12basic_stringIcNS_11char_traitsIcEENS_9allocatorIcEEEEN8nlohmann16json_abi_v3_11_310basic_jsonIS1_NS_6vectorES7_bxydS5_NS9_14adl_serializerENSB_IhNS5_IhEEEEvEENS_4lessIvEENS5_INS_4pairIKS7_SF_EEEEEEZNSF_6createISM_JEEEPT_DpOT0_EUlPSM_E_ED1B8ue170006Ev, symObjAddr: 0x17B00, symBinAddr: 0x1000194FC, symSize: 0x2C }
  - { offsetInCU: 0x5E2A3, offset: 0x5E2A3, size: 0x8, addend: 0x0, symName: __ZNSt3__19allocatorINS_3mapINS_12basic_stringIcNS_11char_traitsIcEENS0_IcEEEEN8nlohmann16json_abi_v3_11_310basic_jsonIS1_NS_6vectorES6_bxydS0_NS8_14adl_serializerENSA_IhNS0_IhEEEEvEENS_4lessIvEENS0_INS_4pairIKS6_SE_EEEEEEE8allocateB8ue170006Em, symObjAddr: 0x17B2C, symBinAddr: 0x100019528, symSize: 0x5C }
  - { offsetInCU: 0x5E2E2, offset: 0x5E2E2, size: 0x8, addend: 0x0, symName: __ZNSt3__116allocator_traitsINS_9allocatorINS_3mapINS_12basic_stringIcNS_11char_traitsIcEENS1_IcEEEEN8nlohmann16json_abi_v3_11_310basic_jsonIS2_NS_6vectorES7_bxydS1_NS9_14adl_serializerENSB_IhNS1_IhEEEEvEENS_4lessIvEENS1_INS_4pairIKS7_SF_EEEEEEEEE8max_sizeB8ue170006ISN_vEEmRKSN_, symObjAddr: 0x17B88, symBinAddr: 0x100019584, symSize: 0x24 }
  - { offsetInCU: 0x5E310, offset: 0x5E310, size: 0x8, addend: 0x0, symName: __ZNKSt3__19allocatorINS_3mapINS_12basic_stringIcNS_11char_traitsIcEENS0_IcEEEEN8nlohmann16json_abi_v3_11_310basic_jsonIS1_NS_6vectorES6_bxydS0_NS8_14adl_serializerENSA_IhNS0_IhEEEEvEENS_4lessIvEENS0_INS_4pairIKS6_SE_EEEEEEE8max_sizeB8ue170006Ev, symObjAddr: 0x17BAC, symBinAddr: 0x1000195A8, symSize: 0x18 }
  - { offsetInCU: 0x5E336, offset: 0x5E336, size: 0x8, addend: 0x0, symName: __ZNSt3__110unique_ptrINS_3mapINS_12basic_stringIcNS_11char_traitsIcEENS_9allocatorIcEEEEN8nlohmann16json_abi_v3_11_310basic_jsonIS1_NS_6vectorES7_bxydS5_NS9_14adl_serializerENSB_IhNS5_IhEEEEvEENS_4lessIvEENS5_INS_4pairIKS7_SF_EEEEEEZNSF_6createISM_JEEEPT_DpOT0_EUlPSM_E_EC2B8ue170006ILb1EvEEST_NS_16__dependent_typeINS_27__unique_ptr_deleter_sfinaeISU_EEXT_EE15__lval_ref_typeE, symObjAddr: 0x17BC4, symBinAddr: 0x1000195C0, symSize: 0x48 }
  - { offsetInCU: 0x5E387, offset: 0x5E387, size: 0x8, addend: 0x0, symName: __ZNSt3__117__compressed_pairIPNS_3mapINS_12basic_stringIcNS_11char_traitsIcEENS_9allocatorIcEEEEN8nlohmann16json_abi_v3_11_310basic_jsonIS1_NS_6vectorES7_bxydS5_NS9_14adl_serializerENSB_IhNS5_IhEEEEvEENS_4lessIvEENS5_INS_4pairIKS7_SF_EEEEEEZNSF_6createISM_JEEEPT_DpOT0_EUlSN_E_EC1B8ue170006IRSN_RKSU_EEOSP_OT0_, symObjAddr: 0x17C0C, symBinAddr: 0x100019608, symSize: 0x3C }
  - { offsetInCU: 0x5E3DF, offset: 0x5E3DF, size: 0x8, addend: 0x0, symName: __ZNSt3__117__compressed_pairIPNS_3mapINS_12basic_stringIcNS_11char_traitsIcEENS_9allocatorIcEEEEN8nlohmann16json_abi_v3_11_310basic_jsonIS1_NS_6vectorES7_bxydS5_NS9_14adl_serializerENSB_IhNS5_IhEEEEvEENS_4lessIvEENS5_INS_4pairIKS7_SF_EEEEEEZNSF_6createISM_JEEEPT_DpOT0_EUlSN_E_EC2B8ue170006IRSN_RKSU_EEOSP_OT0_, symObjAddr: 0x17C48, symBinAddr: 0x100019644, symSize: 0x48 }
  - { offsetInCU: 0x5E437, offset: 0x5E437, size: 0x8, addend: 0x0, symName: __ZNSt3__122__compressed_pair_elemIPNS_3mapINS_12basic_stringIcNS_11char_traitsIcEENS_9allocatorIcEEEEN8nlohmann16json_abi_v3_11_310basic_jsonIS1_NS_6vectorES7_bxydS5_NS9_14adl_serializerENSB_IhNS5_IhEEEEvEENS_4lessIvEENS5_INS_4pairIKS7_SF_EEEEEELi0ELb0EEC2B8ue170006IRSN_vEEOT_, symObjAddr: 0x17C90, symBinAddr: 0x10001968C, symSize: 0x24 }
  - { offsetInCU: 0x5E479, offset: 0x5E479, size: 0x8, addend: 0x0, symName: __ZNSt3__122__compressed_pair_elemIZN8nlohmann16json_abi_v3_11_310basic_jsonINS_3mapENS_6vectorENS_12basic_stringIcNS_11char_traitsIcEENS_9allocatorIcEEEEbxydS9_NS2_14adl_serializerENS5_IhNS9_IhEEEEvE6createINS4_ISB_SF_NS_4lessIvEENS9_INS_4pairIKSB_SF_EEEEEEJEEEPT_DpOT0_EUlPSN_E_Li1ELb0EEC2B8ue170006IRKSU_vEEOSO_, symObjAddr: 0x17CB4, symBinAddr: 0x1000196B0, symSize: 0x24 }
  - { offsetInCU: 0x5E4BB, offset: 0x5E4BB, size: 0x8, addend: 0x0, symName: __ZNSt3__19allocatorINS_3mapINS_12basic_stringIcNS_11char_traitsIcEENS0_IcEEEEN8nlohmann16json_abi_v3_11_310basic_jsonIS1_NS_6vectorES6_bxydS0_NS8_14adl_serializerENSA_IhNS0_IhEEEEvEENS_4lessIvEENS0_INS_4pairIKS6_SE_EEEEEEE9constructB8ue170006ISL_JEEEvPT_DpOT0_, symObjAddr: 0x17CD8, symBinAddr: 0x1000196D4, symSize: 0x28 }
  - { offsetInCU: 0x5E4FD, offset: 0x5E4FD, size: 0x8, addend: 0x0, symName: __ZNSt3__13mapINS_12basic_stringIcNS_11char_traitsIcEENS_9allocatorIcEEEEN8nlohmann16json_abi_v3_11_310basic_jsonIS0_NS_6vectorES6_bxydS4_NS8_14adl_serializerENSA_IhNS4_IhEEEEvEENS_4lessIvEENS4_INS_4pairIKS6_SE_EEEEEC1B8ue170006Ev, symObjAddr: 0x17D00, symBinAddr: 0x1000196FC, symSize: 0x2C }
  - { offsetInCU: 0x5E527, offset: 0x5E527, size: 0x8, addend: 0x0, symName: __ZNSt3__13mapINS_12basic_stringIcNS_11char_traitsIcEENS_9allocatorIcEEEEN8nlohmann16json_abi_v3_11_310basic_jsonIS0_NS_6vectorES6_bxydS4_NS8_14adl_serializerENSA_IhNS4_IhEEEEvEENS_4lessIvEENS4_INS_4pairIKS6_SE_EEEEEC2B8ue170006Ev, symObjAddr: 0x17D2C, symBinAddr: 0x100019728, symSize: 0x40 }
  - { offsetInCU: 0x5E551, offset: 0x5E551, size: 0x8, addend: 0x0, symName: __ZNSt3__119__map_value_compareINS_12basic_stringIcNS_11char_traitsIcEENS_9allocatorIcEEEENS_12__value_typeIS6_N8nlohmann16json_abi_v3_11_310basic_jsonINS_3mapENS_6vectorES6_bxydS4_NS9_14adl_serializerENSC_IhNS4_IhEEEEvEEEENS_4lessIvEELb1EEC1B8ue170006ESJ_, symObjAddr: 0x17D6C, symBinAddr: 0x100019768, symSize: 0x2C }
  - { offsetInCU: 0x5E58A, offset: 0x5E58A, size: 0x8, addend: 0x0, symName: __ZNSt3__16__treeINS_12__value_typeINS_12basic_stringIcNS_11char_traitsIcEENS_9allocatorIcEEEEN8nlohmann16json_abi_v3_11_310basic_jsonINS_3mapENS_6vectorES7_bxydS5_NS9_14adl_serializerENSC_IhNS5_IhEEEEvEEEENS_19__map_value_compareIS7_SH_NS_4lessIvEELb1EEENS5_ISH_EEEC1ERKSL_, symObjAddr: 0x17D98, symBinAddr: 0x100019794, symSize: 0x34 }
  - { offsetInCU: 0x5E5C5, offset: 0x5E5C5, size: 0x8, addend: 0x0, symName: __ZNSt3__119__map_value_compareINS_12basic_stringIcNS_11char_traitsIcEENS_9allocatorIcEEEENS_12__value_typeIS6_N8nlohmann16json_abi_v3_11_310basic_jsonINS_3mapENS_6vectorES6_bxydS4_NS9_14adl_serializerENSC_IhNS4_IhEEEEvEEEENS_4lessIvEELb1EEC2B8ue170006ESJ_, symObjAddr: 0x17DCC, symBinAddr: 0x1000197C8, symSize: 0x14 }
  - { offsetInCU: 0x5E5FE, offset: 0x5E5FE, size: 0x8, addend: 0x0, symName: __ZNSt3__16__treeINS_12__value_typeINS_12basic_stringIcNS_11char_traitsIcEENS_9allocatorIcEEEEN8nlohmann16json_abi_v3_11_310basic_jsonINS_3mapENS_6vectorES7_bxydS5_NS9_14adl_serializerENSC_IhNS5_IhEEEEvEEEENS_19__map_value_compareIS7_SH_NS_4lessIvEELb1EEENS5_ISH_EEEC2ERKSL_, symObjAddr: 0x17DE0, symBinAddr: 0x1000197DC, symSize: 0x7C }
  - { offsetInCU: 0x5E639, offset: 0x5E639, size: 0x8, addend: 0x0, symName: __ZNSt3__117__compressed_pairINS_15__tree_end_nodeIPNS_16__tree_node_baseIPvEEEENS_9allocatorINS_11__tree_nodeINS_12__value_typeINS_12basic_stringIcNS_11char_traitsIcEENS7_IcEEEEN8nlohmann16json_abi_v3_11_310basic_jsonINS_3mapENS_6vectorESE_bxydS7_NSG_14adl_serializerENSJ_IhNS7_IhEEEEvEEEES3_EEEEEC1B8ue170006ILb1EvEEv, symObjAddr: 0x17E5C, symBinAddr: 0x100019858, symSize: 0x2C }
  - { offsetInCU: 0x5E66E, offset: 0x5E66E, size: 0x8, addend: 0x0, symName: __ZNSt3__117__compressed_pairImNS_19__map_value_compareINS_12basic_stringIcNS_11char_traitsIcEENS_9allocatorIcEEEENS_12__value_typeIS7_N8nlohmann16json_abi_v3_11_310basic_jsonINS_3mapENS_6vectorES7_bxydS5_NSA_14adl_serializerENSD_IhNS5_IhEEEEvEEEENS_4lessIvEELb1EEEEC1B8ue170006IiRKSL_EEOT_OT0_, symObjAddr: 0x17E88, symBinAddr: 0x100019884, symSize: 0x3C }
  - { offsetInCU: 0x5E6C6, offset: 0x5E6C6, size: 0x8, addend: 0x0, symName: __ZNSt3__117__compressed_pairINS_15__tree_end_nodeIPNS_16__tree_node_baseIPvEEEENS_9allocatorINS_11__tree_nodeINS_12__value_typeINS_12basic_stringIcNS_11char_traitsIcEENS7_IcEEEEN8nlohmann16json_abi_v3_11_310basic_jsonINS_3mapENS_6vectorESE_bxydS7_NSG_14adl_serializerENSJ_IhNS7_IhEEEEvEEEES3_EEEEEC2B8ue170006ILb1EvEEv, symObjAddr: 0x17EC4, symBinAddr: 0x1000198C0, symSize: 0x34 }
  - { offsetInCU: 0x5E6FB, offset: 0x5E6FB, size: 0x8, addend: 0x0, symName: __ZNSt3__122__compressed_pair_elemINS_15__tree_end_nodeIPNS_16__tree_node_baseIPvEEEELi0ELb0EEC2B8ue170006ENS_16__value_init_tagE, symObjAddr: 0x17EF8, symBinAddr: 0x1000198F4, symSize: 0x2C }
  - { offsetInCU: 0x5E730, offset: 0x5E730, size: 0x8, addend: 0x0, symName: __ZNSt3__122__compressed_pair_elemINS_9allocatorINS_11__tree_nodeINS_12__value_typeINS_12basic_stringIcNS_11char_traitsIcEENS1_IcEEEEN8nlohmann16json_abi_v3_11_310basic_jsonINS_3mapENS_6vectorES8_bxydS1_NSA_14adl_serializerENSD_IhNS1_IhEEEEvEEEEPvEEEELi1ELb1EEC2B8ue170006ENS_16__value_init_tagE, symObjAddr: 0x17F24, symBinAddr: 0x100019920, symSize: 0x2C }
  - { offsetInCU: 0x5E765, offset: 0x5E765, size: 0x8, addend: 0x0, symName: __ZNSt3__115__tree_end_nodeIPNS_16__tree_node_baseIPvEEEC1B8ue170006Ev, symObjAddr: 0x17F50, symBinAddr: 0x10001994C, symSize: 0x2C }
  - { offsetInCU: 0x5E78F, offset: 0x5E78F, size: 0x8, addend: 0x0, symName: __ZNSt3__115__tree_end_nodeIPNS_16__tree_node_baseIPvEEEC2B8ue170006Ev, symObjAddr: 0x17F7C, symBinAddr: 0x100019978, symSize: 0x18 }
  - { offsetInCU: 0x5E7B9, offset: 0x5E7B9, size: 0x8, addend: 0x0, symName: __ZNSt3__19allocatorINS_11__tree_nodeINS_12__value_typeINS_12basic_stringIcNS_11char_traitsIcEENS0_IcEEEEN8nlohmann16json_abi_v3_11_310basic_jsonINS_3mapENS_6vectorES7_bxydS0_NS9_14adl_serializerENSC_IhNS0_IhEEEEvEEEEPvEEEC2B8ue170006Ev, symObjAddr: 0x17F94, symBinAddr: 0x100019990, symSize: 0x2C }
  - { offsetInCU: 0x5E7E3, offset: 0x5E7E3, size: 0x8, addend: 0x0, symName: __ZNSt3__116__non_trivial_ifILb1ENS_9allocatorINS_11__tree_nodeINS_12__value_typeINS_12basic_stringIcNS_11char_traitsIcEENS1_IcEEEEN8nlohmann16json_abi_v3_11_310basic_jsonINS_3mapENS_6vectorES8_bxydS1_NSA_14adl_serializerENSD_IhNS1_IhEEEEvEEEEPvEEEEEC2B8ue170006Ev, symObjAddr: 0x17FC0, symBinAddr: 0x1000199BC, symSize: 0x14 }
  - { offsetInCU: 0x5E80D, offset: 0x5E80D, size: 0x8, addend: 0x0, symName: __ZNSt3__117__compressed_pairImNS_19__map_value_compareINS_12basic_stringIcNS_11char_traitsIcEENS_9allocatorIcEEEENS_12__value_typeIS7_N8nlohmann16json_abi_v3_11_310basic_jsonINS_3mapENS_6vectorES7_bxydS5_NSA_14adl_serializerENSD_IhNS5_IhEEEEvEEEENS_4lessIvEELb1EEEEC2B8ue170006IiRKSL_EEOT_OT0_, symObjAddr: 0x17FD4, symBinAddr: 0x1000199D0, symSize: 0x44 }
  - { offsetInCU: 0x5E865, offset: 0x5E865, size: 0x8, addend: 0x0, symName: __ZNSt3__122__compressed_pair_elemImLi0ELb0EEC2B8ue170006IivEEOT_, symObjAddr: 0x18018, symBinAddr: 0x100019A14, symSize: 0x24 }
  - { offsetInCU: 0x5E8A7, offset: 0x5E8A7, size: 0x8, addend: 0x0, symName: __ZNSt3__122__compressed_pair_elemINS_19__map_value_compareINS_12basic_stringIcNS_11char_traitsIcEENS_9allocatorIcEEEENS_12__value_typeIS7_N8nlohmann16json_abi_v3_11_310basic_jsonINS_3mapENS_6vectorES7_bxydS5_NSA_14adl_serializerENSD_IhNS5_IhEEEEvEEEENS_4lessIvEELb1EEELi1ELb1EEC2B8ue170006IRKSL_vEEOT_, symObjAddr: 0x1803C, symBinAddr: 0x100019A38, symSize: 0x18 }
  - { offsetInCU: 0x5E8E9, offset: 0x5E8E9, size: 0x8, addend: 0x0, symName: __ZNKSt3__117__compressed_pairIPNS_3mapINS_12basic_stringIcNS_11char_traitsIcEENS_9allocatorIcEEEEN8nlohmann16json_abi_v3_11_310basic_jsonIS1_NS_6vectorES7_bxydS5_NS9_14adl_serializerENSB_IhNS5_IhEEEEvEENS_4lessIvEENS5_INS_4pairIKS7_SF_EEEEEEZNSF_6createISM_JEEEPT_DpOT0_EUlSN_E_E5firstB8ue170006Ev, symObjAddr: 0x18054, symBinAddr: 0x100019A50, symSize: 0x24 }
  - { offsetInCU: 0x5E90F, offset: 0x5E90F, size: 0x8, addend: 0x0, symName: __ZNKSt3__122__compressed_pair_elemIPNS_3mapINS_12basic_stringIcNS_11char_traitsIcEENS_9allocatorIcEEEEN8nlohmann16json_abi_v3_11_310basic_jsonIS1_NS_6vectorES7_bxydS5_NS9_14adl_serializerENSB_IhNS5_IhEEEEvEENS_4lessIvEENS5_INS_4pairIKS7_SF_EEEEEELi0ELb0EE5__getB8ue170006Ev, symObjAddr: 0x18078, symBinAddr: 0x100019A74, symSize: 0x14 }
  - { offsetInCU: 0x5E935, offset: 0x5E935, size: 0x8, addend: 0x0, symName: __ZNKSt3__110unique_ptrINS_3mapINS_12basic_stringIcNS_11char_traitsIcEENS_9allocatorIcEEEEN8nlohmann16json_abi_v3_11_310basic_jsonIS1_NS_6vectorES7_bxydS5_NS9_14adl_serializerENSB_IhNS5_IhEEEEvEENS_4lessIvEENS5_INS_4pairIKS7_SF_EEEEEEZNSF_6createISM_JEEEPT_DpOT0_EUlPSM_E_EcvbB8ue170006Ev, symObjAddr: 0x1808C, symBinAddr: 0x100019A88, symSize: 0x34 }
  - { offsetInCU: 0x5E95B, offset: 0x5E95B, size: 0x8, addend: 0x0, symName: __ZNSt3__117__compressed_pairIPNS_3mapINS_12basic_stringIcNS_11char_traitsIcEENS_9allocatorIcEEEEN8nlohmann16json_abi_v3_11_310basic_jsonIS1_NS_6vectorES7_bxydS5_NS9_14adl_serializerENSB_IhNS5_IhEEEEvEENS_4lessIvEENS5_INS_4pairIKS7_SF_EEEEEEZNSF_6createISM_JEEEPT_DpOT0_EUlSN_E_E5firstB8ue170006Ev, symObjAddr: 0x180C0, symBinAddr: 0x100019ABC, symSize: 0x24 }
  - { offsetInCU: 0x5E981, offset: 0x5E981, size: 0x8, addend: 0x0, symName: __ZNSt3__122__compressed_pair_elemIPNS_3mapINS_12basic_stringIcNS_11char_traitsIcEENS_9allocatorIcEEEEN8nlohmann16json_abi_v3_11_310basic_jsonIS1_NS_6vectorES7_bxydS5_NS9_14adl_serializerENSB_IhNS5_IhEEEEvEENS_4lessIvEENS5_INS_4pairIKS7_SF_EEEEEELi0ELb0EE5__getB8ue170006Ev, symObjAddr: 0x180E4, symBinAddr: 0x100019AE0, symSize: 0x14 }
  - { offsetInCU: 0x5E9A7, offset: 0x5E9A7, size: 0x8, addend: 0x0, symName: __ZNSt3__110unique_ptrINS_3mapINS_12basic_stringIcNS_11char_traitsIcEENS_9allocatorIcEEEEN8nlohmann16json_abi_v3_11_310basic_jsonIS1_NS_6vectorES7_bxydS5_NS9_14adl_serializerENSB_IhNS5_IhEEEEvEENS_4lessIvEENS5_INS_4pairIKS7_SF_EEEEEEZNSF_6createISM_JEEEPT_DpOT0_EUlPSM_E_ED2B8ue170006Ev, symObjAddr: 0x180F8, symBinAddr: 0x100019AF4, symSize: 0x30 }
  - { offsetInCU: 0x5E9D1, offset: 0x5E9D1, size: 0x8, addend: 0x0, symName: __ZNSt3__110unique_ptrINS_3mapINS_12basic_stringIcNS_11char_traitsIcEENS_9allocatorIcEEEEN8nlohmann16json_abi_v3_11_310basic_jsonIS1_NS_6vectorES7_bxydS5_NS9_14adl_serializerENSB_IhNS5_IhEEEEvEENS_4lessIvEENS5_INS_4pairIKS7_SF_EEEEEEZNSF_6createISM_JEEEPT_DpOT0_EUlPSM_E_E5resetB8ue170006EST_, symObjAddr: 0x18128, symBinAddr: 0x100019B24, symSize: 0x80 }
  - { offsetInCU: 0x5EA15, offset: 0x5EA15, size: 0x8, addend: 0x0, symName: __ZNSt3__117__compressed_pairIPNS_3mapINS_12basic_stringIcNS_11char_traitsIcEENS_9allocatorIcEEEEN8nlohmann16json_abi_v3_11_310basic_jsonIS1_NS_6vectorES7_bxydS5_NS9_14adl_serializerENSB_IhNS5_IhEEEEvEENS_4lessIvEENS5_INS_4pairIKS7_SF_EEEEEEZNSF_6createISM_JEEEPT_DpOT0_EUlSN_E_E6secondB8ue170006Ev, symObjAddr: 0x181A8, symBinAddr: 0x100019BA4, symSize: 0x28 }
  - { offsetInCU: 0x5EA41, offset: 0x5EA41, size: 0x8, addend: 0x0, symName: __ZZN8nlohmann16json_abi_v3_11_310basic_jsonINSt3__13mapENS2_6vectorENS2_12basic_stringIcNS2_11char_traitsIcEENS2_9allocatorIcEEEEbxydS8_NS0_14adl_serializerENS4_IhNS8_IhEEEEvE6createINS3_ISA_SE_NS2_4lessIvEENS8_INS2_4pairIKSA_SE_EEEEEEJEEEPT_DpOT0_ENKUlPSM_E_clESS_, symObjAddr: 0x181D0, symBinAddr: 0x100019BCC, symSize: 0x34 }
  - { offsetInCU: 0x5EA7A, offset: 0x5EA7A, size: 0x8, addend: 0x0, symName: __ZNSt3__122__compressed_pair_elemIZN8nlohmann16json_abi_v3_11_310basic_jsonINS_3mapENS_6vectorENS_12basic_stringIcNS_11char_traitsIcEENS_9allocatorIcEEEEbxydS9_NS2_14adl_serializerENS5_IhNS9_IhEEEEvE6createINS4_ISB_SF_NS_4lessIvEENS9_INS_4pairIKSB_SF_EEEEEEJEEEPT_DpOT0_EUlPSN_E_Li1ELb0EE5__getB8ue170006Ev, symObjAddr: 0x18204, symBinAddr: 0x100019C00, symSize: 0x14 }
  - { offsetInCU: 0x5EB13, offset: 0x5EB13, size: 0x8, addend: 0x0, symName: __ZNSt3__110unique_ptrINS_6vectorIN8nlohmann16json_abi_v3_11_310basic_jsonINS_3mapES1_NS_12basic_stringIcNS_11char_traitsIcEENS_9allocatorIcEEEEbxydS9_NS3_14adl_serializerENS1_IhNS9_IhEEEEvEENS9_ISF_EEEEZNSF_6createISH_JEEEPT_DpOT0_EUlPSH_E_EC1B8ue170006ILb1EvEESO_NS_16__dependent_typeINS_27__unique_ptr_deleter_sfinaeISP_EEXT_EE15__lval_ref_typeE, symObjAddr: 0x18218, symBinAddr: 0x100019C14, symSize: 0x3C }
  - { offsetInCU: 0x5EB64, offset: 0x5EB64, size: 0x8, addend: 0x0, symName: __ZNSt3__116allocator_traitsINS_9allocatorINS_6vectorIN8nlohmann16json_abi_v3_11_310basic_jsonINS_3mapES2_NS_12basic_stringIcNS_11char_traitsIcEENS1_IcEEEEbxydS1_NS4_14adl_serializerENS2_IhNS1_IhEEEEvEENS1_ISF_EEEEEEE9constructB8ue170006ISH_JEvEEvRSI_PT_DpOT0_, symObjAddr: 0x18254, symBinAddr: 0x100019C50, symSize: 0x2C }
  - { offsetInCU: 0x5EBA6, offset: 0x5EBA6, size: 0x8, addend: 0x0, symName: __ZNKSt3__110unique_ptrINS_6vectorIN8nlohmann16json_abi_v3_11_310basic_jsonINS_3mapES1_NS_12basic_stringIcNS_11char_traitsIcEENS_9allocatorIcEEEEbxydS9_NS3_14adl_serializerENS1_IhNS9_IhEEEEvEENS9_ISF_EEEEZNSF_6createISH_JEEEPT_DpOT0_EUlPSH_E_E3getB8ue170006Ev, symObjAddr: 0x18280, symBinAddr: 0x100019C7C, symSize: 0x28 }
  - { offsetInCU: 0x5EBCC, offset: 0x5EBCC, size: 0x8, addend: 0x0, symName: __ZNSt3__110unique_ptrINS_6vectorIN8nlohmann16json_abi_v3_11_310basic_jsonINS_3mapES1_NS_12basic_stringIcNS_11char_traitsIcEENS_9allocatorIcEEEEbxydS9_NS3_14adl_serializerENS1_IhNS9_IhEEEEvEENS9_ISF_EEEEZNSF_6createISH_JEEEPT_DpOT0_EUlPSH_E_E7releaseB8ue170006Ev, symObjAddr: 0x182D4, symBinAddr: 0x100019CD0, symSize: 0x44 }
  - { offsetInCU: 0x5EC01, offset: 0x5EC01, size: 0x8, addend: 0x0, symName: __ZNSt3__110unique_ptrINS_6vectorIN8nlohmann16json_abi_v3_11_310basic_jsonINS_3mapES1_NS_12basic_stringIcNS_11char_traitsIcEENS_9allocatorIcEEEEbxydS9_NS3_14adl_serializerENS1_IhNS9_IhEEEEvEENS9_ISF_EEEEZNSF_6createISH_JEEEPT_DpOT0_EUlPSH_E_ED1B8ue170006Ev, symObjAddr: 0x18318, symBinAddr: 0x100019D14, symSize: 0x2C }
  - { offsetInCU: 0x5EC2B, offset: 0x5EC2B, size: 0x8, addend: 0x0, symName: __ZNSt3__110unique_ptrINS_6vectorIN8nlohmann16json_abi_v3_11_310basic_jsonINS_3mapES1_NS_12basic_stringIcNS_11char_traitsIcEENS_9allocatorIcEEEEbxydS9_NS3_14adl_serializerENS1_IhNS9_IhEEEEvEENS9_ISF_EEEEZNSF_6createISH_JEEEPT_DpOT0_EUlPSH_E_EC2B8ue170006ILb1EvEESO_NS_16__dependent_typeINS_27__unique_ptr_deleter_sfinaeISP_EEXT_EE15__lval_ref_typeE, symObjAddr: 0x18344, symBinAddr: 0x100019D40, symSize: 0x48 }
  - { offsetInCU: 0x5EC7C, offset: 0x5EC7C, size: 0x8, addend: 0x0, symName: __ZNSt3__117__compressed_pairIPNS_6vectorIN8nlohmann16json_abi_v3_11_310basic_jsonINS_3mapES1_NS_12basic_stringIcNS_11char_traitsIcEENS_9allocatorIcEEEEbxydS9_NS3_14adl_serializerENS1_IhNS9_IhEEEEvEENS9_ISF_EEEEZNSF_6createISH_JEEEPT_DpOT0_EUlSI_E_EC1B8ue170006IRSI_RKSP_EEOSK_OT0_, symObjAddr: 0x1838C, symBinAddr: 0x100019D88, symSize: 0x3C }
  - { offsetInCU: 0x5ECD4, offset: 0x5ECD4, size: 0x8, addend: 0x0, symName: __ZNSt3__117__compressed_pairIPNS_6vectorIN8nlohmann16json_abi_v3_11_310basic_jsonINS_3mapES1_NS_12basic_stringIcNS_11char_traitsIcEENS_9allocatorIcEEEEbxydS9_NS3_14adl_serializerENS1_IhNS9_IhEEEEvEENS9_ISF_EEEEZNSF_6createISH_JEEEPT_DpOT0_EUlSI_E_EC2B8ue170006IRSI_RKSP_EEOSK_OT0_, symObjAddr: 0x183C8, symBinAddr: 0x100019DC4, symSize: 0x48 }
  - { offsetInCU: 0x5ED2C, offset: 0x5ED2C, size: 0x8, addend: 0x0, symName: __ZNSt3__122__compressed_pair_elemIZN8nlohmann16json_abi_v3_11_310basic_jsonINS_3mapENS_6vectorENS_12basic_stringIcNS_11char_traitsIcEENS_9allocatorIcEEEEbxydS9_NS2_14adl_serializerENS5_IhNS9_IhEEEEvE6createINS5_ISF_NS9_ISF_EEEEJEEEPT_DpOT0_EUlPSI_E_Li1ELb0EEC2B8ue170006IRKSP_vEEOSJ_, symObjAddr: 0x18410, symBinAddr: 0x100019E0C, symSize: 0x24 }
  - { offsetInCU: 0x5ED6E, offset: 0x5ED6E, size: 0x8, addend: 0x0, symName: __ZNSt3__19allocatorINS_6vectorIN8nlohmann16json_abi_v3_11_310basic_jsonINS_3mapES1_NS_12basic_stringIcNS_11char_traitsIcEENS0_IcEEEEbxydS0_NS3_14adl_serializerENS1_IhNS0_IhEEEEvEENS0_ISE_EEEEE9constructB8ue170006ISG_JEEEvPT_DpOT0_, symObjAddr: 0x18434, symBinAddr: 0x100019E30, symSize: 0x28 }
  - { offsetInCU: 0x5EDB0, offset: 0x5EDB0, size: 0x8, addend: 0x0, symName: __ZNKSt3__117__compressed_pairIPNS_6vectorIN8nlohmann16json_abi_v3_11_310basic_jsonINS_3mapES1_NS_12basic_stringIcNS_11char_traitsIcEENS_9allocatorIcEEEEbxydS9_NS3_14adl_serializerENS1_IhNS9_IhEEEEvEENS9_ISF_EEEEZNSF_6createISH_JEEEPT_DpOT0_EUlSI_E_E5firstB8ue170006Ev, symObjAddr: 0x1845C, symBinAddr: 0x100019E58, symSize: 0x24 }
  - { offsetInCU: 0x5EDD6, offset: 0x5EDD6, size: 0x8, addend: 0x0, symName: __ZNKSt3__110unique_ptrINS_6vectorIN8nlohmann16json_abi_v3_11_310basic_jsonINS_3mapES1_NS_12basic_stringIcNS_11char_traitsIcEENS_9allocatorIcEEEEbxydS9_NS3_14adl_serializerENS1_IhNS9_IhEEEEvEENS9_ISF_EEEEZNSF_6createISH_JEEEPT_DpOT0_EUlPSH_E_EcvbB8ue170006Ev, symObjAddr: 0x18480, symBinAddr: 0x100019E7C, symSize: 0x34 }
  - { offsetInCU: 0x5EDFC, offset: 0x5EDFC, size: 0x8, addend: 0x0, symName: __ZNSt3__117__compressed_pairIPNS_6vectorIN8nlohmann16json_abi_v3_11_310basic_jsonINS_3mapES1_NS_12basic_stringIcNS_11char_traitsIcEENS_9allocatorIcEEEEbxydS9_NS3_14adl_serializerENS1_IhNS9_IhEEEEvEENS9_ISF_EEEEZNSF_6createISH_JEEEPT_DpOT0_EUlSI_E_E5firstB8ue170006Ev, symObjAddr: 0x184B4, symBinAddr: 0x100019EB0, symSize: 0x24 }
  - { offsetInCU: 0x5EE22, offset: 0x5EE22, size: 0x8, addend: 0x0, symName: __ZNSt3__110unique_ptrINS_6vectorIN8nlohmann16json_abi_v3_11_310basic_jsonINS_3mapES1_NS_12basic_stringIcNS_11char_traitsIcEENS_9allocatorIcEEEEbxydS9_NS3_14adl_serializerENS1_IhNS9_IhEEEEvEENS9_ISF_EEEEZNSF_6createISH_JEEEPT_DpOT0_EUlPSH_E_ED2B8ue170006Ev, symObjAddr: 0x184D8, symBinAddr: 0x100019ED4, symSize: 0x30 }
  - { offsetInCU: 0x5EE4C, offset: 0x5EE4C, size: 0x8, addend: 0x0, symName: __ZNSt3__110unique_ptrINS_6vectorIN8nlohmann16json_abi_v3_11_310basic_jsonINS_3mapES1_NS_12basic_stringIcNS_11char_traitsIcEENS_9allocatorIcEEEEbxydS9_NS3_14adl_serializerENS1_IhNS9_IhEEEEvEENS9_ISF_EEEEZNSF_6createISH_JEEEPT_DpOT0_EUlPSH_E_E5resetB8ue170006ESO_, symObjAddr: 0x18508, symBinAddr: 0x100019F04, symSize: 0x80 }
  - { offsetInCU: 0x5EE90, offset: 0x5EE90, size: 0x8, addend: 0x0, symName: __ZNSt3__117__compressed_pairIPNS_6vectorIN8nlohmann16json_abi_v3_11_310basic_jsonINS_3mapES1_NS_12basic_stringIcNS_11char_traitsIcEENS_9allocatorIcEEEEbxydS9_NS3_14adl_serializerENS1_IhNS9_IhEEEEvEENS9_ISF_EEEEZNSF_6createISH_JEEEPT_DpOT0_EUlSI_E_E6secondB8ue170006Ev, symObjAddr: 0x18588, symBinAddr: 0x100019F84, symSize: 0x28 }
  - { offsetInCU: 0x5EEBC, offset: 0x5EEBC, size: 0x8, addend: 0x0, symName: __ZZN8nlohmann16json_abi_v3_11_310basic_jsonINSt3__13mapENS2_6vectorENS2_12basic_stringIcNS2_11char_traitsIcEENS2_9allocatorIcEEEEbxydS8_NS0_14adl_serializerENS4_IhNS8_IhEEEEvE6createINS4_ISE_NS8_ISE_EEEEJEEEPT_DpOT0_ENKUlPSH_E_clESN_, symObjAddr: 0x185B0, symBinAddr: 0x100019FAC, symSize: 0x34 }
  - { offsetInCU: 0x5EEF5, offset: 0x5EEF5, size: 0x8, addend: 0x0, symName: __ZNSt3__122__compressed_pair_elemIZN8nlohmann16json_abi_v3_11_310basic_jsonINS_3mapENS_6vectorENS_12basic_stringIcNS_11char_traitsIcEENS_9allocatorIcEEEEbxydS9_NS2_14adl_serializerENS5_IhNS9_IhEEEEvE6createINS5_ISF_NS9_ISF_EEEEJEEEPT_DpOT0_EUlPSI_E_Li1ELb0EE5__getB8ue170006Ev, symObjAddr: 0x185E4, symBinAddr: 0x100019FE0, symSize: 0x14 }
  - { offsetInCU: 0x5EF8E, offset: 0x5EF8E, size: 0x8, addend: 0x0, symName: __ZNSt3__110unique_ptrINS_12basic_stringIcNS_11char_traitsIcEENS_9allocatorIcEEEEZN8nlohmann16json_abi_v3_11_310basic_jsonINS_3mapENS_6vectorES6_bxydS4_NS8_14adl_serializerENSB_IhNS4_IhEEEEvE6createIS6_JRA1_KcEEEPT_DpOT0_EUlPS6_E_EC1B8ue170006ILb1EvEESP_NS_16__dependent_typeINS_27__unique_ptr_deleter_sfinaeISQ_EEXT_EE15__lval_ref_typeE, symObjAddr: 0x185F8, symBinAddr: 0x100019FF4, symSize: 0x3C }
  - { offsetInCU: 0x5EFDF, offset: 0x5EFDF, size: 0x8, addend: 0x0, symName: __ZNSt3__116allocator_traitsINS_9allocatorINS_12basic_stringIcNS_11char_traitsIcEENS1_IcEEEEEEE9constructB8ue170006IS6_JRA1_KcEvEEvRS7_PT_DpOT0_, symObjAddr: 0x18634, symBinAddr: 0x10001A030, symSize: 0x34 }
  - { offsetInCU: 0x5F036, offset: 0x5F036, size: 0x8, addend: 0x0, symName: __ZNKSt3__110unique_ptrINS_12basic_stringIcNS_11char_traitsIcEENS_9allocatorIcEEEEZN8nlohmann16json_abi_v3_11_310basic_jsonINS_3mapENS_6vectorES6_bxydS4_NS8_14adl_serializerENSB_IhNS4_IhEEEEvE6createIS6_JRA1_KcEEEPT_DpOT0_EUlPS6_E_E3getB8ue170006Ev, symObjAddr: 0x18668, symBinAddr: 0x10001A064, symSize: 0x28 }
  - { offsetInCU: 0x5F05C, offset: 0x5F05C, size: 0x8, addend: 0x0, symName: __ZNSt3__110unique_ptrINS_12basic_stringIcNS_11char_traitsIcEENS_9allocatorIcEEEEZN8nlohmann16json_abi_v3_11_310basic_jsonINS_3mapENS_6vectorES6_bxydS4_NS8_14adl_serializerENSB_IhNS4_IhEEEEvE6createIS6_JRA1_KcEEEPT_DpOT0_EUlPS6_E_E7releaseB8ue170006Ev, symObjAddr: 0x186BC, symBinAddr: 0x10001A0B8, symSize: 0x44 }
  - { offsetInCU: 0x5F091, offset: 0x5F091, size: 0x8, addend: 0x0, symName: __ZNSt3__110unique_ptrINS_12basic_stringIcNS_11char_traitsIcEENS_9allocatorIcEEEEZN8nlohmann16json_abi_v3_11_310basic_jsonINS_3mapENS_6vectorES6_bxydS4_NS8_14adl_serializerENSB_IhNS4_IhEEEEvE6createIS6_JRA1_KcEEEPT_DpOT0_EUlPS6_E_ED1B8ue170006Ev, symObjAddr: 0x18700, symBinAddr: 0x10001A0FC, symSize: 0x2C }
  - { offsetInCU: 0x5F0BB, offset: 0x5F0BB, size: 0x8, addend: 0x0, symName: __ZNSt3__110unique_ptrINS_12basic_stringIcNS_11char_traitsIcEENS_9allocatorIcEEEEZN8nlohmann16json_abi_v3_11_310basic_jsonINS_3mapENS_6vectorES6_bxydS4_NS8_14adl_serializerENSB_IhNS4_IhEEEEvE6createIS6_JRA1_KcEEEPT_DpOT0_EUlPS6_E_EC2B8ue170006ILb1EvEESP_NS_16__dependent_typeINS_27__unique_ptr_deleter_sfinaeISQ_EEXT_EE15__lval_ref_typeE, symObjAddr: 0x1872C, symBinAddr: 0x10001A128, symSize: 0x48 }
  - { offsetInCU: 0x5F10C, offset: 0x5F10C, size: 0x8, addend: 0x0, symName: __ZNSt3__117__compressed_pairIPNS_12basic_stringIcNS_11char_traitsIcEENS_9allocatorIcEEEEZN8nlohmann16json_abi_v3_11_310basic_jsonINS_3mapENS_6vectorES6_bxydS4_NS9_14adl_serializerENSC_IhNS4_IhEEEEvE6createIS6_JRA1_KcEEEPT_DpOT0_EUlS7_E_EC1B8ue170006IRS7_RKSQ_EEOSL_OT0_, symObjAddr: 0x18774, symBinAddr: 0x10001A170, symSize: 0x3C }
  - { offsetInCU: 0x5F164, offset: 0x5F164, size: 0x8, addend: 0x0, symName: __ZNSt3__117__compressed_pairIPNS_12basic_stringIcNS_11char_traitsIcEENS_9allocatorIcEEEEZN8nlohmann16json_abi_v3_11_310basic_jsonINS_3mapENS_6vectorES6_bxydS4_NS9_14adl_serializerENSC_IhNS4_IhEEEEvE6createIS6_JRA1_KcEEEPT_DpOT0_EUlS7_E_EC2B8ue170006IRS7_RKSQ_EEOSL_OT0_, symObjAddr: 0x187B0, symBinAddr: 0x10001A1AC, symSize: 0x48 }
  - { offsetInCU: 0x5F1BC, offset: 0x5F1BC, size: 0x8, addend: 0x0, symName: __ZNSt3__122__compressed_pair_elemIZN8nlohmann16json_abi_v3_11_310basic_jsonINS_3mapENS_6vectorENS_12basic_stringIcNS_11char_traitsIcEENS_9allocatorIcEEEEbxydS9_NS2_14adl_serializerENS5_IhNS9_IhEEEEvE6createISB_JRA1_KcEEEPT_DpOT0_EUlPSB_E_Li1ELb0EEC2B8ue170006IRKSQ_vEEOSK_, symObjAddr: 0x187F8, symBinAddr: 0x10001A1F4, symSize: 0x24 }
  - { offsetInCU: 0x5F1FE, offset: 0x5F1FE, size: 0x8, addend: 0x0, symName: __ZNSt3__19allocatorINS_12basic_stringIcNS_11char_traitsIcEENS0_IcEEEEE9constructB8ue170006IS5_JRA1_KcEEEvPT_DpOT0_, symObjAddr: 0x1881C, symBinAddr: 0x10001A218, symSize: 0x30 }
  - { offsetInCU: 0x5F254, offset: 0x5F254, size: 0x8, addend: 0x0, symName: __ZNKSt3__117__compressed_pairIPNS_12basic_stringIcNS_11char_traitsIcEENS_9allocatorIcEEEEZN8nlohmann16json_abi_v3_11_310basic_jsonINS_3mapENS_6vectorES6_bxydS4_NS9_14adl_serializerENSC_IhNS4_IhEEEEvE6createIS6_JRA1_KcEEEPT_DpOT0_EUlS7_E_E5firstB8ue170006Ev, symObjAddr: 0x1884C, symBinAddr: 0x10001A248, symSize: 0x24 }
  - { offsetInCU: 0x5F27A, offset: 0x5F27A, size: 0x8, addend: 0x0, symName: __ZNKSt3__110unique_ptrINS_12basic_stringIcNS_11char_traitsIcEENS_9allocatorIcEEEEZN8nlohmann16json_abi_v3_11_310basic_jsonINS_3mapENS_6vectorES6_bxydS4_NS8_14adl_serializerENSB_IhNS4_IhEEEEvE6createIS6_JRA1_KcEEEPT_DpOT0_EUlPS6_E_EcvbB8ue170006Ev, symObjAddr: 0x18870, symBinAddr: 0x10001A26C, symSize: 0x34 }
  - { offsetInCU: 0x5F2A0, offset: 0x5F2A0, size: 0x8, addend: 0x0, symName: __ZNSt3__117__compressed_pairIPNS_12basic_stringIcNS_11char_traitsIcEENS_9allocatorIcEEEEZN8nlohmann16json_abi_v3_11_310basic_jsonINS_3mapENS_6vectorES6_bxydS4_NS9_14adl_serializerENSC_IhNS4_IhEEEEvE6createIS6_JRA1_KcEEEPT_DpOT0_EUlS7_E_E5firstB8ue170006Ev, symObjAddr: 0x188A4, symBinAddr: 0x10001A2A0, symSize: 0x24 }
  - { offsetInCU: 0x5F2C6, offset: 0x5F2C6, size: 0x8, addend: 0x0, symName: __ZNSt3__110unique_ptrINS_12basic_stringIcNS_11char_traitsIcEENS_9allocatorIcEEEEZN8nlohmann16json_abi_v3_11_310basic_jsonINS_3mapENS_6vectorES6_bxydS4_NS8_14adl_serializerENSB_IhNS4_IhEEEEvE6createIS6_JRA1_KcEEEPT_DpOT0_EUlPS6_E_ED2B8ue170006Ev, symObjAddr: 0x188C8, symBinAddr: 0x10001A2C4, symSize: 0x30 }
  - { offsetInCU: 0x5F2F0, offset: 0x5F2F0, size: 0x8, addend: 0x0, symName: __ZNSt3__110unique_ptrINS_12basic_stringIcNS_11char_traitsIcEENS_9allocatorIcEEEEZN8nlohmann16json_abi_v3_11_310basic_jsonINS_3mapENS_6vectorES6_bxydS4_NS8_14adl_serializerENSB_IhNS4_IhEEEEvE6createIS6_JRA1_KcEEEPT_DpOT0_EUlPS6_E_E5resetB8ue170006ESP_, symObjAddr: 0x188F8, symBinAddr: 0x10001A2F4, symSize: 0x80 }
  - { offsetInCU: 0x5F334, offset: 0x5F334, size: 0x8, addend: 0x0, symName: __ZNSt3__117__compressed_pairIPNS_12basic_stringIcNS_11char_traitsIcEENS_9allocatorIcEEEEZN8nlohmann16json_abi_v3_11_310basic_jsonINS_3mapENS_6vectorES6_bxydS4_NS9_14adl_serializerENSC_IhNS4_IhEEEEvE6createIS6_JRA1_KcEEEPT_DpOT0_EUlS7_E_E6secondB8ue170006Ev, symObjAddr: 0x18978, symBinAddr: 0x10001A374, symSize: 0x28 }
  - { offsetInCU: 0x5F360, offset: 0x5F360, size: 0x8, addend: 0x0, symName: __ZZN8nlohmann16json_abi_v3_11_310basic_jsonINSt3__13mapENS2_6vectorENS2_12basic_stringIcNS2_11char_traitsIcEENS2_9allocatorIcEEEEbxydS8_NS0_14adl_serializerENS4_IhNS8_IhEEEEvE6createISA_JRA1_KcEEEPT_DpOT0_ENKUlPSA_E_clESO_, symObjAddr: 0x189A0, symBinAddr: 0x10001A39C, symSize: 0x34 }
  - { offsetInCU: 0x5F399, offset: 0x5F399, size: 0x8, addend: 0x0, symName: __ZNSt3__122__compressed_pair_elemIZN8nlohmann16json_abi_v3_11_310basic_jsonINS_3mapENS_6vectorENS_12basic_stringIcNS_11char_traitsIcEENS_9allocatorIcEEEEbxydS9_NS2_14adl_serializerENS5_IhNS9_IhEEEEvE6createISB_JRA1_KcEEEPT_DpOT0_EUlPSB_E_Li1ELb0EE5__getB8ue170006Ev, symObjAddr: 0x189D4, symBinAddr: 0x10001A3D0, symSize: 0x14 }
  - { offsetInCU: 0x5F3BF, offset: 0x5F3BF, size: 0x8, addend: 0x0, symName: __ZNSt3__116allocator_traitsINS_9allocatorIN8nlohmann16json_abi_v3_11_327byte_container_with_subtypeINS_6vectorIhNS1_IhEEEEEEEEE8allocateB8ue170006ERS9_m, symObjAddr: 0x189E8, symBinAddr: 0x10001A3E4, symSize: 0x2C }
  - { offsetInCU: 0x5F493, offset: 0x5F493, size: 0x8, addend: 0x0, symName: __ZNSt3__110unique_ptrIN8nlohmann16json_abi_v3_11_327byte_container_with_subtypeINS_6vectorIhNS_9allocatorIhEEEEEEZNS2_10basic_jsonINS_3mapES4_NS_12basic_stringIcNS_11char_traitsIcEENS5_IcEEEEbxydS5_NS2_14adl_serializerES7_vE6createIS8_JEEEPT_DpOT0_EUlPS8_E_EC1B8ue170006ILb1EvEESO_NS_16__dependent_typeINS_27__unique_ptr_deleter_sfinaeISP_EEXT_EE15__lval_ref_typeE, symObjAddr: 0x18A14, symBinAddr: 0x10001A410, symSize: 0x3C }
  - { offsetInCU: 0x5F4E4, offset: 0x5F4E4, size: 0x8, addend: 0x0, symName: __ZNSt3__116allocator_traitsINS_9allocatorIN8nlohmann16json_abi_v3_11_327byte_container_with_subtypeINS_6vectorIhNS1_IhEEEEEEEEE9constructB8ue170006IS8_JEvEEvRS9_PT_DpOT0_, symObjAddr: 0x18A50, symBinAddr: 0x10001A44C, symSize: 0x2C }
  - { offsetInCU: 0x5F526, offset: 0x5F526, size: 0x8, addend: 0x0, symName: __ZNKSt3__110unique_ptrIN8nlohmann16json_abi_v3_11_327byte_container_with_subtypeINS_6vectorIhNS_9allocatorIhEEEEEEZNS2_10basic_jsonINS_3mapES4_NS_12basic_stringIcNS_11char_traitsIcEENS5_IcEEEEbxydS5_NS2_14adl_serializerES7_vE6createIS8_JEEEPT_DpOT0_EUlPS8_E_E3getB8ue170006Ev, symObjAddr: 0x18A7C, symBinAddr: 0x10001A478, symSize: 0x28 }
  - { offsetInCU: 0x5F54C, offset: 0x5F54C, size: 0x8, addend: 0x0, symName: __ZNSt3__110unique_ptrIN8nlohmann16json_abi_v3_11_327byte_container_with_subtypeINS_6vectorIhNS_9allocatorIhEEEEEEZNS2_10basic_jsonINS_3mapES4_NS_12basic_stringIcNS_11char_traitsIcEENS5_IcEEEEbxydS5_NS2_14adl_serializerES7_vE6createIS8_JEEEPT_DpOT0_EUlPS8_E_E7releaseB8ue170006Ev, symObjAddr: 0x18AD0, symBinAddr: 0x10001A4CC, symSize: 0x44 }
  - { offsetInCU: 0x5F581, offset: 0x5F581, size: 0x8, addend: 0x0, symName: __ZNSt3__110unique_ptrIN8nlohmann16json_abi_v3_11_327byte_container_with_subtypeINS_6vectorIhNS_9allocatorIhEEEEEEZNS2_10basic_jsonINS_3mapES4_NS_12basic_stringIcNS_11char_traitsIcEENS5_IcEEEEbxydS5_NS2_14adl_serializerES7_vE6createIS8_JEEEPT_DpOT0_EUlPS8_E_ED1B8ue170006Ev, symObjAddr: 0x18B14, symBinAddr: 0x10001A510, symSize: 0x2C }
  - { offsetInCU: 0x5F5AB, offset: 0x5F5AB, size: 0x8, addend: 0x0, symName: __ZNSt3__19allocatorIN8nlohmann16json_abi_v3_11_327byte_container_with_subtypeINS_6vectorIhNS0_IhEEEEEEE8allocateB8ue170006Em, symObjAddr: 0x18B40, symBinAddr: 0x10001A53C, symSize: 0x5C }
  - { offsetInCU: 0x5F5EA, offset: 0x5F5EA, size: 0x8, addend: 0x0, symName: __ZNSt3__116allocator_traitsINS_9allocatorIN8nlohmann16json_abi_v3_11_327byte_container_with_subtypeINS_6vectorIhNS1_IhEEEEEEEEE8max_sizeB8ue170006IS9_vEEmRKS9_, symObjAddr: 0x18B9C, symBinAddr: 0x10001A598, symSize: 0x24 }
  - { offsetInCU: 0x5F618, offset: 0x5F618, size: 0x8, addend: 0x0, symName: __ZNKSt3__19allocatorIN8nlohmann16json_abi_v3_11_327byte_container_with_subtypeINS_6vectorIhNS0_IhEEEEEEE8max_sizeB8ue170006Ev, symObjAddr: 0x18BC0, symBinAddr: 0x10001A5BC, symSize: 0x18 }
  - { offsetInCU: 0x5F63E, offset: 0x5F63E, size: 0x8, addend: 0x0, symName: __ZNSt3__110unique_ptrIN8nlohmann16json_abi_v3_11_327byte_container_with_subtypeINS_6vectorIhNS_9allocatorIhEEEEEEZNS2_10basic_jsonINS_3mapES4_NS_12basic_stringIcNS_11char_traitsIcEENS5_IcEEEEbxydS5_NS2_14adl_serializerES7_vE6createIS8_JEEEPT_DpOT0_EUlPS8_E_EC2B8ue170006ILb1EvEESO_NS_16__dependent_typeINS_27__unique_ptr_deleter_sfinaeISP_EEXT_EE15__lval_ref_typeE, symObjAddr: 0x18BD8, symBinAddr: 0x10001A5D4, symSize: 0x48 }
  - { offsetInCU: 0x5F68F, offset: 0x5F68F, size: 0x8, addend: 0x0, symName: __ZNSt3__117__compressed_pairIPN8nlohmann16json_abi_v3_11_327byte_container_with_subtypeINS_6vectorIhNS_9allocatorIhEEEEEEZNS2_10basic_jsonINS_3mapES4_NS_12basic_stringIcNS_11char_traitsIcEENS5_IcEEEEbxydS5_NS2_14adl_serializerES7_vE6createIS8_JEEEPT_DpOT0_EUlS9_E_EC1B8ue170006IRS9_RKSP_EEOSK_OT0_, symObjAddr: 0x18C20, symBinAddr: 0x10001A61C, symSize: 0x3C }
  - { offsetInCU: 0x5F6E7, offset: 0x5F6E7, size: 0x8, addend: 0x0, symName: __ZNSt3__117__compressed_pairIPN8nlohmann16json_abi_v3_11_327byte_container_with_subtypeINS_6vectorIhNS_9allocatorIhEEEEEEZNS2_10basic_jsonINS_3mapES4_NS_12basic_stringIcNS_11char_traitsIcEENS5_IcEEEEbxydS5_NS2_14adl_serializerES7_vE6createIS8_JEEEPT_DpOT0_EUlS9_E_EC2B8ue170006IRS9_RKSP_EEOSK_OT0_, symObjAddr: 0x18C5C, symBinAddr: 0x10001A658, symSize: 0x48 }
  - { offsetInCU: 0x5F73F, offset: 0x5F73F, size: 0x8, addend: 0x0, symName: __ZNSt3__122__compressed_pair_elemIPN8nlohmann16json_abi_v3_11_327byte_container_with_subtypeINS_6vectorIhNS_9allocatorIhEEEEEELi0ELb0EEC2B8ue170006IRS9_vEEOT_, symObjAddr: 0x18CA4, symBinAddr: 0x10001A6A0, symSize: 0x24 }
  - { offsetInCU: 0x5F781, offset: 0x5F781, size: 0x8, addend: 0x0, symName: __ZNSt3__122__compressed_pair_elemIZN8nlohmann16json_abi_v3_11_310basic_jsonINS_3mapENS_6vectorENS_12basic_stringIcNS_11char_traitsIcEENS_9allocatorIcEEEEbxydS9_NS2_14adl_serializerENS5_IhNS9_IhEEEEvE6createINS2_27byte_container_with_subtypeISE_EEJEEEPT_DpOT0_EUlPSI_E_Li1ELb0EEC2B8ue170006IRKSP_vEEOSJ_, symObjAddr: 0x18CC8, symBinAddr: 0x10001A6C4, symSize: 0x24 }
  - { offsetInCU: 0x5F7C3, offset: 0x5F7C3, size: 0x8, addend: 0x0, symName: __ZNSt3__19allocatorIN8nlohmann16json_abi_v3_11_327byte_container_with_subtypeINS_6vectorIhNS0_IhEEEEEEE9constructB8ue170006IS7_JEEEvPT_DpOT0_, symObjAddr: 0x18CEC, symBinAddr: 0x10001A6E8, symSize: 0x28 }
  - { offsetInCU: 0x5F805, offset: 0x5F805, size: 0x8, addend: 0x0, symName: __ZN8nlohmann16json_abi_v3_11_327byte_container_with_subtypeINSt3__16vectorIhNS2_9allocatorIhEEEEEC1Ev, symObjAddr: 0x18D14, symBinAddr: 0x10001A710, symSize: 0x2C }
  - { offsetInCU: 0x5F82F, offset: 0x5F82F, size: 0x8, addend: 0x0, symName: __ZN8nlohmann16json_abi_v3_11_327byte_container_with_subtypeINSt3__16vectorIhNS2_9allocatorIhEEEEEC2Ev, symObjAddr: 0x18D40, symBinAddr: 0x10001A73C, symSize: 0x34 }
  - { offsetInCU: 0x5F859, offset: 0x5F859, size: 0x8, addend: 0x0, symName: __ZNSt3__16vectorIhNS_9allocatorIhEEEC2B8ue170006Ev, symObjAddr: 0x18D74, symBinAddr: 0x10001A770, symSize: 0x4C }
  - { offsetInCU: 0x5F883, offset: 0x5F883, size: 0x8, addend: 0x0, symName: __ZNSt3__117__compressed_pairIPhNS_9allocatorIhEEEC1B8ue170006IDnNS_18__default_init_tagEEEOT_OT0_, symObjAddr: 0x18DC0, symBinAddr: 0x10001A7BC, symSize: 0x3C }
  - { offsetInCU: 0x5F8DB, offset: 0x5F8DB, size: 0x8, addend: 0x0, symName: __ZNSt3__117__compressed_pairIPhNS_9allocatorIhEEEC2B8ue170006IDnNS_18__default_init_tagEEEOT_OT0_, symObjAddr: 0x18DFC, symBinAddr: 0x10001A7F8, symSize: 0x40 }
  - { offsetInCU: 0x5F933, offset: 0x5F933, size: 0x8, addend: 0x0, symName: __ZNSt3__122__compressed_pair_elemIPhLi0ELb0EEC2B8ue170006IDnvEEOT_, symObjAddr: 0x18E3C, symBinAddr: 0x10001A838, symSize: 0x1C }
  - { offsetInCU: 0x5F975, offset: 0x5F975, size: 0x8, addend: 0x0, symName: __ZNSt3__122__compressed_pair_elemINS_9allocatorIhEELi1ELb1EEC2B8ue170006ENS_18__default_init_tagE, symObjAddr: 0x18E58, symBinAddr: 0x10001A854, symSize: 0x2C }
  - { offsetInCU: 0x5F9AA, offset: 0x5F9AA, size: 0x8, addend: 0x0, symName: __ZNSt3__19allocatorIhEC2B8ue170006Ev, symObjAddr: 0x18E84, symBinAddr: 0x10001A880, symSize: 0x2C }
  - { offsetInCU: 0x5F9D4, offset: 0x5F9D4, size: 0x8, addend: 0x0, symName: __ZNSt3__116__non_trivial_ifILb1ENS_9allocatorIhEEEC2B8ue170006Ev, symObjAddr: 0x18EB0, symBinAddr: 0x10001A8AC, symSize: 0x14 }
  - { offsetInCU: 0x5F9FE, offset: 0x5F9FE, size: 0x8, addend: 0x0, symName: __ZNKSt3__117__compressed_pairIPN8nlohmann16json_abi_v3_11_327byte_container_with_subtypeINS_6vectorIhNS_9allocatorIhEEEEEEZNS2_10basic_jsonINS_3mapES4_NS_12basic_stringIcNS_11char_traitsIcEENS5_IcEEEEbxydS5_NS2_14adl_serializerES7_vE6createIS8_JEEEPT_DpOT0_EUlS9_E_E5firstB8ue170006Ev, symObjAddr: 0x18EC4, symBinAddr: 0x10001A8C0, symSize: 0x24 }
  - { offsetInCU: 0x5FA24, offset: 0x5FA24, size: 0x8, addend: 0x0, symName: __ZNKSt3__122__compressed_pair_elemIPN8nlohmann16json_abi_v3_11_327byte_container_with_subtypeINS_6vectorIhNS_9allocatorIhEEEEEELi0ELb0EE5__getB8ue170006Ev, symObjAddr: 0x18EE8, symBinAddr: 0x10001A8E4, symSize: 0x14 }
  - { offsetInCU: 0x5FA4A, offset: 0x5FA4A, size: 0x8, addend: 0x0, symName: __ZNKSt3__110unique_ptrIN8nlohmann16json_abi_v3_11_327byte_container_with_subtypeINS_6vectorIhNS_9allocatorIhEEEEEEZNS2_10basic_jsonINS_3mapES4_NS_12basic_stringIcNS_11char_traitsIcEENS5_IcEEEEbxydS5_NS2_14adl_serializerES7_vE6createIS8_JEEEPT_DpOT0_EUlPS8_E_EcvbB8ue170006Ev, symObjAddr: 0x18EFC, symBinAddr: 0x10001A8F8, symSize: 0x34 }
  - { offsetInCU: 0x5FA70, offset: 0x5FA70, size: 0x8, addend: 0x0, symName: __ZNSt3__117__compressed_pairIPN8nlohmann16json_abi_v3_11_327byte_container_with_subtypeINS_6vectorIhNS_9allocatorIhEEEEEEZNS2_10basic_jsonINS_3mapES4_NS_12basic_stringIcNS_11char_traitsIcEENS5_IcEEEEbxydS5_NS2_14adl_serializerES7_vE6createIS8_JEEEPT_DpOT0_EUlS9_E_E5firstB8ue170006Ev, symObjAddr: 0x18F30, symBinAddr: 0x10001A92C, symSize: 0x24 }
  - { offsetInCU: 0x5FA96, offset: 0x5FA96, size: 0x8, addend: 0x0, symName: __ZNSt3__122__compressed_pair_elemIPN8nlohmann16json_abi_v3_11_327byte_container_with_subtypeINS_6vectorIhNS_9allocatorIhEEEEEELi0ELb0EE5__getB8ue170006Ev, symObjAddr: 0x18F54, symBinAddr: 0x10001A950, symSize: 0x14 }
  - { offsetInCU: 0x5FABC, offset: 0x5FABC, size: 0x8, addend: 0x0, symName: __ZNSt3__110unique_ptrIN8nlohmann16json_abi_v3_11_327byte_container_with_subtypeINS_6vectorIhNS_9allocatorIhEEEEEEZNS2_10basic_jsonINS_3mapES4_NS_12basic_stringIcNS_11char_traitsIcEENS5_IcEEEEbxydS5_NS2_14adl_serializerES7_vE6createIS8_JEEEPT_DpOT0_EUlPS8_E_ED2B8ue170006Ev, symObjAddr: 0x18F68, symBinAddr: 0x10001A964, symSize: 0x30 }
  - { offsetInCU: 0x5FAE6, offset: 0x5FAE6, size: 0x8, addend: 0x0, symName: __ZNSt3__110unique_ptrIN8nlohmann16json_abi_v3_11_327byte_container_with_subtypeINS_6vectorIhNS_9allocatorIhEEEEEEZNS2_10basic_jsonINS_3mapES4_NS_12basic_stringIcNS_11char_traitsIcEENS5_IcEEEEbxydS5_NS2_14adl_serializerES7_vE6createIS8_JEEEPT_DpOT0_EUlPS8_E_E5resetB8ue170006ESO_, symObjAddr: 0x18F98, symBinAddr: 0x10001A994, symSize: 0x80 }
  - { offsetInCU: 0x5FB2A, offset: 0x5FB2A, size: 0x8, addend: 0x0, symName: __ZNSt3__117__compressed_pairIPN8nlohmann16json_abi_v3_11_327byte_container_with_subtypeINS_6vectorIhNS_9allocatorIhEEEEEEZNS2_10basic_jsonINS_3mapES4_NS_12basic_stringIcNS_11char_traitsIcEENS5_IcEEEEbxydS5_NS2_14adl_serializerES7_vE6createIS8_JEEEPT_DpOT0_EUlS9_E_E6secondB8ue170006Ev, symObjAddr: 0x19018, symBinAddr: 0x10001AA14, symSize: 0x28 }
  - { offsetInCU: 0x5FB56, offset: 0x5FB56, size: 0x8, addend: 0x0, symName: __ZZN8nlohmann16json_abi_v3_11_310basic_jsonINSt3__13mapENS2_6vectorENS2_12basic_stringIcNS2_11char_traitsIcEENS2_9allocatorIcEEEEbxydS8_NS0_14adl_serializerENS4_IhNS8_IhEEEEvE6createINS0_27byte_container_with_subtypeISD_EEJEEEPT_DpOT0_ENKUlPSH_E_clESN_, symObjAddr: 0x19040, symBinAddr: 0x10001AA3C, symSize: 0x34 }
  - { offsetInCU: 0x5FB8F, offset: 0x5FB8F, size: 0x8, addend: 0x0, symName: __ZNSt3__122__compressed_pair_elemIZN8nlohmann16json_abi_v3_11_310basic_jsonINS_3mapENS_6vectorENS_12basic_stringIcNS_11char_traitsIcEENS_9allocatorIcEEEEbxydS9_NS2_14adl_serializerENS5_IhNS9_IhEEEEvE6createINS2_27byte_container_with_subtypeISE_EEJEEEPT_DpOT0_EUlPSI_E_Li1ELb0EE5__getB8ue170006Ev, symObjAddr: 0x19074, symBinAddr: 0x10001AA70, symSize: 0x14 }
  - { offsetInCU: 0x5FBB5, offset: 0x5FBB5, size: 0x8, addend: 0x0, symName: __ZN8nlohmann16json_abi_v3_11_36detail11other_errorC1EiPKc, symObjAddr: 0x19088, symBinAddr: 0x10001AA84, symSize: 0x3C }
  - { offsetInCU: 0x5FBFD, offset: 0x5FBFD, size: 0x8, addend: 0x0, symName: __ZN8nlohmann16json_abi_v3_11_36detail11other_errorC2EiPKc, symObjAddr: 0x190C4, symBinAddr: 0x10001AAC0, symSize: 0x54 }
  - { offsetInCU: 0x5FC45, offset: 0x5FC45, size: 0x8, addend: 0x0, symName: __ZN8nlohmann16json_abi_v3_11_36detail11other_errorD0Ev, symObjAddr: 0x19118, symBinAddr: 0x10001AB14, symSize: 0x30 }
  - { offsetInCU: 0x5FC72, offset: 0x5FC72, size: 0x8, addend: 0x0, symName: __ZN8nlohmann16json_abi_v3_11_36detail11other_errorD2Ev, symObjAddr: 0x19148, symBinAddr: 0x10001AB44, symSize: 0x2C }
  - { offsetInCU: 0x5FC9F, offset: 0x5FC9F, size: 0x8, addend: 0x0, symName: __ZN8nlohmann16json_abi_v3_11_310basic_jsonINSt3__13mapENS2_6vectorENS2_12basic_stringIcNS2_11char_traitsIcEENS2_9allocatorIcEEEEbxydS8_NS0_14adl_serializerENS4_IhNS8_IhEEEEvEC1ERKSE_, symObjAddr: 0x19174, symBinAddr: 0x10001AB70, symSize: 0x34 }
  - { offsetInCU: 0x5FCD8, offset: 0x5FCD8, size: 0x8, addend: 0x0, symName: __ZN8nlohmann16json_abi_v3_11_310basic_jsonINSt3__13mapENS2_6vectorENS2_12basic_stringIcNS2_11char_traitsIcEENS2_9allocatorIcEEEEbxydS8_NS0_14adl_serializerENS4_IhNS8_IhEEEEvEC2ERKSE_, symObjAddr: 0x191A8, symBinAddr: 0x10001ABA4, symSize: 0x1F8 }
  - { offsetInCU: 0x5FD11, offset: 0x5FD11, size: 0x8, addend: 0x0, symName: __ZN8nlohmann16json_abi_v3_11_310basic_jsonINSt3__13mapENS2_6vectorENS2_12basic_stringIcNS2_11char_traitsIcEENS2_9allocatorIcEEEEbxydS8_NS0_14adl_serializerENS4_IhNS8_IhEEEEvE10json_valueC1ERKNS3_ISA_SE_NS2_4lessIvEENS8_INS2_4pairIKSA_SE_EEEEEE, symObjAddr: 0x193C8, symBinAddr: 0x10001ADC4, symSize: 0x34 }
  - { offsetInCU: 0x5FD4A, offset: 0x5FD4A, size: 0x8, addend: 0x0, symName: __ZN8nlohmann16json_abi_v3_11_310basic_jsonINSt3__13mapENS2_6vectorENS2_12basic_stringIcNS2_11char_traitsIcEENS2_9allocatorIcEEEEbxydS8_NS0_14adl_serializerENS4_IhNS8_IhEEEEvE10json_valueC1ERKNS4_ISE_NS8_ISE_EEEE, symObjAddr: 0x193FC, symBinAddr: 0x10001ADF8, symSize: 0x34 }
  - { offsetInCU: 0x5FD83, offset: 0x5FD83, size: 0x8, addend: 0x0, symName: __ZN8nlohmann16json_abi_v3_11_310basic_jsonINSt3__13mapENS2_6vectorENS2_12basic_stringIcNS2_11char_traitsIcEENS2_9allocatorIcEEEEbxydS8_NS0_14adl_serializerENS4_IhNS8_IhEEEEvE10json_valueC1Eb, symObjAddr: 0x19430, symBinAddr: 0x10001AE2C, symSize: 0x40 }
  - { offsetInCU: 0x5FDBC, offset: 0x5FDBC, size: 0x8, addend: 0x0, symName: __ZN8nlohmann16json_abi_v3_11_310basic_jsonINSt3__13mapENS2_6vectorENS2_12basic_stringIcNS2_11char_traitsIcEENS2_9allocatorIcEEEEbxydS8_NS0_14adl_serializerENS4_IhNS8_IhEEEEvE10json_valueC1Ex, symObjAddr: 0x19470, symBinAddr: 0x10001AE6C, symSize: 0x34 }
  - { offsetInCU: 0x5FDF5, offset: 0x5FDF5, size: 0x8, addend: 0x0, symName: __ZN8nlohmann16json_abi_v3_11_310basic_jsonINSt3__13mapENS2_6vectorENS2_12basic_stringIcNS2_11char_traitsIcEENS2_9allocatorIcEEEEbxydS8_NS0_14adl_serializerENS4_IhNS8_IhEEEEvE10json_valueC1Ey, symObjAddr: 0x194A4, symBinAddr: 0x10001AEA0, symSize: 0x34 }
  - { offsetInCU: 0x5FE2E, offset: 0x5FE2E, size: 0x8, addend: 0x0, symName: __ZN8nlohmann16json_abi_v3_11_310basic_jsonINSt3__13mapENS2_6vectorENS2_12basic_stringIcNS2_11char_traitsIcEENS2_9allocatorIcEEEEbxydS8_NS0_14adl_serializerENS4_IhNS8_IhEEEEvE10json_valueC1ERKNS0_27byte_container_with_subtypeISD_EE, symObjAddr: 0x194D8, symBinAddr: 0x10001AED4, symSize: 0x34 }
  - { offsetInCU: 0x5FE67, offset: 0x5FE67, size: 0x8, addend: 0x0, symName: __ZN8nlohmann16json_abi_v3_11_310basic_jsonINSt3__13mapENS2_6vectorENS2_12basic_stringIcNS2_11char_traitsIcEENS2_9allocatorIcEEEEbxydS8_NS0_14adl_serializerENS4_IhNS8_IhEEEEvE10json_valueC2ERKNS3_ISA_SE_NS2_4lessIvEENS8_INS2_4pairIKSA_SE_EEEEEE, symObjAddr: 0x1950C, symBinAddr: 0x10001AF08, symSize: 0x3C }
  - { offsetInCU: 0x5FEA0, offset: 0x5FEA0, size: 0x8, addend: 0x0, symName: __ZN8nlohmann16json_abi_v3_11_310basic_jsonINSt3__13mapENS2_6vectorENS2_12basic_stringIcNS2_11char_traitsIcEENS2_9allocatorIcEEEEbxydS8_NS0_14adl_serializerENS4_IhNS8_IhEEEEvE6createINS3_ISA_SE_NS2_4lessIvEENS8_INS2_4pairIKSA_SE_EEEEEEJRKSM_EEEPT_DpOT0_, symObjAddr: 0x19548, symBinAddr: 0x10001AF44, symSize: 0xF4 }
  - { offsetInCU: 0x5FFA1, offset: 0x5FFA1, size: 0x8, addend: 0x0, symName: __ZNSt3__110unique_ptrINS_3mapINS_12basic_stringIcNS_11char_traitsIcEENS_9allocatorIcEEEEN8nlohmann16json_abi_v3_11_310basic_jsonIS1_NS_6vectorES7_bxydS5_NS9_14adl_serializerENSB_IhNS5_IhEEEEvEENS_4lessIvEENS5_INS_4pairIKS7_SF_EEEEEEZNSF_6createISM_JRKSM_EEEPT_DpOT0_EUlPSM_E_EC1B8ue170006ILb1EvEESV_NS_16__dependent_typeINS_27__unique_ptr_deleter_sfinaeISW_EEXT_EE15__lval_ref_typeE, symObjAddr: 0x1963C, symBinAddr: 0x10001B038, symSize: 0x3C }
  - { offsetInCU: 0x5FFF2, offset: 0x5FFF2, size: 0x8, addend: 0x0, symName: __ZNSt3__116allocator_traitsINS_9allocatorINS_3mapINS_12basic_stringIcNS_11char_traitsIcEENS1_IcEEEEN8nlohmann16json_abi_v3_11_310basic_jsonIS2_NS_6vectorES7_bxydS1_NS9_14adl_serializerENSB_IhNS1_IhEEEEvEENS_4lessIvEENS1_INS_4pairIKS7_SF_EEEEEEEEE9constructB8ue170006ISM_JRKSM_EvEEvRSN_PT_DpOT0_, symObjAddr: 0x19678, symBinAddr: 0x10001B074, symSize: 0x34 }
  - { offsetInCU: 0x60049, offset: 0x60049, size: 0x8, addend: 0x0, symName: __ZNKSt3__110unique_ptrINS_3mapINS_12basic_stringIcNS_11char_traitsIcEENS_9allocatorIcEEEEN8nlohmann16json_abi_v3_11_310basic_jsonIS1_NS_6vectorES7_bxydS5_NS9_14adl_serializerENSB_IhNS5_IhEEEEvEENS_4lessIvEENS5_INS_4pairIKS7_SF_EEEEEEZNSF_6createISM_JRKSM_EEEPT_DpOT0_EUlPSM_E_E3getB8ue170006Ev, symObjAddr: 0x196AC, symBinAddr: 0x10001B0A8, symSize: 0x28 }
  - { offsetInCU: 0x6006F, offset: 0x6006F, size: 0x8, addend: 0x0, symName: __ZNSt3__110unique_ptrINS_3mapINS_12basic_stringIcNS_11char_traitsIcEENS_9allocatorIcEEEEN8nlohmann16json_abi_v3_11_310basic_jsonIS1_NS_6vectorES7_bxydS5_NS9_14adl_serializerENSB_IhNS5_IhEEEEvEENS_4lessIvEENS5_INS_4pairIKS7_SF_EEEEEEZNSF_6createISM_JRKSM_EEEPT_DpOT0_EUlPSM_E_E7releaseB8ue170006Ev, symObjAddr: 0x19700, symBinAddr: 0x10001B0FC, symSize: 0x44 }
  - { offsetInCU: 0x600A4, offset: 0x600A4, size: 0x8, addend: 0x0, symName: __ZNSt3__110unique_ptrINS_3mapINS_12basic_stringIcNS_11char_traitsIcEENS_9allocatorIcEEEEN8nlohmann16json_abi_v3_11_310basic_jsonIS1_NS_6vectorES7_bxydS5_NS9_14adl_serializerENSB_IhNS5_IhEEEEvEENS_4lessIvEENS5_INS_4pairIKS7_SF_EEEEEEZNSF_6createISM_JRKSM_EEEPT_DpOT0_EUlPSM_E_ED1B8ue170006Ev, symObjAddr: 0x19744, symBinAddr: 0x10001B140, symSize: 0x2C }
